libtensorflow_framework.so.2 libtensorflow-framework2 #MINVER#
 AbslInternalMutexYield@Base 2.0.0
 AbslInternalPerThreadSemPost@Base 2.0.0
 AbslInternalPerThreadSemWait@Base 2.0.0
 AbslInternalSleepFor@Base 2.0.0
 AbslInternalSpinLockDelay@Base 2.0.0
 AbslInternalSpinLockWake@Base 2.0.0
 AnnotateBenignRace@Base 2.0.0
 AnnotateBenignRaceSized@Base 2.0.0
 AnnotateEnableRaceDetection@Base 2.0.0
 AnnotateIgnoreReadsBegin@Base 2.0.0
 AnnotateIgnoreReadsEnd@Base 2.0.0
 AnnotateIgnoreWritesBegin@Base 2.0.0
 AnnotateIgnoreWritesEnd@Base 2.0.0
 AnnotateMemoryIsInitialized@Base 2.0.0
 AnnotateMemoryIsUninitialized@Base 2.0.0
 AnnotateRWLockAcquired@Base 2.0.0
 AnnotateRWLockCreate@Base 2.0.0
 AnnotateRWLockDestroy@Base 2.0.0
 AnnotateRWLockReleased@Base 2.0.0
 AnnotateThreadName@Base 2.0.0
 RunningOnValgrind@Base 2.0.0
 VERS_1.0@VERS_1.0 2.0.0
 ValgrindSlowdown@Base 2.0.0
 _Z14tf_git_versionv@Base 2.0.0
 _Z17tf_cxx11_abi_flagv@Base 2.0.0
 _Z19tf_compiler_versionv@Base 2.0.0
 _Z19tf_monolithic_buildv@Base 2.0.0
 _ZGVZN10tensorflow10Annotation16ThreadAnnotationB5cxx11EvE10annotation@Base 2.0.0
 _ZGVZN10tensorflow11LocalDevice19EigenThreadPoolInfoC4ERKNS_14SessionOptionsEiPNS_9AllocatorEE15env_num_threads@Base 2.0.0
 _ZGVZN10tensorflow4data29WhitelistedStatefulOpRegistry6GlobalEvE3reg@Base 2.0.0
 _ZGVZN10tensorflow7LibHDFS4LoadEvE3lib@Base 2.0.0
 _ZGVZN10tensorflow8grappler21NodeNameAsStringPieceERKNSt7__cxx1112basic_stringIcSt11char_traitsIcESaIcEEEE5emptyB5cxx11@Base 2.0.0
 _ZGVZN10tensorflow8grappler26ParseNodeNameAsStringPieceERKNSt7__cxx1112basic_stringIcSt11char_traitsIcESaIcEEEPiE5emptyB5cxx11@Base 2.0.0
 _ZGVZN5Eigen8internal20manage_caching_sizesENS_6ActionEPlS2_S2_E12m_cacheSizes@Base 2.0.0
 _ZGVZZN10tensorflow14RunHandlerPool4ImplC4EiiENKUliPKcE_clEiS3_E17vmodule_activated@Base 2.0.0
 _ZGVZZN10tensorflow17RamFileBlockCacheC4EmmySt8functionIFNS_6StatusERKNSt7__cxx1112basic_stringIcSt11char_traitsIcESaIcEEEmmPcPmEEPNS_3EnvEENKUliPKcE0_clEiSI_E17vmodule_activated@Base 2.0.0
 _ZGVZZN10tensorflow19LocalRendezvousImpl4SendERKNS_10Rendezvous9ParsedKeyERKNS1_4ArgsERKNS_6TensorEbENKUliPKcE0_clEiSC_E17vmodule_activated@Base 2.0.0
 _ZGVZZN10tensorflow19LocalRendezvousImpl4SendERKNS_10Rendezvous9ParsedKeyERKNS1_4ArgsERKNS_6TensorEbENKUliPKcE1_clEiSC_E17vmodule_activated@Base 2.0.0
 _ZGVZZN10tensorflow19LocalRendezvousImpl4SendERKNS_10Rendezvous9ParsedKeyERKNS1_4ArgsERKNS_6TensorEbENKUliPKcE2_clEiSC_E17vmodule_activated@Base 2.0.0
 _ZGVZZN10tensorflow19LocalRendezvousImpl4SendERKNS_10Rendezvous9ParsedKeyERKNS1_4ArgsERKNS_6TensorEbENKUliPKcE_clEiSC_E17vmodule_activated@Base 2.0.0
 _ZGVZZN10tensorflow19LocalRendezvousImpl9RecvAsyncERKNS_10Rendezvous9ParsedKeyERKNS1_4ArgsESt8functionIFvRKNS_6StatusES7_S7_RKNS_6TensorEbEEENKUliPKcE1_clEiSI_E17vmodule_activated@Base 2.0.0
 _ZGVZZN10tensorflow19LocalRendezvousImpl9RecvAsyncERKNS_10Rendezvous9ParsedKeyERKNS1_4ArgsESt8functionIFvRKNS_6StatusES7_S7_RKNS_6TensorEbEEENKUliPKcE3_clEiSI_E17vmodule_activated@Base 2.0.0
 _ZGVZZN10tensorflow19LocalRendezvousImpl9RecvAsyncERKNS_10Rendezvous9ParsedKeyERKNS1_4ArgsESt8functionIFvRKNS_6StatusES7_S7_RKNS_6TensorEbEEENKUliPKcE4_clEiSI_E17vmodule_activated@Base 2.0.0
 _ZGVZZN10tensorflow19LocalRendezvousImpl9RecvAsyncERKNS_10Rendezvous9ParsedKeyERKNS1_4ArgsESt8functionIFvRKNS_6StatusES7_S7_RKNS_6TensorEbEEENKUliPKcE_clEiSI_E17vmodule_activated@Base 2.0.0
 _ZGVZZN10tensorflow23ScopedAllocatorInstanceD4EvENKUliPKcE_clEiS2_E17vmodule_activated@Base 2.0.0
 _ZGVZZN10tensorflow4data5model4Node11record_stopExENKUliPKcE_clEiS4_E17vmodule_activated@Base 2.0.0
 _ZGVZZN10tensorflow8grappler20SymbolicShapeRefiner10UpdateNodeEPKNS_7NodeDefEPbENKUliPKcE_clEiS7_E17vmodule_activated@Base 2.0.0
 _ZGVZZN10tensorflow8grappler20SymbolicShapeRefiner11AddFunctionEPKNS_7NodeDefEENKUliPKcE_clEiS6_E17vmodule_activated@Base 2.0.0
 _ZGVZZN10tensorflow8grappler20SymbolicShapeRefiner14UpdateFunctionEPKNS_7NodeDefEENKUliPKcE_clEiS6_E17vmodule_activated@Base 2.0.0
 _ZGVZZN10tensorflow8grappler24UnaryElementwiseRewriter14BuildSplitNodeEPNS_8GraphDefEPNS0_7NodeMapERKSt6vectorIPNS_7NodeDefESaIS8_EERKS6_INS_11TensorShapeESaISD_EERKS6_INS_14NodeDefBuilder7NodeOutESaISJ_EERKNSt7__cxx1112basic_stringIcSt11char_traitsIcESaIcEEENS_8DataTypeESV_iSV_SV_SV_ENKUliPKcE_clEiSY_E17vmodule_activated@Base 2.0.0
 _ZGVZZN10tensorflow8grappler24UnaryElementwiseRewriter14RewireSubgraphEPNS_8GraphDefEPNS0_7NodeMapERKSt6vectorIPNS_7NodeDefESaIS8_EERKSt3setINSt7__cxx1112basic_stringIcSt11char_traitsIcESaIcEEESt4lessISJ_ESaISJ_EERKSJ_SR_ENKUliPKcE0_clEiST_E17vmodule_activated@Base 2.0.0
 _ZGVZZN10tensorflow8grappler24UnaryElementwiseRewriter14RewireSubgraphEPNS_8GraphDefEPNS0_7NodeMapERKSt6vectorIPNS_7NodeDefESaIS8_EERKSt3setINSt7__cxx1112basic_stringIcSt11char_traitsIcESaIcEEESt4lessISJ_ESaISJ_EERKSJ_SR_ENKUliPKcE10_clEiST_E17vmodule_activated@Base 2.0.0
 _ZGVZZN10tensorflow8grappler24UnaryElementwiseRewriter14RewireSubgraphEPNS_8GraphDefEPNS0_7NodeMapERKSt6vectorIPNS_7NodeDefESaIS8_EERKSt3setINSt7__cxx1112basic_stringIcSt11char_traitsIcESaIcEEESt4lessISJ_ESaISJ_EERKSJ_SR_ENKUliPKcE11_clEiST_E17vmodule_activated@Base 2.0.0
 _ZGVZZN10tensorflow8grappler24UnaryElementwiseRewriter14RewireSubgraphEPNS_8GraphDefEPNS0_7NodeMapERKSt6vectorIPNS_7NodeDefESaIS8_EERKSt3setINSt7__cxx1112basic_stringIcSt11char_traitsIcESaIcEEESt4lessISJ_ESaISJ_EERKSJ_SR_ENKUliPKcE12_clEiST_E17vmodule_activated@Base 2.0.0
 _ZGVZZN10tensorflow8grappler24UnaryElementwiseRewriter14RewireSubgraphEPNS_8GraphDefEPNS0_7NodeMapERKSt6vectorIPNS_7NodeDefESaIS8_EERKSt3setINSt7__cxx1112basic_stringIcSt11char_traitsIcESaIcEEESt4lessISJ_ESaISJ_EERKSJ_SR_ENKUliPKcE13_clEiST_E17vmodule_activated@Base 2.0.0
 _ZGVZZN10tensorflow8grappler24UnaryElementwiseRewriter14RewireSubgraphEPNS_8GraphDefEPNS0_7NodeMapERKSt6vectorIPNS_7NodeDefESaIS8_EERKSt3setINSt7__cxx1112basic_stringIcSt11char_traitsIcESaIcEEESt4lessISJ_ESaISJ_EERKSJ_SR_ENKUliPKcE1_clEiST_E17vmodule_activated@Base 2.0.0
 _ZGVZZN10tensorflow8grappler24UnaryElementwiseRewriter14RewireSubgraphEPNS_8GraphDefEPNS0_7NodeMapERKSt6vectorIPNS_7NodeDefESaIS8_EERKSt3setINSt7__cxx1112basic_stringIcSt11char_traitsIcESaIcEEESt4lessISJ_ESaISJ_EERKSJ_SR_ENKUliPKcE2_clEiST_E17vmodule_activated@Base 2.0.0
 _ZGVZZN10tensorflow8grappler24UnaryElementwiseRewriter14RewireSubgraphEPNS_8GraphDefEPNS0_7NodeMapERKSt6vectorIPNS_7NodeDefESaIS8_EERKSt3setINSt7__cxx1112basic_stringIcSt11char_traitsIcESaIcEEESt4lessISJ_ESaISJ_EERKSJ_SR_ENKUliPKcE3_clEiST_E17vmodule_activated@Base 2.0.0
 _ZGVZZN10tensorflow8grappler24UnaryElementwiseRewriter14RewireSubgraphEPNS_8GraphDefEPNS0_7NodeMapERKSt6vectorIPNS_7NodeDefESaIS8_EERKSt3setINSt7__cxx1112basic_stringIcSt11char_traitsIcESaIcEEESt4lessISJ_ESaISJ_EERKSJ_SR_ENKUliPKcE4_clEiST_E17vmodule_activated@Base 2.0.0
 _ZGVZZN10tensorflow8grappler24UnaryElementwiseRewriter14RewireSubgraphEPNS_8GraphDefEPNS0_7NodeMapERKSt6vectorIPNS_7NodeDefESaIS8_EERKSt3setINSt7__cxx1112basic_stringIcSt11char_traitsIcESaIcEEESt4lessISJ_ESaISJ_EERKSJ_SR_ENKUliPKcE5_clEiST_E17vmodule_activated@Base 2.0.0
 _ZGVZZN10tensorflow8grappler24UnaryElementwiseRewriter14RewireSubgraphEPNS_8GraphDefEPNS0_7NodeMapERKSt6vectorIPNS_7NodeDefESaIS8_EERKSt3setINSt7__cxx1112basic_stringIcSt11char_traitsIcESaIcEEESt4lessISJ_ESaISJ_EERKSJ_SR_ENKUliPKcE6_clEiST_E17vmodule_activated@Base 2.0.0
 _ZGVZZN10tensorflow8grappler24UnaryElementwiseRewriter14RewireSubgraphEPNS_8GraphDefEPNS0_7NodeMapERKSt6vectorIPNS_7NodeDefESaIS8_EERKSt3setINSt7__cxx1112basic_stringIcSt11char_traitsIcESaIcEEESt4lessISJ_ESaISJ_EERKSJ_SR_ENKUliPKcE7_clEiST_E17vmodule_activated@Base 2.0.0
 _ZGVZZN10tensorflow8grappler24UnaryElementwiseRewriter14RewireSubgraphEPNS_8GraphDefEPNS0_7NodeMapERKSt6vectorIPNS_7NodeDefESaIS8_EERKSt3setINSt7__cxx1112basic_stringIcSt11char_traitsIcESaIcEEESt4lessISJ_ESaISJ_EERKSJ_SR_ENKUliPKcE8_clEiST_E17vmodule_activated@Base 2.0.0
 _ZGVZZN10tensorflow8grappler24UnaryElementwiseRewriter14RewireSubgraphEPNS_8GraphDefEPNS0_7NodeMapERKSt6vectorIPNS_7NodeDefESaIS8_EERKSt3setINSt7__cxx1112basic_stringIcSt11char_traitsIcESaIcEEESt4lessISJ_ESaISJ_EERKSJ_SR_ENKUliPKcE9_clEiST_E17vmodule_activated@Base 2.0.0
 _ZGVZZN10tensorflow8grappler24UnaryElementwiseRewriter14RewireSubgraphEPNS_8GraphDefEPNS0_7NodeMapERKSt6vectorIPNS_7NodeDefESaIS8_EERKSt3setINSt7__cxx1112basic_stringIcSt11char_traitsIcESaIcEEESt4lessISJ_ESaISJ_EERKSJ_SR_ENKUliPKcE_clEiST_E17vmodule_activated@Base 2.0.0
 _ZGVZZN10tensorflow8grappler24UnaryElementwiseRewriter17BuildSAConcatNodeEPNS_8GraphDefEPNS0_7NodeMapERKSt6vectorIPNS_7NodeDefESaIS8_EERKSt3setINSt7__cxx1112basic_stringIcSt11char_traitsIcESaIcEEESt4lessISJ_ESaISJ_EERKSJ_NS_8DataTypeEiSR_SR_RKNS_11TensorShapeEPS6_INS_14NodeDefBuilder7NodeOutESaISX_EEENKUliPKcE0_clEiS12_E17vmodule_activated@Base 2.0.0
 _ZGVZZN10tensorflow8grappler24UnaryElementwiseRewriter17BuildSAConcatNodeEPNS_8GraphDefEPNS0_7NodeMapERKSt6vectorIPNS_7NodeDefESaIS8_EERKSt3setINSt7__cxx1112basic_stringIcSt11char_traitsIcESaIcEEESt4lessISJ_ESaISJ_EERKSJ_NS_8DataTypeEiSR_SR_RKNS_11TensorShapeEPS6_INS_14NodeDefBuilder7NodeOutESaISX_EEENKUliPKcE1_clEiS12_E17vmodule_activated@Base 2.0.0
 _ZGVZZN10tensorflow8grappler24UnaryElementwiseRewriter17BuildSAConcatNodeEPNS_8GraphDefEPNS0_7NodeMapERKSt6vectorIPNS_7NodeDefESaIS8_EERKSt3setINSt7__cxx1112basic_stringIcSt11char_traitsIcESaIcEEESt4lessISJ_ESaISJ_EERKSJ_NS_8DataTypeEiSR_SR_RKNS_11TensorShapeEPS6_INS_14NodeDefBuilder7NodeOutESaISX_EEENKUliPKcE_clEiS12_E17vmodule_activated@Base 2.0.0
 _ZGVZZN10tensorflow8grappler24UnaryElementwiseRewriter18BuildReplacementOpEPNS_8GraphDefEPNS0_7NodeMapERKSt6vectorIPNS_7NodeDefESaIS8_EERKNSt7__cxx1112basic_stringIcSt11char_traitsIcESaIcEEENS_8DataTypeESK_SK_SK_ENKUliPKcE_clEiSN_E17vmodule_activated@Base 2.0.0
 _ZGVZZN10tensorflow8grappler24UnaryElementwiseRewriter26ClearInternalControlInputsERKSt3setINSt7__cxx1112basic_stringIcSt11char_traitsIcESaIcEEESt4lessIS8_ESaIS8_EERKSt6vectorIPNS_7NodeDefESaISH_EEPNS0_7NodeMapEENKUliPKcE_clEiSP_E17vmodule_activated@Base 2.0.0
 _ZGVZZN10tensorflow8grappler24UnaryElementwiseRewriter7RewriteEPNS0_24ScopedAllocatorOptimizerExPNS_8GraphDefERKNSt7__cxx1112basic_stringIcSt11char_traitsIcESaIcEEERKSt6vectorIPNS_7NodeDefESaISG_EEPbENKUliPKcE0_clEiSN_E17vmodule_activated@Base 2.0.0
 _ZGVZZN10tensorflow8grappler24UnaryElementwiseRewriter7RewriteEPNS0_24ScopedAllocatorOptimizerExPNS_8GraphDefERKNSt7__cxx1112basic_stringIcSt11char_traitsIcESaIcEEERKSt6vectorIPNS_7NodeDefESaISG_EEPbENKUliPKcE1_clEiSN_E17vmodule_activated@Base 2.0.0
 _ZGVZZN10tensorflow8grappler24UnaryElementwiseRewriter7RewriteEPNS0_24ScopedAllocatorOptimizerExPNS_8GraphDefERKNSt7__cxx1112basic_stringIcSt11char_traitsIcESaIcEEERKSt6vectorIPNS_7NodeDefESaISG_EEPbENKUliPKcE2_clEiSN_E17vmodule_activated@Base 2.0.0
 _ZGVZZN10tensorflow8grappler24UnaryElementwiseRewriter7RewriteEPNS0_24ScopedAllocatorOptimizerExPNS_8GraphDefERKNSt7__cxx1112basic_stringIcSt11char_traitsIcESaIcEEERKSt6vectorIPNS_7NodeDefESaISG_EEPbENKUliPKcE_clEiSN_E17vmodule_activated@Base 2.0.0
 _ZGVZZN10tensorflow8grappler27GraphOptimizerStagePipelineINSt7__cxx1112basic_stringIcSt11char_traitsIcESaIcEEEE20PassThroughAllStagesEPNS_7NodeDefEPS7_ENKUliPKcE_clEiSD_E17vmodule_activated@Base 2.0.0
 _ZGVZZN15stream_executor6Stream28ThenConvolveBackwardBiasImplIN5Eigen4halfEEERS0_RKNS_3dnn15BatchDescriptorERKNS_12DeviceMemoryIT_EES8_PSB_ENKUliPKcE_clEiSG_E17vmodule_activated@Base 2.0.0
 _ZGVZZN15stream_executor6Stream28ThenConvolveBackwardBiasImplIdEERS0_RKNS_3dnn15BatchDescriptorERKNS_12DeviceMemoryIT_EES6_PS9_ENKUliPKcE_clEiSE_E17vmodule_activated@Base 2.0.0
 _ZGVZZN15stream_executor6Stream28ThenConvolveBackwardBiasImplIfEERS0_RKNS_3dnn15BatchDescriptorERKNS_12DeviceMemoryIT_EES6_PS9_ENKUliPKcE_clEiSE_E17vmodule_activated@Base 2.0.0
 _ZGVZZNK10tensorflow10checkpoint17TensorSliceReader13CopySliceDataINSt7__cxx1112basic_stringIcSt11char_traitsIcESaIcEEEEEbRKS8_RKNS_11TensorSliceEPT_ENKUliPKcE0_clEiSH_E17vmodule_activated@Base 2.0.0
 _ZGVZZNK10tensorflow10checkpoint17TensorSliceReader13CopySliceDataINSt7__cxx1112basic_stringIcSt11char_traitsIcESaIcEEEEEbRKS8_RKNS_11TensorSliceEPT_ENKUliPKcE1_clEiSH_E17vmodule_activated@Base 2.0.0
 _ZGVZZNK10tensorflow10checkpoint17TensorSliceReader13CopySliceDataINSt7__cxx1112basic_stringIcSt11char_traitsIcESaIcEEEEEbRKS8_RKNS_11TensorSliceEPT_ENKUliPKcE_clEiSH_E17vmodule_activated@Base 2.0.0
 _ZGVZZNK10tensorflow10checkpoint17TensorSliceReader13CopySliceDataIaEEbRKNSt7__cxx1112basic_stringIcSt11char_traitsIcESaIcEEERKNS_11TensorSliceEPT_ENKUliPKcE0_clEiSH_E17vmodule_activated@Base 2.0.0
 _ZGVZZNK10tensorflow10checkpoint17TensorSliceReader13CopySliceDataIaEEbRKNSt7__cxx1112basic_stringIcSt11char_traitsIcESaIcEEERKNS_11TensorSliceEPT_ENKUliPKcE1_clEiSH_E17vmodule_activated@Base 2.0.0
 _ZGVZZNK10tensorflow10checkpoint17TensorSliceReader13CopySliceDataIaEEbRKNSt7__cxx1112basic_stringIcSt11char_traitsIcESaIcEEERKNS_11TensorSliceEPT_ENKUliPKcE_clEiSH_E17vmodule_activated@Base 2.0.0
 _ZGVZZNK10tensorflow10checkpoint17TensorSliceReader13CopySliceDataIdEEbRKNSt7__cxx1112basic_stringIcSt11char_traitsIcESaIcEEERKNS_11TensorSliceEPT_ENKUliPKcE0_clEiSH_E17vmodule_activated@Base 2.0.0
 _ZGVZZNK10tensorflow10checkpoint17TensorSliceReader13CopySliceDataIdEEbRKNSt7__cxx1112basic_stringIcSt11char_traitsIcESaIcEEERKNS_11TensorSliceEPT_ENKUliPKcE1_clEiSH_E17vmodule_activated@Base 2.0.0
 _ZGVZZNK10tensorflow10checkpoint17TensorSliceReader13CopySliceDataIdEEbRKNSt7__cxx1112basic_stringIcSt11char_traitsIcESaIcEEERKNS_11TensorSliceEPT_ENKUliPKcE_clEiSH_E17vmodule_activated@Base 2.0.0
 _ZGVZZNK10tensorflow10checkpoint17TensorSliceReader13CopySliceDataIfEEbRKNSt7__cxx1112basic_stringIcSt11char_traitsIcESaIcEEERKNS_11TensorSliceEPT_ENKUliPKcE0_clEiSH_E17vmodule_activated@Base 2.0.0
 _ZGVZZNK10tensorflow10checkpoint17TensorSliceReader13CopySliceDataIfEEbRKNSt7__cxx1112basic_stringIcSt11char_traitsIcESaIcEEERKNS_11TensorSliceEPT_ENKUliPKcE1_clEiSH_E17vmodule_activated@Base 2.0.0
 _ZGVZZNK10tensorflow10checkpoint17TensorSliceReader13CopySliceDataIfEEbRKNSt7__cxx1112basic_stringIcSt11char_traitsIcESaIcEEERKNS_11TensorSliceEPT_ENKUliPKcE_clEiSH_E17vmodule_activated@Base 2.0.0
 _ZGVZZNK10tensorflow10checkpoint17TensorSliceReader13CopySliceDataIhEEbRKNSt7__cxx1112basic_stringIcSt11char_traitsIcESaIcEEERKNS_11TensorSliceEPT_ENKUliPKcE0_clEiSH_E17vmodule_activated@Base 2.0.0
 _ZGVZZNK10tensorflow10checkpoint17TensorSliceReader13CopySliceDataIhEEbRKNSt7__cxx1112basic_stringIcSt11char_traitsIcESaIcEEERKNS_11TensorSliceEPT_ENKUliPKcE1_clEiSH_E17vmodule_activated@Base 2.0.0
 _ZGVZZNK10tensorflow10checkpoint17TensorSliceReader13CopySliceDataIhEEbRKNSt7__cxx1112basic_stringIcSt11char_traitsIcESaIcEEERKNS_11TensorSliceEPT_ENKUliPKcE_clEiSH_E17vmodule_activated@Base 2.0.0
 _ZGVZZNK10tensorflow10checkpoint17TensorSliceReader13CopySliceDataIiEEbRKNSt7__cxx1112basic_stringIcSt11char_traitsIcESaIcEEERKNS_11TensorSliceEPT_ENKUliPKcE0_clEiSH_E17vmodule_activated@Base 2.0.0
 _ZGVZZNK10tensorflow10checkpoint17TensorSliceReader13CopySliceDataIiEEbRKNSt7__cxx1112basic_stringIcSt11char_traitsIcESaIcEEERKNS_11TensorSliceEPT_ENKUliPKcE1_clEiSH_E17vmodule_activated@Base 2.0.0
 _ZGVZZNK10tensorflow10checkpoint17TensorSliceReader13CopySliceDataIiEEbRKNSt7__cxx1112basic_stringIcSt11char_traitsIcESaIcEEERKNS_11TensorSliceEPT_ENKUliPKcE_clEiSH_E17vmodule_activated@Base 2.0.0
 _ZGVZZNK10tensorflow10checkpoint17TensorSliceReader13CopySliceDataIsEEbRKNSt7__cxx1112basic_stringIcSt11char_traitsIcESaIcEEERKNS_11TensorSliceEPT_ENKUliPKcE0_clEiSH_E17vmodule_activated@Base 2.0.0
 _ZGVZZNK10tensorflow10checkpoint17TensorSliceReader13CopySliceDataIsEEbRKNSt7__cxx1112basic_stringIcSt11char_traitsIcESaIcEEERKNS_11TensorSliceEPT_ENKUliPKcE1_clEiSH_E17vmodule_activated@Base 2.0.0
 _ZGVZZNK10tensorflow10checkpoint17TensorSliceReader13CopySliceDataIsEEbRKNSt7__cxx1112basic_stringIcSt11char_traitsIcESaIcEEERKNS_11TensorSliceEPT_ENKUliPKcE_clEiSH_E17vmodule_activated@Base 2.0.0
 _ZGVZZNK10tensorflow10checkpoint17TensorSliceReader13CopySliceDataIxEEbRKNSt7__cxx1112basic_stringIcSt11char_traitsIcESaIcEEERKNS_11TensorSliceEPT_ENKUliPKcE0_clEiSH_E17vmodule_activated@Base 2.0.0
 _ZGVZZNK10tensorflow10checkpoint17TensorSliceReader13CopySliceDataIxEEbRKNSt7__cxx1112basic_stringIcSt11char_traitsIcESaIcEEERKNS_11TensorSliceEPT_ENKUliPKcE1_clEiSH_E17vmodule_activated@Base 2.0.0
 _ZGVZZNK10tensorflow10checkpoint17TensorSliceReader13CopySliceDataIxEEbRKNSt7__cxx1112basic_stringIcSt11char_traitsIcESaIcEEERKNS_11TensorSliceEPT_ENKUliPKcE_clEiSH_E17vmodule_activated@Base 2.0.0
 _ZGVZZNK10tensorflow8grappler20SymbolicShapeRefiner43UpdateOutputShapesUsingAnnotatedInformationERKNS_7NodeDefEPNS1_11NodeContextEENKUliPKcE_clEiS8_E17vmodule_activated@Base 2.0.0
 _ZN10tensorflow10ApiDef_Arg12InternalSwapEPS0_@Base 2.0.0
 _ZN10tensorflow10ApiDef_Arg14_InternalParseEPKcPN6google8protobuf8internal12ParseContextE@Base 2.0.0
 _ZN10tensorflow10ApiDef_Arg16default_instanceEv@Base 2.0.0
 _ZN10tensorflow10ApiDef_Arg21InitAsDefaultInstanceEv@Base 2.0.0
 _ZN10tensorflow10ApiDef_Arg5ClearEv@Base 2.0.0
 _ZN10tensorflow10ApiDef_Arg8CopyFromERKN6google8protobuf7MessageE@Base 2.0.0
 _ZN10tensorflow10ApiDef_Arg8CopyFromERKS0_@Base 2.0.0
 _ZN10tensorflow10ApiDef_Arg9ArenaDtorEPv@Base 2.0.0
 _ZN10tensorflow10ApiDef_Arg9MergeFromERKN6google8protobuf7MessageE@Base 2.0.0
 _ZN10tensorflow10ApiDef_Arg9MergeFromERKS0_@Base 2.0.0
 _ZN10tensorflow10ApiDef_ArgC1EPN6google8protobuf5ArenaE@Base 2.0.0
 _ZN10tensorflow10ApiDef_ArgC1ERKS0_@Base 2.0.0
 _ZN10tensorflow10ApiDef_ArgC1Ev@Base 2.0.0
 _ZN10tensorflow10ApiDef_ArgC2EPN6google8protobuf5ArenaE@Base 2.0.0
 _ZN10tensorflow10ApiDef_ArgC2ERKS0_@Base 2.0.0
 _ZN10tensorflow10ApiDef_ArgC2Ev@Base 2.0.0
 _ZN10tensorflow10ApiDef_ArgD0Ev@Base 2.0.0
 _ZN10tensorflow10ApiDef_ArgD1Ev@Base 2.0.0
 _ZN10tensorflow10ApiDef_ArgD2Ev@Base 2.0.0
 _ZN10tensorflow10ArgNumTypeENS_9AttrSliceERKNS_12OpDef_ArgDefEPbPN4absl13InlinedVectorINS_8DataTypeELm4ESaIS7_EEE@Base 2.0.0
 _ZN10tensorflow10ClusterDef12InternalSwapEPS0_@Base 2.0.0
 _ZN10tensorflow10ClusterDef14_InternalParseEPKcPN6google8protobuf8internal12ParseContextE@Base 2.0.0
 _ZN10tensorflow10ClusterDef16default_instanceEv@Base 2.0.0
 _ZN10tensorflow10ClusterDef21InitAsDefaultInstanceEv@Base 2.0.0
 _ZN10tensorflow10ClusterDef5ClearEv@Base 2.0.0
 _ZN10tensorflow10ClusterDef8CopyFromERKN6google8protobuf7MessageE@Base 2.0.0
 _ZN10tensorflow10ClusterDef8CopyFromERKS0_@Base 2.0.0
 _ZN10tensorflow10ClusterDef9ArenaDtorEPv@Base 2.0.0
 _ZN10tensorflow10ClusterDef9MergeFromERKN6google8protobuf7MessageE@Base 2.0.0
 _ZN10tensorflow10ClusterDef9MergeFromERKS0_@Base 2.0.0
 _ZN10tensorflow10ClusterDefC1EPN6google8protobuf5ArenaE@Base 2.0.0
 _ZN10tensorflow10ClusterDefC1ERKS0_@Base 2.0.0
 _ZN10tensorflow10ClusterDefC1Ev@Base 2.0.0
 _ZN10tensorflow10ClusterDefC2EPN6google8protobuf5ArenaE@Base 2.0.0
 _ZN10tensorflow10ClusterDefC2ERKS0_@Base 2.0.0
 _ZN10tensorflow10ClusterDefC2Ev@Base 2.0.0
 _ZN10tensorflow10ClusterDefD0Ev@Base 2.0.0
 _ZN10tensorflow10ClusterDefD1Ev@Base 2.0.0
 _ZN10tensorflow10ClusterDefD2Ev@Base 2.0.0
 _ZN10tensorflow10CopyTensor12RegistrationC1ENS_10DeviceTypeES2_PFvPNS_13DeviceContextES4_PNS_6DeviceES6_NS_19AllocatorAttributesES7_PKNS_6TensorEPS8_iSt8functionIFvRKNS_6StatusEEEE@Base 2.0.0
 _ZN10tensorflow10CopyTensor12RegistrationC2ENS_10DeviceTypeES2_PFvPNS_13DeviceContextES4_PNS_6DeviceES6_NS_19AllocatorAttributesES7_PKNS_6TensorEPS8_iSt8functionIFvRKNS_6StatusEEEE@Base 2.0.0
 _ZN10tensorflow10CopyTensor6ViaDMAEN4absl11string_viewEPNS_13DeviceContextES4_PNS_6DeviceES6_NS_19AllocatorAttributesES7_PKNS_6TensorEPS8_iSt8functionIFvRKNS_6StatusEEEb@Base 2.0.0
 _ZN10tensorflow10CopyTensor8RegisterENS_10DeviceTypeES1_PFvPNS_13DeviceContextES3_PNS_6DeviceES5_NS_19AllocatorAttributesES6_PKNS_6TensorEPS7_iSt8functionIFvRKNS_6StatusEEEE@Base 2.0.0
 _ZN10tensorflow10DEVICE_CPUE@Base 2.0.0
 _ZN10tensorflow10DEVICE_GPUE@Base 2.0.0
 _ZN10tensorflow10DeviceBase12GetAllocatorENS_19AllocatorAttributesE@Base 2.0.0
 _ZN10tensorflow10DeviceBase13MakeGpuDeviceEv@Base 2.0.0
 _ZN10tensorflow10DeviceBase16UnderlyingDeviceEv@Base 2.0.0
 _ZN10tensorflow10DeviceBase16eigen_cpu_deviceEv@Base 2.0.0
 _ZN10tensorflow10DeviceBase17SafeAllocFrontierEy@Base 2.0.0
 _ZN10tensorflow10DeviceBase18GetScopedAllocatorENS_19AllocatorAttributesEx@Base 2.0.0
 _ZN10tensorflow10DeviceBase19MakeTensorFromProtoERKNS_11TensorProtoENS_19AllocatorAttributesEPNS_6TensorE@Base 2.0.0
 _ZN10tensorflow10DeviceBase20set_eigen_cpu_deviceEPN5Eigen16ThreadPoolDeviceE@Base 2.0.0
 _ZN10tensorflow10DeviceBase21ReinitializeGpuDeviceEPNS_15OpKernelContextEPNS_14PerOpGpuDeviceEPNS_13DeviceContextEPNS_9AllocatorE@Base 2.0.0
 _ZN10tensorflow10DeviceBase22CopyTensorInSameDeviceEPKNS_6TensorEPS1_PKNS_13DeviceContextESt8functionIFvRKNS_6StatusEEE@Base 2.0.0
 _ZN10tensorflow10DeviceBase29tensorflow_device_thread_poolEv@Base 2.0.0
 _ZN10tensorflow10DeviceBaseD0Ev@Base 2.0.0
 _ZN10tensorflow10DeviceBaseD1Ev@Base 2.0.0
 _ZN10tensorflow10DeviceBaseD2Ev@Base 2.0.0
 _ZN10tensorflow10DeviceNameIN5Eigen16ThreadPoolDeviceEE5valueB5cxx11E@Base 2.0.0
 _ZN10tensorflow10EntryValue10clear_kindEv@Base 2.0.0
 _ZN10tensorflow10EntryValue12InternalSwapEPS0_@Base 2.0.0
 _ZN10tensorflow10EntryValue14_InternalParseEPKcPN6google8protobuf8internal12ParseContextE@Base 2.0.0
 _ZN10tensorflow10EntryValue16default_instanceEv@Base 2.0.0
 _ZN10tensorflow10EntryValue21InitAsDefaultInstanceEv@Base 2.0.0
 _ZN10tensorflow10EntryValue5ClearEv@Base 2.0.0
 _ZN10tensorflow10EntryValue8CopyFromERKN6google8protobuf7MessageE@Base 2.0.0
 _ZN10tensorflow10EntryValue8CopyFromERKS0_@Base 2.0.0
 _ZN10tensorflow10EntryValue9ArenaDtorEPv@Base 2.0.0
 _ZN10tensorflow10EntryValue9MergeFromERKN6google8protobuf7MessageE@Base 2.0.0
 _ZN10tensorflow10EntryValue9MergeFromERKS0_@Base 2.0.0
 _ZN10tensorflow10EntryValueC1EPN6google8protobuf5ArenaE@Base 2.0.0
 _ZN10tensorflow10EntryValueC1ERKS0_@Base 2.0.0
 _ZN10tensorflow10EntryValueC1Ev@Base 2.0.0
 _ZN10tensorflow10EntryValueC2EPN6google8protobuf5ArenaE@Base 2.0.0
 _ZN10tensorflow10EntryValueC2ERKS0_@Base 2.0.0
 _ZN10tensorflow10EntryValueC2Ev@Base 2.0.0
 _ZN10tensorflow10EntryValueD0Ev@Base 2.0.0
 _ZN10tensorflow10EntryValueD1Ev@Base 2.0.0
 _ZN10tensorflow10EntryValueD2Ev@Base 2.0.0
 _ZN10tensorflow10EnvWrapper11LoadLibraryEPKcPPv@Base 2.0.0
 _ZN10tensorflow10EnvWrapper11StartThreadERKNS_13ThreadOptionsERKNSt7__cxx1112basic_stringIcSt11char_traitsIcESaIcEEESt8functionIFvvEE@Base 2.0.0
 _ZN10tensorflow10EnvWrapper12SchedClosureESt8functionIFvvEE@Base 2.0.0
 _ZN10tensorflow10EnvWrapper14GetRunfilesDirB5cxx11Ev@Base 2.0.0
 _ZN10tensorflow10EnvWrapper17SchedClosureAfterExSt8functionIFvvEE@Base 2.0.0
 _ZN10tensorflow10EnvWrapper18GetCurrentThreadIdEv@Base 2.0.0
 _ZN10tensorflow10EnvWrapper18RegisterFileSystemERKNSt7__cxx1112basic_stringIcSt11char_traitsIcESaIcEEESt8functionIFPNS_10FileSystemEvEE@Base 2.0.0
 _ZN10tensorflow10EnvWrapper20GetCurrentThreadNameEPNSt7__cxx1112basic_stringIcSt11char_traitsIcESaIcEEE@Base 2.0.0
 _ZN10tensorflow10EnvWrapper20GetFileSystemForFileERKNSt7__cxx1112basic_stringIcSt11char_traitsIcESaIcEEEPPNS_10FileSystemE@Base 2.0.0
 _ZN10tensorflow10EnvWrapper20GetSymbolFromLibraryEPvPKcPS1_@Base 2.0.0
 _ZN10tensorflow10EnvWrapper20SleepForMicrosecondsEx@Base 2.0.0
 _ZN10tensorflow10EnvWrapper21FormatLibraryFileNameERKNSt7__cxx1112basic_stringIcSt11char_traitsIcESaIcEEES8_@Base 2.0.0
 _ZN10tensorflow10EnvWrapper23GetLocalTempDirectoriesEPSt6vectorINSt7__cxx1112basic_stringIcSt11char_traitsIcESaIcEEESaIS7_EE@Base 2.0.0
 _ZN10tensorflow10EnvWrapper30GetRegisteredFileSystemSchemesEPSt6vectorINSt7__cxx1112basic_stringIcSt11char_traitsIcESaIcEEESaIS7_EE@Base 2.0.0
 _ZN10tensorflow10EnvWrapper9MatchPathERKNSt7__cxx1112basic_stringIcSt11char_traitsIcESaIcEEES8_@Base 2.0.0
 _ZN10tensorflow10EnvWrapperD0Ev@Base 2.0.0
 _ZN10tensorflow10EnvWrapperD1Ev@Base 2.0.0
 _ZN10tensorflow10EnvWrapperD2Ev@Base 2.0.0
 _ZN10tensorflow10FileSystem10FilesExistERKSt6vectorINSt7__cxx1112basic_stringIcSt11char_traitsIcESaIcEEESaIS7_EEPS1_INS_6StatusESaISC_EE@Base 2.0.0
 _ZN10tensorflow10FileSystem11FlushCachesEv@Base 2.0.0
 _ZN10tensorflow10FileSystem11IsDirectoryERKNSt7__cxx1112basic_stringIcSt11char_traitsIcESaIcEEE@Base 2.0.0
 _ZN10tensorflow10FileSystem17DeleteRecursivelyERKNSt7__cxx1112basic_stringIcSt11char_traitsIcESaIcEEEPxS9_@Base 2.0.0
 _ZN10tensorflow10FileSystem20RecursivelyCreateDirERKNSt7__cxx1112basic_stringIcSt11char_traitsIcESaIcEEE@Base 2.0.0
 _ZN10tensorflow10FileSystem8CopyFileERKNSt7__cxx1112basic_stringIcSt11char_traitsIcESaIcEEES8_@Base 2.0.0
 _ZN10tensorflow10FileSystemD0Ev@Base 2.0.0
 _ZN10tensorflow10FileSystemD1Ev@Base 2.0.0
 _ZN10tensorflow10FileSystemD2Ev@Base 2.0.0
 _ZN10tensorflow10GPUOptions12InternalSwapEPS0_@Base 2.0.0
 _ZN10tensorflow10GPUOptions14_InternalParseEPKcPN6google8protobuf8internal12ParseContextE@Base 2.0.0
 _ZN10tensorflow10GPUOptions16default_instanceEv@Base 2.0.0
 _ZN10tensorflow10GPUOptions21InitAsDefaultInstanceEv@Base 2.0.0
 _ZN10tensorflow10GPUOptions39unsafe_arena_set_allocated_experimentalEPNS_23GPUOptions_ExperimentalE@Base 2.0.0
 _ZN10tensorflow10GPUOptions5ClearEv@Base 2.0.0
 _ZN10tensorflow10GPUOptions8CopyFromERKN6google8protobuf7MessageE@Base 2.0.0
 _ZN10tensorflow10GPUOptions8CopyFromERKS0_@Base 2.0.0
 _ZN10tensorflow10GPUOptions9ArenaDtorEPv@Base 2.0.0
 _ZN10tensorflow10GPUOptions9MergeFromERKN6google8protobuf7MessageE@Base 2.0.0
 _ZN10tensorflow10GPUOptions9MergeFromERKS0_@Base 2.0.0
 _ZN10tensorflow10GPUOptions9_Internal12experimentalEPKS0_@Base 2.0.0
 _ZN10tensorflow10GPUOptionsC1EPN6google8protobuf5ArenaE@Base 2.0.0
 _ZN10tensorflow10GPUOptionsC1ERKS0_@Base 2.0.0
 _ZN10tensorflow10GPUOptionsC1Ev@Base 2.0.0
 _ZN10tensorflow10GPUOptionsC2EPN6google8protobuf5ArenaE@Base 2.0.0
 _ZN10tensorflow10GPUOptionsC2ERKS0_@Base 2.0.0
 _ZN10tensorflow10GPUOptionsC2Ev@Base 2.0.0
 _ZN10tensorflow10GPUOptionsD0Ev@Base 2.0.0
 _ZN10tensorflow10GPUOptionsD1Ev@Base 2.0.0
 _ZN10tensorflow10GPUOptionsD2Ev@Base 2.0.0
 _ZN10tensorflow10GetFeatureINS_7ExampleEEEPNS_7FeatureERKNSt7__cxx1112basic_stringIcSt11char_traitsIcESaIcEEEPT_@Base 2.0.0
 _ZN10tensorflow10HasFeatureIJEEEbRKNSt7__cxx1112basic_stringIcSt11char_traitsIcESaIcEEERKNS_8FeaturesE@Base 2.0.0
 _ZN10tensorflow10HasFeatureIJNSt7__cxx1112basic_stringIcSt11char_traitsIcESaIcEEEEEEbRKS6_RKNS_8FeaturesE@Base 2.0.0
 _ZN10tensorflow10HasFeatureIJfEEEbRKNSt7__cxx1112basic_stringIcSt11char_traitsIcESaIcEEERKNS_8FeaturesE@Base 2.0.0
 _ZN10tensorflow10HasFeatureIJlEEEbRKNSt7__cxx1112basic_stringIcSt11char_traitsIcESaIcEEERKNS_8FeaturesE@Base 2.0.0
 _ZN10tensorflow10KernelList12InternalSwapEPS0_@Base 2.0.0
 _ZN10tensorflow10KernelList14_InternalParseEPKcPN6google8protobuf8internal12ParseContextE@Base 2.0.0
 _ZN10tensorflow10KernelList16default_instanceEv@Base 2.0.0
 _ZN10tensorflow10KernelList21InitAsDefaultInstanceEv@Base 2.0.0
 _ZN10tensorflow10KernelList5ClearEv@Base 2.0.0
 _ZN10tensorflow10KernelList8CopyFromERKN6google8protobuf7MessageE@Base 2.0.0
 _ZN10tensorflow10KernelList8CopyFromERKS0_@Base 2.0.0
 _ZN10tensorflow10KernelList9ArenaDtorEPv@Base 2.0.0
 _ZN10tensorflow10KernelList9MergeFromERKN6google8protobuf7MessageE@Base 2.0.0
 _ZN10tensorflow10KernelList9MergeFromERKS0_@Base 2.0.0
 _ZN10tensorflow10KernelListC1EPN6google8protobuf5ArenaE@Base 2.0.0
 _ZN10tensorflow10KernelListC1ERKS0_@Base 2.0.0
 _ZN10tensorflow10KernelListC1Ev@Base 2.0.0
 _ZN10tensorflow10KernelListC2EPN6google8protobuf5ArenaE@Base 2.0.0
 _ZN10tensorflow10KernelListC2ERKS0_@Base 2.0.0
 _ZN10tensorflow10KernelListC2Ev@Base 2.0.0
 _ZN10tensorflow10KernelListD0Ev@Base 2.0.0
 _ZN10tensorflow10KernelListD1Ev@Base 2.0.0
 _ZN10tensorflow10KernelListD2Ev@Base 2.0.0
 _ZN10tensorflow10LocalLinks12InternalSwapEPS0_@Base 2.0.0
 _ZN10tensorflow10LocalLinks14_InternalParseEPKcPN6google8protobuf8internal12ParseContextE@Base 2.0.0
 _ZN10tensorflow10LocalLinks16default_instanceEv@Base 2.0.0
 _ZN10tensorflow10LocalLinks21InitAsDefaultInstanceEv@Base 2.0.0
 _ZN10tensorflow10LocalLinks5ClearEv@Base 2.0.0
 _ZN10tensorflow10LocalLinks8CopyFromERKN6google8protobuf7MessageE@Base 2.0.0
 _ZN10tensorflow10LocalLinks8CopyFromERKS0_@Base 2.0.0
 _ZN10tensorflow10LocalLinks9ArenaDtorEPv@Base 2.0.0
 _ZN10tensorflow10LocalLinks9MergeFromERKN6google8protobuf7MessageE@Base 2.0.0
 _ZN10tensorflow10LocalLinks9MergeFromERKS0_@Base 2.0.0
 _ZN10tensorflow10LocalLinksC1EPN6google8protobuf5ArenaE@Base 2.0.0
 _ZN10tensorflow10LocalLinksC1ERKS0_@Base 2.0.0
 _ZN10tensorflow10LocalLinksC1Ev@Base 2.0.0
 _ZN10tensorflow10LocalLinksC2EPN6google8protobuf5ArenaE@Base 2.0.0
 _ZN10tensorflow10LocalLinksC2ERKS0_@Base 2.0.0
 _ZN10tensorflow10LocalLinksC2Ev@Base 2.0.0
 _ZN10tensorflow10LocalLinksD0Ev@Base 2.0.0
 _ZN10tensorflow10LocalLinksD1Ev@Base 2.0.0
 _ZN10tensorflow10LocalLinksD2Ev@Base 2.0.0
 _ZN10tensorflow10LogMessage12InternalSwapEPS0_@Base 2.0.0
 _ZN10tensorflow10LogMessage14_InternalParseEPKcPN6google8protobuf8internal12ParseContextE@Base 2.0.0
 _ZN10tensorflow10LogMessage15Level_ARRAYSIZEE@Base 2.0.0
 _ZN10tensorflow10LogMessage16default_instanceEv@Base 2.0.0
 _ZN10tensorflow10LogMessage21InitAsDefaultInstanceEv@Base 2.0.0
 _ZN10tensorflow10LogMessage4INFOE@Base 2.0.0
 _ZN10tensorflow10LogMessage4WARNE@Base 2.0.0
 _ZN10tensorflow10LogMessage5ClearEv@Base 2.0.0
 _ZN10tensorflow10LogMessage5ERRORE@Base 2.0.0
 _ZN10tensorflow10LogMessage5FATALE@Base 2.0.0
 _ZN10tensorflow10LogMessage7UNKNOWNE@Base 2.0.0
 _ZN10tensorflow10LogMessage8CopyFromERKN6google8protobuf7MessageE@Base 2.0.0
 _ZN10tensorflow10LogMessage8CopyFromERKS0_@Base 2.0.0
 _ZN10tensorflow10LogMessage9ArenaDtorEPv@Base 2.0.0
 _ZN10tensorflow10LogMessage9DEBUGGINGE@Base 2.0.0
 _ZN10tensorflow10LogMessage9Level_MAXE@Base 2.0.0
 _ZN10tensorflow10LogMessage9Level_MINE@Base 2.0.0
 _ZN10tensorflow10LogMessage9MergeFromERKN6google8protobuf7MessageE@Base 2.0.0
 _ZN10tensorflow10LogMessage9MergeFromERKS0_@Base 2.0.0
 _ZN10tensorflow10LogMessageC1EPN6google8protobuf5ArenaE@Base 2.0.0
 _ZN10tensorflow10LogMessageC1ERKS0_@Base 2.0.0
 _ZN10tensorflow10LogMessageC1Ev@Base 2.0.0
 _ZN10tensorflow10LogMessageC2EPN6google8protobuf5ArenaE@Base 2.0.0
 _ZN10tensorflow10LogMessageC2ERKS0_@Base 2.0.0
 _ZN10tensorflow10LogMessageC2Ev@Base 2.0.0
 _ZN10tensorflow10LogMessageD0Ev@Base 2.0.0
 _ZN10tensorflow10LogMessageD1Ev@Base 2.0.0
 _ZN10tensorflow10LogMessageD2Ev@Base 2.0.0
 _ZN10tensorflow10MakeUniqueINS_6TensorEJEEENS_6helper16MakeUniqueResultIT_E6scalarEDpOT0_@Base 2.0.0
 _ZN10tensorflow10MakeUniqueINS_8grappler15MemoryOptimizerEJNS_25RewriterConfig_MemOptTypeEEEENS_6helper16MakeUniqueResultIT_E6scalarEDpOT0_@Base 2.0.0
 _ZN10tensorflow10MemoryInfo12InternalSwapEPS0_@Base 2.0.0
 _ZN10tensorflow10MemoryInfo14_InternalParseEPKcPN6google8protobuf8internal12ParseContextE@Base 2.0.0
 _ZN10tensorflow10MemoryInfo16default_instanceEv@Base 2.0.0
 _ZN10tensorflow10MemoryInfo21InitAsDefaultInstanceEv@Base 2.0.0
 _ZN10tensorflow10MemoryInfo5ClearEv@Base 2.0.0
 _ZN10tensorflow10MemoryInfo8CopyFromERKN6google8protobuf7MessageE@Base 2.0.0
 _ZN10tensorflow10MemoryInfo8CopyFromERKS0_@Base 2.0.0
 _ZN10tensorflow10MemoryInfo9ArenaDtorEPv@Base 2.0.0
 _ZN10tensorflow10MemoryInfo9MergeFromERKN6google8protobuf7MessageE@Base 2.0.0
 _ZN10tensorflow10MemoryInfo9MergeFromERKS0_@Base 2.0.0
 _ZN10tensorflow10MemoryInfoC1EPN6google8protobuf5ArenaE@Base 2.0.0
 _ZN10tensorflow10MemoryInfoC1ERKS0_@Base 2.0.0
 _ZN10tensorflow10MemoryInfoC1Ev@Base 2.0.0
 _ZN10tensorflow10MemoryInfoC2EPN6google8protobuf5ArenaE@Base 2.0.0
 _ZN10tensorflow10MemoryInfoC2ERKS0_@Base 2.0.0
 _ZN10tensorflow10MemoryInfoC2Ev@Base 2.0.0
 _ZN10tensorflow10MemoryInfoD0Ev@Base 2.0.0
 _ZN10tensorflow10MemoryInfoD1Ev@Base 2.0.0
 _ZN10tensorflow10MemoryInfoD2Ev@Base 2.0.0
 _ZN10tensorflow10NewSessionERKNS_14SessionOptionsE@Base 2.0.0
 _ZN10tensorflow10NewSessionERKNS_14SessionOptionsEPPNS_7SessionE@Base 2.0.0
 _ZN10tensorflow10NodeOutput12InternalSwapEPS0_@Base 2.0.0
 _ZN10tensorflow10NodeOutput14_InternalParseEPKcPN6google8protobuf8internal12ParseContextE@Base 2.0.0
 _ZN10tensorflow10NodeOutput16default_instanceEv@Base 2.0.0
 _ZN10tensorflow10NodeOutput21InitAsDefaultInstanceEv@Base 2.0.0
 _ZN10tensorflow10NodeOutput24clear_tensor_descriptionEv@Base 2.0.0
 _ZN10tensorflow10NodeOutput45unsafe_arena_set_allocated_tensor_descriptionEPNS_17TensorDescriptionE@Base 2.0.0
 _ZN10tensorflow10NodeOutput5ClearEv@Base 2.0.0
 _ZN10tensorflow10NodeOutput8CopyFromERKN6google8protobuf7MessageE@Base 2.0.0
 _ZN10tensorflow10NodeOutput8CopyFromERKS0_@Base 2.0.0
 _ZN10tensorflow10NodeOutput9ArenaDtorEPv@Base 2.0.0
 _ZN10tensorflow10NodeOutput9MergeFromERKN6google8protobuf7MessageE@Base 2.0.0
 _ZN10tensorflow10NodeOutput9MergeFromERKS0_@Base 2.0.0
 _ZN10tensorflow10NodeOutput9_Internal18tensor_descriptionEPKS0_@Base 2.0.0
 _ZN10tensorflow10NodeOutputC1EPN6google8protobuf5ArenaE@Base 2.0.0
 _ZN10tensorflow10NodeOutputC1ERKS0_@Base 2.0.0
 _ZN10tensorflow10NodeOutputC1Ev@Base 2.0.0
 _ZN10tensorflow10NodeOutputC2EPN6google8protobuf5ArenaE@Base 2.0.0
 _ZN10tensorflow10NodeOutputC2ERKS0_@Base 2.0.0
 _ZN10tensorflow10NodeOutputC2Ev@Base 2.0.0
 _ZN10tensorflow10NodeOutputD0Ev@Base 2.0.0
 _ZN10tensorflow10NodeOutputD1Ev@Base 2.0.0
 _ZN10tensorflow10NodeOutputD2Ev@Base 2.0.0
 _ZN10tensorflow10OpDefEqualERKNS_5OpDefES2_@Base 2.0.0
 _ZN10tensorflow10OpRegistry10SetWatcherERKSt8functionIFNS_6StatusERKS2_RKNS_5OpDefEEE@Base 2.0.0
 _ZN10tensorflow10OpRegistry16GetRegisteredOpsEPSt6vectorINS_5OpDefESaIS2_EE@Base 2.0.0
 _ZN10tensorflow10OpRegistry18DeferRegistrationsEv@Base 2.0.0
 _ZN10tensorflow10OpRegistry21GetOpRegistrationDataEPSt6vectorINS_18OpRegistrationDataESaIS2_EE@Base 2.0.0
 _ZN10tensorflow10OpRegistry26ClearDeferredRegistrationsEv@Base 2.0.0
 _ZN10tensorflow10OpRegistry6GlobalEv@Base 2.0.0
 _ZN10tensorflow10OpRegistry8RegisterERKSt8functionIFNS_6StatusEPNS_18OpRegistrationDataEEE@Base 2.0.0
 _ZN10tensorflow10OpRegistryC1Ev@Base 2.0.0
 _ZN10tensorflow10OpRegistryC2Ev@Base 2.0.0
 _ZN10tensorflow10OpRegistryD0Ev@Base 2.0.0
 _ZN10tensorflow10OpRegistryD1Ev@Base 2.0.0
 _ZN10tensorflow10OpRegistryD2Ev@Base 2.0.0
 _ZN10tensorflow10RPCOptions12InternalSwapEPS0_@Base 2.0.0
 _ZN10tensorflow10RPCOptions14_InternalParseEPKcPN6google8protobuf8internal12ParseContextE@Base 2.0.0
 _ZN10tensorflow10RPCOptions16default_instanceEv@Base 2.0.0
 _ZN10tensorflow10RPCOptions21InitAsDefaultInstanceEv@Base 2.0.0
 _ZN10tensorflow10RPCOptions5ClearEv@Base 2.0.0
 _ZN10tensorflow10RPCOptions8CopyFromERKN6google8protobuf7MessageE@Base 2.0.0
 _ZN10tensorflow10RPCOptions8CopyFromERKS0_@Base 2.0.0
 _ZN10tensorflow10RPCOptions9ArenaDtorEPv@Base 2.0.0
 _ZN10tensorflow10RPCOptions9MergeFromERKN6google8protobuf7MessageE@Base 2.0.0
 _ZN10tensorflow10RPCOptions9MergeFromERKS0_@Base 2.0.0
 _ZN10tensorflow10RPCOptionsC1EPN6google8protobuf5ArenaE@Base 2.0.0
 _ZN10tensorflow10RPCOptionsC1ERKS0_@Base 2.0.0
 _ZN10tensorflow10RPCOptionsC1Ev@Base 2.0.0
 _ZN10tensorflow10RPCOptionsC2EPN6google8protobuf5ArenaE@Base 2.0.0
 _ZN10tensorflow10RPCOptionsC2ERKS0_@Base 2.0.0
 _ZN10tensorflow10RPCOptionsC2Ev@Base 2.0.0
 _ZN10tensorflow10RPCOptionsD0Ev@Base 2.0.0
 _ZN10tensorflow10RPCOptionsD1Ev@Base 2.0.0
 _ZN10tensorflow10RPCOptionsD2Ev@Base 2.0.0
 _ZN10tensorflow10Rendezvous4RecvERKNS0_9ParsedKeyERKNS0_4ArgsEPNS_6TensorEPb@Base 2.0.0
 _ZN10tensorflow10Rendezvous4RecvERKNS0_9ParsedKeyERKNS0_4ArgsEPNS_6TensorEPbx@Base 2.0.0
 _ZN10tensorflow10Rendezvous8ParseKeyEN4absl11string_viewEPNS0_9ParsedKeyE@Base 2.0.0
 _ZN10tensorflow10Rendezvous9CreateKeyERKNSt7__cxx1112basic_stringIcSt11char_traitsIcESaIcEEEyS8_S8_RKNS_12FrameAndIterE@Base 2.0.0
 _ZN10tensorflow10Rendezvous9ParsedKeyD1Ev@Base 2.0.0
 _ZN10tensorflow10Rendezvous9ParsedKeyD2Ev@Base 2.0.0
 _ZN10tensorflow10Rendezvous9ParsedKeyaSERKS1_@Base 2.0.0
 _ZN10tensorflow10RendezvousD0Ev@Base 2.0.0
 _ZN10tensorflow10RendezvousD1Ev@Base 2.0.0
 _ZN10tensorflow10RendezvousD2Ev@Base 2.0.0
 _ZN10tensorflow10ReverseDFSERKNS_5GraphERKSt8functionIFvPNS_4NodeEEES9_RKS3_IFbPKS4_SB_EE@Base 2.0.0
 _ZN10tensorflow10RunHandler22ScheduleInterOpClosureESt8functionIFvvEE@Base 2.0.0
 _ZN10tensorflow10RunHandler26AsIntraThreadPoolInterfaceEv@Base 2.0.0
 _ZN10tensorflow10RunHandler4Impl22ScheduleInterOpClosureESt8functionIFvvEE@Base 2.0.0
 _ZN10tensorflow10RunHandler4Impl22ScheduleIntraOpClosureESt8functionIFvvEE@Base 2.0.0
 _ZN10tensorflow10RunHandler4Impl26ThreadPoolInterfaceWrapper8ScheduleESt8functionIFvvEE@Base 2.0.0
 _ZN10tensorflow10RunHandler4Impl26ThreadPoolInterfaceWrapperD0Ev@Base 2.0.0
 _ZN10tensorflow10RunHandler4Impl26ThreadPoolInterfaceWrapperD1Ev@Base 2.0.0
 _ZN10tensorflow10RunHandler4Impl26ThreadPoolInterfaceWrapperD2Ev@Base 2.0.0
 _ZN10tensorflow10RunHandler4Impl5ResetEx@Base 2.0.0
 _ZN10tensorflow10RunHandler4ImplC1EPNS_14RunHandlerPool4ImplE@Base 2.0.0
 _ZN10tensorflow10RunHandler4ImplC2EPNS_14RunHandlerPool4ImplE@Base 2.0.0
 _ZN10tensorflow10RunHandlerC1EPNS0_4ImplE@Base 2.0.0
 _ZN10tensorflow10RunHandlerC2EPNS0_4ImplE@Base 2.0.0
 _ZN10tensorflow10RunHandlerD1Ev@Base 2.0.0
 _ZN10tensorflow10RunHandlerD2Ev@Base 2.0.0
 _ZN10tensorflow10RunOptions10FULL_TRACEE@Base 2.0.0
 _ZN10tensorflow10RunOptions12InternalSwapEPS0_@Base 2.0.0
 _ZN10tensorflow10RunOptions14HARDWARE_TRACEE@Base 2.0.0
 _ZN10tensorflow10RunOptions14SOFTWARE_TRACEE@Base 2.0.0
 _ZN10tensorflow10RunOptions14TraceLevel_MAXE@Base 2.0.0
 _ZN10tensorflow10RunOptions14TraceLevel_MINE@Base 2.0.0
 _ZN10tensorflow10RunOptions14_InternalParseEPKcPN6google8protobuf8internal12ParseContextE@Base 2.0.0
 _ZN10tensorflow10RunOptions16default_instanceEv@Base 2.0.0
 _ZN10tensorflow10RunOptions19clear_debug_optionsEv@Base 2.0.0
 _ZN10tensorflow10RunOptions20TraceLevel_ARRAYSIZEE@Base 2.0.0
 _ZN10tensorflow10RunOptions21InitAsDefaultInstanceEv@Base 2.0.0
 _ZN10tensorflow10RunOptions39unsafe_arena_set_allocated_experimentalEPNS_23RunOptions_ExperimentalE@Base 2.0.0
 _ZN10tensorflow10RunOptions40unsafe_arena_set_allocated_debug_optionsEPNS_12DebugOptionsE@Base 2.0.0
 _ZN10tensorflow10RunOptions5ClearEv@Base 2.0.0
 _ZN10tensorflow10RunOptions8CopyFromERKN6google8protobuf7MessageE@Base 2.0.0
 _ZN10tensorflow10RunOptions8CopyFromERKS0_@Base 2.0.0
 _ZN10tensorflow10RunOptions8NO_TRACEE@Base 2.0.0
 _ZN10tensorflow10RunOptions9ArenaDtorEPv@Base 2.0.0
 _ZN10tensorflow10RunOptions9MergeFromERKN6google8protobuf7MessageE@Base 2.0.0
 _ZN10tensorflow10RunOptions9MergeFromERKS0_@Base 2.0.0
 _ZN10tensorflow10RunOptions9_Internal12experimentalEPKS0_@Base 2.0.0
 _ZN10tensorflow10RunOptions9_Internal13debug_optionsEPKS0_@Base 2.0.0
 _ZN10tensorflow10RunOptionsC1EPN6google8protobuf5ArenaE@Base 2.0.0
 _ZN10tensorflow10RunOptionsC1ERKS0_@Base 2.0.0
 _ZN10tensorflow10RunOptionsC1Ev@Base 2.0.0
 _ZN10tensorflow10RunOptionsC2EPN6google8protobuf5ArenaE@Base 2.0.0
 _ZN10tensorflow10RunOptionsC2ERKS0_@Base 2.0.0
 _ZN10tensorflow10RunOptionsC2Ev@Base 2.0.0
 _ZN10tensorflow10RunOptionsD0Ev@Base 2.0.0
 _ZN10tensorflow10RunOptionsD1Ev@Base 2.0.0
 _ZN10tensorflow10RunOptionsD2Ev@Base 2.0.0
 _ZN10tensorflow10SavedAsset12InternalSwapEPS0_@Base 2.0.0
 _ZN10tensorflow10SavedAsset14_InternalParseEPKcPN6google8protobuf8internal12ParseContextE@Base 2.0.0
 _ZN10tensorflow10SavedAsset16default_instanceEv@Base 2.0.0
 _ZN10tensorflow10SavedAsset21InitAsDefaultInstanceEv@Base 2.0.0
 _ZN10tensorflow10SavedAsset5ClearEv@Base 2.0.0
 _ZN10tensorflow10SavedAsset8CopyFromERKN6google8protobuf7MessageE@Base 2.0.0
 _ZN10tensorflow10SavedAsset8CopyFromERKS0_@Base 2.0.0
 _ZN10tensorflow10SavedAsset9ArenaDtorEPv@Base 2.0.0
 _ZN10tensorflow10SavedAsset9MergeFromERKN6google8protobuf7MessageE@Base 2.0.0
 _ZN10tensorflow10SavedAsset9MergeFromERKS0_@Base 2.0.0
 _ZN10tensorflow10SavedAssetC1EPN6google8protobuf5ArenaE@Base 2.0.0
 _ZN10tensorflow10SavedAssetC1ERKS0_@Base 2.0.0
 _ZN10tensorflow10SavedAssetC1Ev@Base 2.0.0
 _ZN10tensorflow10SavedAssetC2EPN6google8protobuf5ArenaE@Base 2.0.0
 _ZN10tensorflow10SavedAssetC2ERKS0_@Base 2.0.0
 _ZN10tensorflow10SavedAssetC2Ev@Base 2.0.0
 _ZN10tensorflow10SavedAssetD0Ev@Base 2.0.0
 _ZN10tensorflow10SavedAssetD1Ev@Base 2.0.0
 _ZN10tensorflow10SavedAssetD2Ev@Base 2.0.0
 _ZN10tensorflow10SavedModel12InternalSwapEPS0_@Base 2.0.0
 _ZN10tensorflow10SavedModel14_InternalParseEPKcPN6google8protobuf8internal12ParseContextE@Base 2.0.0
 _ZN10tensorflow10SavedModel16default_instanceEv@Base 2.0.0
 _ZN10tensorflow10SavedModel17clear_meta_graphsEv@Base 2.0.0
 _ZN10tensorflow10SavedModel21InitAsDefaultInstanceEv@Base 2.0.0
 _ZN10tensorflow10SavedModel5ClearEv@Base 2.0.0
 _ZN10tensorflow10SavedModel8CopyFromERKN6google8protobuf7MessageE@Base 2.0.0
 _ZN10tensorflow10SavedModel8CopyFromERKS0_@Base 2.0.0
 _ZN10tensorflow10SavedModel9ArenaDtorEPv@Base 2.0.0
 _ZN10tensorflow10SavedModel9MergeFromERKN6google8protobuf7MessageE@Base 2.0.0
 _ZN10tensorflow10SavedModel9MergeFromERKS0_@Base 2.0.0
 _ZN10tensorflow10SavedModelC1EPN6google8protobuf5ArenaE@Base 2.0.0
 _ZN10tensorflow10SavedModelC1ERKS0_@Base 2.0.0
 _ZN10tensorflow10SavedModelC1Ev@Base 2.0.0
 _ZN10tensorflow10SavedModelC2EPN6google8protobuf5ArenaE@Base 2.0.0
 _ZN10tensorflow10SavedModelC2ERKS0_@Base 2.0.0
 _ZN10tensorflow10SavedModelC2Ev@Base 2.0.0
 _ZN10tensorflow10SavedModelD0Ev@Base 2.0.0
 _ZN10tensorflow10SavedModelD1Ev@Base 2.0.0
 _ZN10tensorflow10SavedModelD2Ev@Base 2.0.0
 _ZN10tensorflow10SavedSlice10clear_dataEv@Base 2.0.0
 _ZN10tensorflow10SavedSlice11clear_sliceEv@Base 2.0.0
 _ZN10tensorflow10SavedSlice12InternalSwapEPS0_@Base 2.0.0
 _ZN10tensorflow10SavedSlice14_InternalParseEPKcPN6google8protobuf8internal12ParseContextE@Base 2.0.0
 _ZN10tensorflow10SavedSlice16default_instanceEv@Base 2.0.0
 _ZN10tensorflow10SavedSlice21InitAsDefaultInstanceEv@Base 2.0.0
 _ZN10tensorflow10SavedSlice31unsafe_arena_set_allocated_dataEPNS_11TensorProtoE@Base 2.0.0
 _ZN10tensorflow10SavedSlice32unsafe_arena_set_allocated_sliceEPNS_16TensorSliceProtoE@Base 2.0.0
 _ZN10tensorflow10SavedSlice5ClearEv@Base 2.0.0
 _ZN10tensorflow10SavedSlice8CopyFromERKN6google8protobuf7MessageE@Base 2.0.0
 _ZN10tensorflow10SavedSlice8CopyFromERKS0_@Base 2.0.0
 _ZN10tensorflow10SavedSlice9ArenaDtorEPv@Base 2.0.0
 _ZN10tensorflow10SavedSlice9MergeFromERKN6google8protobuf7MessageE@Base 2.0.0
 _ZN10tensorflow10SavedSlice9MergeFromERKS0_@Base 2.0.0
 _ZN10tensorflow10SavedSlice9_Internal4dataEPKS0_@Base 2.0.0
 _ZN10tensorflow10SavedSlice9_Internal5sliceEPKS0_@Base 2.0.0
 _ZN10tensorflow10SavedSliceC1EPN6google8protobuf5ArenaE@Base 2.0.0
 _ZN10tensorflow10SavedSliceC1ERKS0_@Base 2.0.0
 _ZN10tensorflow10SavedSliceC1Ev@Base 2.0.0
 _ZN10tensorflow10SavedSliceC2EPN6google8protobuf5ArenaE@Base 2.0.0
 _ZN10tensorflow10SavedSliceC2ERKS0_@Base 2.0.0
 _ZN10tensorflow10SavedSliceC2Ev@Base 2.0.0
 _ZN10tensorflow10SavedSliceD0Ev@Base 2.0.0
 _ZN10tensorflow10SavedSliceD1Ev@Base 2.0.0
 _ZN10tensorflow10SavedSliceD2Ev@Base 2.0.0
 _ZN10tensorflow10SessionLog10CHECKPOINTE@Base 2.0.0
 _ZN10tensorflow10SessionLog12InternalSwapEPS0_@Base 2.0.0
 _ZN10tensorflow10SessionLog14_InternalParseEPKcPN6google8protobuf8internal12ParseContextE@Base 2.0.0
 _ZN10tensorflow10SessionLog16default_instanceEv@Base 2.0.0
 _ZN10tensorflow10SessionLog17SessionStatus_MAXE@Base 2.0.0
 _ZN10tensorflow10SessionLog17SessionStatus_MINE@Base 2.0.0
 _ZN10tensorflow10SessionLog18STATUS_UNSPECIFIEDE@Base 2.0.0
 _ZN10tensorflow10SessionLog21InitAsDefaultInstanceEv@Base 2.0.0
 _ZN10tensorflow10SessionLog23SessionStatus_ARRAYSIZEE@Base 2.0.0
 _ZN10tensorflow10SessionLog4STOPE@Base 2.0.0
 _ZN10tensorflow10SessionLog5ClearEv@Base 2.0.0
 _ZN10tensorflow10SessionLog5STARTE@Base 2.0.0
 _ZN10tensorflow10SessionLog8CopyFromERKN6google8protobuf7MessageE@Base 2.0.0
 _ZN10tensorflow10SessionLog8CopyFromERKS0_@Base 2.0.0
 _ZN10tensorflow10SessionLog9ArenaDtorEPv@Base 2.0.0
 _ZN10tensorflow10SessionLog9MergeFromERKN6google8protobuf7MessageE@Base 2.0.0
 _ZN10tensorflow10SessionLog9MergeFromERKS0_@Base 2.0.0
 _ZN10tensorflow10SessionLogC1EPN6google8protobuf5ArenaE@Base 2.0.0
 _ZN10tensorflow10SessionLogC1ERKS0_@Base 2.0.0
 _ZN10tensorflow10SessionLogC1Ev@Base 2.0.0
 _ZN10tensorflow10SessionLogC2EPN6google8protobuf5ArenaE@Base 2.0.0
 _ZN10tensorflow10SessionLogC2ERKS0_@Base 2.0.0
 _ZN10tensorflow10SessionLogC2Ev@Base 2.0.0
 _ZN10tensorflow10SessionLogD0Ev@Base 2.0.0
 _ZN10tensorflow10SessionLogD1Ev@Base 2.0.0
 _ZN10tensorflow10SessionLogD2Ev@Base 2.0.0
 _ZN10tensorflow10SubProcess10ClosePipesEv@Base 2.0.0
 _ZN10tensorflow10SubProcess10SetProgramERKNSt7__cxx1112basic_stringIcSt11char_traitsIcESaIcEEERKSt6vectorIS6_SaIS6_EE@Base 2.0.0
 _ZN10tensorflow10SubProcess11CommunicateEPKNSt7__cxx1112basic_stringIcSt11char_traitsIcESaIcEEEPS6_S9_@Base 2.0.0
 _ZN10tensorflow10SubProcess12WaitInternalEPi@Base 2.0.0
 _ZN10tensorflow10SubProcess16SetChannelActionENS_7ChannelENS_13ChannelActionE@Base 2.0.0
 _ZN10tensorflow10SubProcess4KillEi@Base 2.0.0
 _ZN10tensorflow10SubProcess4WaitEv@Base 2.0.0
 _ZN10tensorflow10SubProcess5StartEv@Base 2.0.0
 _ZN10tensorflow10SubProcess8FreeArgsEv@Base 2.0.0
 _ZN10tensorflow10SubProcessC1Ei@Base 2.0.0
 _ZN10tensorflow10SubProcessC2Ei@Base 2.0.0
 _ZN10tensorflow10SubProcessD0Ev@Base 2.0.0
 _ZN10tensorflow10SubProcessD1Ev@Base 2.0.0
 _ZN10tensorflow10SubProcessD2Ev@Base 2.0.0
 _ZN10tensorflow10TensorInfo12InternalSwapEPS0_@Base 2.0.0
 _ZN10tensorflow10TensorInfo14_InternalParseEPKcPN6google8protobuf8internal12ParseContextE@Base 2.0.0
 _ZN10tensorflow10TensorInfo14clear_encodingEv@Base 2.0.0
 _ZN10tensorflow10TensorInfo16default_instanceEv@Base 2.0.0
 _ZN10tensorflow10TensorInfo18clear_tensor_shapeEv@Base 2.0.0
 _ZN10tensorflow10TensorInfo21InitAsDefaultInstanceEv@Base 2.0.0
 _ZN10tensorflow10TensorInfo24set_allocated_coo_sparseEPNS_20TensorInfo_CooSparseE@Base 2.0.0
 _ZN10tensorflow10TensorInfo39unsafe_arena_set_allocated_tensor_shapeEPNS_16TensorShapeProtoE@Base 2.0.0
 _ZN10tensorflow10TensorInfo4SwapEPS0_@Base 2.0.0
 _ZN10tensorflow10TensorInfo5ClearEv@Base 2.0.0
 _ZN10tensorflow10TensorInfo8CopyFromERKN6google8protobuf7MessageE@Base 2.0.0
 _ZN10tensorflow10TensorInfo8CopyFromERKS0_@Base 2.0.0
 _ZN10tensorflow10TensorInfo9ArenaDtorEPv@Base 2.0.0
 _ZN10tensorflow10TensorInfo9MergeFromERKN6google8protobuf7MessageE@Base 2.0.0
 _ZN10tensorflow10TensorInfo9MergeFromERKS0_@Base 2.0.0
 _ZN10tensorflow10TensorInfo9_Internal10coo_sparseEPKS0_@Base 2.0.0
 _ZN10tensorflow10TensorInfo9_Internal12tensor_shapeEPKS0_@Base 2.0.0
 _ZN10tensorflow10TensorInfoC1EPN6google8protobuf5ArenaE@Base 2.0.0
 _ZN10tensorflow10TensorInfoC1ERKS0_@Base 2.0.0
 _ZN10tensorflow10TensorInfoC1Ev@Base 2.0.0
 _ZN10tensorflow10TensorInfoC2EPN6google8protobuf5ArenaE@Base 2.0.0
 _ZN10tensorflow10TensorInfoC2ERKS0_@Base 2.0.0
 _ZN10tensorflow10TensorInfoC2Ev@Base 2.0.0
 _ZN10tensorflow10TensorInfoD0Ev@Base 2.0.0
 _ZN10tensorflow10TensorInfoD1Ev@Base 2.0.0
 _ZN10tensorflow10TensorInfoD2Ev@Base 2.0.0
 _ZN10tensorflow10ToGraphDefEPKNS_5GraphEPNS_8GraphDefEb@Base 2.0.0
 _ZN10tensorflow10TupleValue12InternalSwapEPS0_@Base 2.0.0
 _ZN10tensorflow10TupleValue14_InternalParseEPKcPN6google8protobuf8internal12ParseContextE@Base 2.0.0
 _ZN10tensorflow10TupleValue16default_instanceEv@Base 2.0.0
 _ZN10tensorflow10TupleValue21InitAsDefaultInstanceEv@Base 2.0.0
 _ZN10tensorflow10TupleValue5ClearEv@Base 2.0.0
 _ZN10tensorflow10TupleValue8CopyFromERKN6google8protobuf7MessageE@Base 2.0.0
 _ZN10tensorflow10TupleValue8CopyFromERKS0_@Base 2.0.0
 _ZN10tensorflow10TupleValue9MergeFromERKN6google8protobuf7MessageE@Base 2.0.0
 _ZN10tensorflow10TupleValue9MergeFromERKS0_@Base 2.0.0
 _ZN10tensorflow10TupleValueC1ERKS0_@Base 2.0.0
 _ZN10tensorflow10TupleValueC1Ev@Base 2.0.0
 _ZN10tensorflow10TupleValueC2ERKS0_@Base 2.0.0
 _ZN10tensorflow10TupleValueC2Ev@Base 2.0.0
 _ZN10tensorflow10TupleValueD0Ev@Base 2.0.0
 _ZN10tensorflow10TupleValueD1Ev@Base 2.0.0
 _ZN10tensorflow10TupleValueD2Ev@Base 2.0.0
 _ZN10tensorflow10VersionDef12InternalSwapEPS0_@Base 2.0.0
 _ZN10tensorflow10VersionDef14_InternalParseEPKcPN6google8protobuf8internal12ParseContextE@Base 2.0.0
 _ZN10tensorflow10VersionDef16default_instanceEv@Base 2.0.0
 _ZN10tensorflow10VersionDef21InitAsDefaultInstanceEv@Base 2.0.0
 _ZN10tensorflow10VersionDef5ClearEv@Base 2.0.0
 _ZN10tensorflow10VersionDef8CopyFromERKN6google8protobuf7MessageE@Base 2.0.0
 _ZN10tensorflow10VersionDef8CopyFromERKS0_@Base 2.0.0
 _ZN10tensorflow10VersionDef9ArenaDtorEPv@Base 2.0.0
 _ZN10tensorflow10VersionDef9MergeFromERKN6google8protobuf7MessageE@Base 2.0.0
 _ZN10tensorflow10VersionDef9MergeFromERKS0_@Base 2.0.0
 _ZN10tensorflow10VersionDefC1EPN6google8protobuf5ArenaE@Base 2.0.0
 _ZN10tensorflow10VersionDefC1ERKS0_@Base 2.0.0
 _ZN10tensorflow10VersionDefC1Ev@Base 2.0.0
 _ZN10tensorflow10VersionDefC2EPN6google8protobuf5ArenaE@Base 2.0.0
 _ZN10tensorflow10VersionDefC2ERKS0_@Base 2.0.0
 _ZN10tensorflow10VersionDefC2Ev@Base 2.0.0
 _ZN10tensorflow10VersionDefD0Ev@Base 2.0.0
 _ZN10tensorflow10VersionDefD1Ev@Base 2.0.0
 _ZN10tensorflow10VersionDefD2Ev@Base 2.0.0
 _ZN10tensorflow10batch_util14SetElementZeroEPNS_6TensorERKS1_@Base 2.0.0
 _ZN10tensorflow10batch_util18CopyElementToSliceENS_6TensorEPS1_x@Base 2.0.0
 _ZN10tensorflow10batch_util18CopySliceToElementERKNS_6TensorEPS1_x@Base 2.0.0
 _ZN10tensorflow10batch_util23MaybeMoveSliceToElementEPNS_6TensorES2_x@Base 2.0.0
 _ZN10tensorflow10batch_util24CopyElementToLargerSliceERKNS_6TensorEPS1_i@Base 2.0.0
 _ZN10tensorflow10batch_util26HandleElementToLargerSliceIN5Eigen4halfELi0EEENS_6StatusERKNS_6TensorEPS5_i@Base 2.0.0
 _ZN10tensorflow10batch_util26HandleElementToLargerSliceIN5Eigen4halfELi1EEENS_6StatusERKNS_6TensorEPS5_i@Base 2.0.0
 _ZN10tensorflow10batch_util26HandleElementToLargerSliceIN5Eigen4halfELi2EEENS_6StatusERKNS_6TensorEPS5_i@Base 2.0.0
 _ZN10tensorflow10batch_util26HandleElementToLargerSliceIN5Eigen4halfELi3EEENS_6StatusERKNS_6TensorEPS5_i@Base 2.0.0
 _ZN10tensorflow10batch_util26HandleElementToLargerSliceIN5Eigen4halfELi4EEENS_6StatusERKNS_6TensorEPS5_i@Base 2.0.0
 _ZN10tensorflow10batch_util26HandleElementToLargerSliceIN5Eigen4halfELi5EEENS_6StatusERKNS_6TensorEPS5_i@Base 2.0.0
 _ZN10tensorflow10batch_util26HandleElementToLargerSliceIN5Eigen5QInt8ELi0EEENS_6StatusERKNS_6TensorEPS5_i@Base 2.0.0
 _ZN10tensorflow10batch_util26HandleElementToLargerSliceIN5Eigen5QInt8ELi1EEENS_6StatusERKNS_6TensorEPS5_i@Base 2.0.0
 _ZN10tensorflow10batch_util26HandleElementToLargerSliceIN5Eigen5QInt8ELi2EEENS_6StatusERKNS_6TensorEPS5_i@Base 2.0.0
 _ZN10tensorflow10batch_util26HandleElementToLargerSliceIN5Eigen5QInt8ELi3EEENS_6StatusERKNS_6TensorEPS5_i@Base 2.0.0
 _ZN10tensorflow10batch_util26HandleElementToLargerSliceIN5Eigen5QInt8ELi4EEENS_6StatusERKNS_6TensorEPS5_i@Base 2.0.0
 _ZN10tensorflow10batch_util26HandleElementToLargerSliceIN5Eigen5QInt8ELi5EEENS_6StatusERKNS_6TensorEPS5_i@Base 2.0.0
 _ZN10tensorflow10batch_util26HandleElementToLargerSliceIN5Eigen6QInt32ELi0EEENS_6StatusERKNS_6TensorEPS5_i@Base 2.0.0
 _ZN10tensorflow10batch_util26HandleElementToLargerSliceIN5Eigen6QInt32ELi1EEENS_6StatusERKNS_6TensorEPS5_i@Base 2.0.0
 _ZN10tensorflow10batch_util26HandleElementToLargerSliceIN5Eigen6QInt32ELi2EEENS_6StatusERKNS_6TensorEPS5_i@Base 2.0.0
 _ZN10tensorflow10batch_util26HandleElementToLargerSliceIN5Eigen6QInt32ELi3EEENS_6StatusERKNS_6TensorEPS5_i@Base 2.0.0
 _ZN10tensorflow10batch_util26HandleElementToLargerSliceIN5Eigen6QInt32ELi4EEENS_6StatusERKNS_6TensorEPS5_i@Base 2.0.0
 _ZN10tensorflow10batch_util26HandleElementToLargerSliceIN5Eigen6QInt32ELi5EEENS_6StatusERKNS_6TensorEPS5_i@Base 2.0.0
 _ZN10tensorflow10batch_util26HandleElementToLargerSliceIN5Eigen6QUInt8ELi0EEENS_6StatusERKNS_6TensorEPS5_i@Base 2.0.0
 _ZN10tensorflow10batch_util26HandleElementToLargerSliceIN5Eigen6QUInt8ELi1EEENS_6StatusERKNS_6TensorEPS5_i@Base 2.0.0
 _ZN10tensorflow10batch_util26HandleElementToLargerSliceIN5Eigen6QUInt8ELi2EEENS_6StatusERKNS_6TensorEPS5_i@Base 2.0.0
 _ZN10tensorflow10batch_util26HandleElementToLargerSliceIN5Eigen6QUInt8ELi3EEENS_6StatusERKNS_6TensorEPS5_i@Base 2.0.0
 _ZN10tensorflow10batch_util26HandleElementToLargerSliceIN5Eigen6QUInt8ELi4EEENS_6StatusERKNS_6TensorEPS5_i@Base 2.0.0
 _ZN10tensorflow10batch_util26HandleElementToLargerSliceIN5Eigen6QUInt8ELi5EEENS_6StatusERKNS_6TensorEPS5_i@Base 2.0.0
 _ZN10tensorflow10batch_util26HandleElementToLargerSliceINS_14ResourceHandleELi0EEENS_6StatusERKNS_6TensorEPS4_i@Base 2.0.0
 _ZN10tensorflow10batch_util26HandleElementToLargerSliceINS_14ResourceHandleELi1EEENS_6StatusERKNS_6TensorEPS4_i@Base 2.0.0
 _ZN10tensorflow10batch_util26HandleElementToLargerSliceINS_14ResourceHandleELi2EEENS_6StatusERKNS_6TensorEPS4_i@Base 2.0.0
 _ZN10tensorflow10batch_util26HandleElementToLargerSliceINS_14ResourceHandleELi3EEENS_6StatusERKNS_6TensorEPS4_i@Base 2.0.0
 _ZN10tensorflow10batch_util26HandleElementToLargerSliceINS_14ResourceHandleELi4EEENS_6StatusERKNS_6TensorEPS4_i@Base 2.0.0
 _ZN10tensorflow10batch_util26HandleElementToLargerSliceINS_14ResourceHandleELi5EEENS_6StatusERKNS_6TensorEPS4_i@Base 2.0.0
 _ZN10tensorflow10batch_util26HandleElementToLargerSliceINS_7VariantELi0EEENS_6StatusERKNS_6TensorEPS4_i@Base 2.0.0
 _ZN10tensorflow10batch_util26HandleElementToLargerSliceINS_7VariantELi1EEENS_6StatusERKNS_6TensorEPS4_i@Base 2.0.0
 _ZN10tensorflow10batch_util26HandleElementToLargerSliceINS_7VariantELi2EEENS_6StatusERKNS_6TensorEPS4_i@Base 2.0.0
 _ZN10tensorflow10batch_util26HandleElementToLargerSliceINS_7VariantELi3EEENS_6StatusERKNS_6TensorEPS4_i@Base 2.0.0
 _ZN10tensorflow10batch_util26HandleElementToLargerSliceINS_7VariantELi4EEENS_6StatusERKNS_6TensorEPS4_i@Base 2.0.0
 _ZN10tensorflow10batch_util26HandleElementToLargerSliceINS_7VariantELi5EEENS_6StatusERKNS_6TensorEPS4_i@Base 2.0.0
 _ZN10tensorflow10batch_util26HandleElementToLargerSliceINS_8bfloat16ELi0EEENS_6StatusERKNS_6TensorEPS4_i@Base 2.0.0
 _ZN10tensorflow10batch_util26HandleElementToLargerSliceINS_8bfloat16ELi1EEENS_6StatusERKNS_6TensorEPS4_i@Base 2.0.0
 _ZN10tensorflow10batch_util26HandleElementToLargerSliceINS_8bfloat16ELi2EEENS_6StatusERKNS_6TensorEPS4_i@Base 2.0.0
 _ZN10tensorflow10batch_util26HandleElementToLargerSliceINS_8bfloat16ELi3EEENS_6StatusERKNS_6TensorEPS4_i@Base 2.0.0
 _ZN10tensorflow10batch_util26HandleElementToLargerSliceINS_8bfloat16ELi4EEENS_6StatusERKNS_6TensorEPS4_i@Base 2.0.0
 _ZN10tensorflow10batch_util26HandleElementToLargerSliceINS_8bfloat16ELi5EEENS_6StatusERKNS_6TensorEPS4_i@Base 2.0.0
 _ZN10tensorflow10batch_util26HandleElementToLargerSliceINSt7__cxx1112basic_stringIcSt11char_traitsIcESaIcEEELi0EEENS_6StatusERKNS_6TensorEPS9_i@Base 2.0.0
 _ZN10tensorflow10batch_util26HandleElementToLargerSliceINSt7__cxx1112basic_stringIcSt11char_traitsIcESaIcEEELi1EEENS_6StatusERKNS_6TensorEPS9_i@Base 2.0.0
 _ZN10tensorflow10batch_util26HandleElementToLargerSliceINSt7__cxx1112basic_stringIcSt11char_traitsIcESaIcEEELi2EEENS_6StatusERKNS_6TensorEPS9_i@Base 2.0.0
 _ZN10tensorflow10batch_util26HandleElementToLargerSliceINSt7__cxx1112basic_stringIcSt11char_traitsIcESaIcEEELi3EEENS_6StatusERKNS_6TensorEPS9_i@Base 2.0.0
 _ZN10tensorflow10batch_util26HandleElementToLargerSliceINSt7__cxx1112basic_stringIcSt11char_traitsIcESaIcEEELi4EEENS_6StatusERKNS_6TensorEPS9_i@Base 2.0.0
 _ZN10tensorflow10batch_util26HandleElementToLargerSliceINSt7__cxx1112basic_stringIcSt11char_traitsIcESaIcEEELi5EEENS_6StatusERKNS_6TensorEPS9_i@Base 2.0.0
 _ZN10tensorflow10batch_util26HandleElementToLargerSliceISt7complexIdELi0EEENS_6StatusERKNS_6TensorEPS5_i@Base 2.0.0
 _ZN10tensorflow10batch_util26HandleElementToLargerSliceISt7complexIdELi1EEENS_6StatusERKNS_6TensorEPS5_i@Base 2.0.0
 _ZN10tensorflow10batch_util26HandleElementToLargerSliceISt7complexIdELi2EEENS_6StatusERKNS_6TensorEPS5_i@Base 2.0.0
 _ZN10tensorflow10batch_util26HandleElementToLargerSliceISt7complexIdELi3EEENS_6StatusERKNS_6TensorEPS5_i@Base 2.0.0
 _ZN10tensorflow10batch_util26HandleElementToLargerSliceISt7complexIdELi4EEENS_6StatusERKNS_6TensorEPS5_i@Base 2.0.0
 _ZN10tensorflow10batch_util26HandleElementToLargerSliceISt7complexIdELi5EEENS_6StatusERKNS_6TensorEPS5_i@Base 2.0.0
 _ZN10tensorflow10batch_util26HandleElementToLargerSliceISt7complexIfELi0EEENS_6StatusERKNS_6TensorEPS5_i@Base 2.0.0
 _ZN10tensorflow10batch_util26HandleElementToLargerSliceISt7complexIfELi1EEENS_6StatusERKNS_6TensorEPS5_i@Base 2.0.0
 _ZN10tensorflow10batch_util26HandleElementToLargerSliceISt7complexIfELi2EEENS_6StatusERKNS_6TensorEPS5_i@Base 2.0.0
 _ZN10tensorflow10batch_util26HandleElementToLargerSliceISt7complexIfELi3EEENS_6StatusERKNS_6TensorEPS5_i@Base 2.0.0
 _ZN10tensorflow10batch_util26HandleElementToLargerSliceISt7complexIfELi4EEENS_6StatusERKNS_6TensorEPS5_i@Base 2.0.0
 _ZN10tensorflow10batch_util26HandleElementToLargerSliceISt7complexIfELi5EEENS_6StatusERKNS_6TensorEPS5_i@Base 2.0.0
 _ZN10tensorflow10batch_util26HandleElementToLargerSliceIaLi0EEENS_6StatusERKNS_6TensorEPS3_i@Base 2.0.0
 _ZN10tensorflow10batch_util26HandleElementToLargerSliceIaLi1EEENS_6StatusERKNS_6TensorEPS3_i@Base 2.0.0
 _ZN10tensorflow10batch_util26HandleElementToLargerSliceIaLi2EEENS_6StatusERKNS_6TensorEPS3_i@Base 2.0.0
 _ZN10tensorflow10batch_util26HandleElementToLargerSliceIaLi3EEENS_6StatusERKNS_6TensorEPS3_i@Base 2.0.0
 _ZN10tensorflow10batch_util26HandleElementToLargerSliceIaLi4EEENS_6StatusERKNS_6TensorEPS3_i@Base 2.0.0
 _ZN10tensorflow10batch_util26HandleElementToLargerSliceIaLi5EEENS_6StatusERKNS_6TensorEPS3_i@Base 2.0.0
 _ZN10tensorflow10batch_util26HandleElementToLargerSliceIbLi0EEENS_6StatusERKNS_6TensorEPS3_i@Base 2.0.0
 _ZN10tensorflow10batch_util26HandleElementToLargerSliceIbLi1EEENS_6StatusERKNS_6TensorEPS3_i@Base 2.0.0
 _ZN10tensorflow10batch_util26HandleElementToLargerSliceIbLi2EEENS_6StatusERKNS_6TensorEPS3_i@Base 2.0.0
 _ZN10tensorflow10batch_util26HandleElementToLargerSliceIbLi3EEENS_6StatusERKNS_6TensorEPS3_i@Base 2.0.0
 _ZN10tensorflow10batch_util26HandleElementToLargerSliceIbLi4EEENS_6StatusERKNS_6TensorEPS3_i@Base 2.0.0
 _ZN10tensorflow10batch_util26HandleElementToLargerSliceIbLi5EEENS_6StatusERKNS_6TensorEPS3_i@Base 2.0.0
 _ZN10tensorflow10batch_util26HandleElementToLargerSliceIdLi0EEENS_6StatusERKNS_6TensorEPS3_i@Base 2.0.0
 _ZN10tensorflow10batch_util26HandleElementToLargerSliceIdLi1EEENS_6StatusERKNS_6TensorEPS3_i@Base 2.0.0
 _ZN10tensorflow10batch_util26HandleElementToLargerSliceIdLi2EEENS_6StatusERKNS_6TensorEPS3_i@Base 2.0.0
 _ZN10tensorflow10batch_util26HandleElementToLargerSliceIdLi3EEENS_6StatusERKNS_6TensorEPS3_i@Base 2.0.0
 _ZN10tensorflow10batch_util26HandleElementToLargerSliceIdLi4EEENS_6StatusERKNS_6TensorEPS3_i@Base 2.0.0
 _ZN10tensorflow10batch_util26HandleElementToLargerSliceIdLi5EEENS_6StatusERKNS_6TensorEPS3_i@Base 2.0.0
 _ZN10tensorflow10batch_util26HandleElementToLargerSliceIfLi0EEENS_6StatusERKNS_6TensorEPS3_i@Base 2.0.0
 _ZN10tensorflow10batch_util26HandleElementToLargerSliceIfLi1EEENS_6StatusERKNS_6TensorEPS3_i@Base 2.0.0
 _ZN10tensorflow10batch_util26HandleElementToLargerSliceIfLi2EEENS_6StatusERKNS_6TensorEPS3_i@Base 2.0.0
 _ZN10tensorflow10batch_util26HandleElementToLargerSliceIfLi3EEENS_6StatusERKNS_6TensorEPS3_i@Base 2.0.0
 _ZN10tensorflow10batch_util26HandleElementToLargerSliceIfLi4EEENS_6StatusERKNS_6TensorEPS3_i@Base 2.0.0
 _ZN10tensorflow10batch_util26HandleElementToLargerSliceIfLi5EEENS_6StatusERKNS_6TensorEPS3_i@Base 2.0.0
 _ZN10tensorflow10batch_util26HandleElementToLargerSliceIhLi0EEENS_6StatusERKNS_6TensorEPS3_i@Base 2.0.0
 _ZN10tensorflow10batch_util26HandleElementToLargerSliceIhLi1EEENS_6StatusERKNS_6TensorEPS3_i@Base 2.0.0
 _ZN10tensorflow10batch_util26HandleElementToLargerSliceIhLi2EEENS_6StatusERKNS_6TensorEPS3_i@Base 2.0.0
 _ZN10tensorflow10batch_util26HandleElementToLargerSliceIhLi3EEENS_6StatusERKNS_6TensorEPS3_i@Base 2.0.0
 _ZN10tensorflow10batch_util26HandleElementToLargerSliceIhLi4EEENS_6StatusERKNS_6TensorEPS3_i@Base 2.0.0
 _ZN10tensorflow10batch_util26HandleElementToLargerSliceIhLi5EEENS_6StatusERKNS_6TensorEPS3_i@Base 2.0.0
 _ZN10tensorflow10batch_util26HandleElementToLargerSliceIiLi0EEENS_6StatusERKNS_6TensorEPS3_i@Base 2.0.0
 _ZN10tensorflow10batch_util26HandleElementToLargerSliceIiLi1EEENS_6StatusERKNS_6TensorEPS3_i@Base 2.0.0
 _ZN10tensorflow10batch_util26HandleElementToLargerSliceIiLi2EEENS_6StatusERKNS_6TensorEPS3_i@Base 2.0.0
 _ZN10tensorflow10batch_util26HandleElementToLargerSliceIiLi3EEENS_6StatusERKNS_6TensorEPS3_i@Base 2.0.0
 _ZN10tensorflow10batch_util26HandleElementToLargerSliceIiLi4EEENS_6StatusERKNS_6TensorEPS3_i@Base 2.0.0
 _ZN10tensorflow10batch_util26HandleElementToLargerSliceIiLi5EEENS_6StatusERKNS_6TensorEPS3_i@Base 2.0.0
 _ZN10tensorflow10batch_util26HandleElementToLargerSliceIsLi0EEENS_6StatusERKNS_6TensorEPS3_i@Base 2.0.0
 _ZN10tensorflow10batch_util26HandleElementToLargerSliceIsLi1EEENS_6StatusERKNS_6TensorEPS3_i@Base 2.0.0
 _ZN10tensorflow10batch_util26HandleElementToLargerSliceIsLi2EEENS_6StatusERKNS_6TensorEPS3_i@Base 2.0.0
 _ZN10tensorflow10batch_util26HandleElementToLargerSliceIsLi3EEENS_6StatusERKNS_6TensorEPS3_i@Base 2.0.0
 _ZN10tensorflow10batch_util26HandleElementToLargerSliceIsLi4EEENS_6StatusERKNS_6TensorEPS3_i@Base 2.0.0
 _ZN10tensorflow10batch_util26HandleElementToLargerSliceIsLi5EEENS_6StatusERKNS_6TensorEPS3_i@Base 2.0.0
 _ZN10tensorflow10batch_util26HandleElementToLargerSliceItLi0EEENS_6StatusERKNS_6TensorEPS3_i@Base 2.0.0
 _ZN10tensorflow10batch_util26HandleElementToLargerSliceItLi1EEENS_6StatusERKNS_6TensorEPS3_i@Base 2.0.0
 _ZN10tensorflow10batch_util26HandleElementToLargerSliceItLi2EEENS_6StatusERKNS_6TensorEPS3_i@Base 2.0.0
 _ZN10tensorflow10batch_util26HandleElementToLargerSliceItLi3EEENS_6StatusERKNS_6TensorEPS3_i@Base 2.0.0
 _ZN10tensorflow10batch_util26HandleElementToLargerSliceItLi4EEENS_6StatusERKNS_6TensorEPS3_i@Base 2.0.0
 _ZN10tensorflow10batch_util26HandleElementToLargerSliceItLi5EEENS_6StatusERKNS_6TensorEPS3_i@Base 2.0.0
 _ZN10tensorflow10batch_util26HandleElementToLargerSliceIxLi0EEENS_6StatusERKNS_6TensorEPS3_i@Base 2.0.0
 _ZN10tensorflow10batch_util26HandleElementToLargerSliceIxLi1EEENS_6StatusERKNS_6TensorEPS3_i@Base 2.0.0
 _ZN10tensorflow10batch_util26HandleElementToLargerSliceIxLi2EEENS_6StatusERKNS_6TensorEPS3_i@Base 2.0.0
 _ZN10tensorflow10batch_util26HandleElementToLargerSliceIxLi3EEENS_6StatusERKNS_6TensorEPS3_i@Base 2.0.0
 _ZN10tensorflow10batch_util26HandleElementToLargerSliceIxLi4EEENS_6StatusERKNS_6TensorEPS3_i@Base 2.0.0
 _ZN10tensorflow10batch_util26HandleElementToLargerSliceIxLi5EEENS_6StatusERKNS_6TensorEPS3_i@Base 2.0.0
 _ZN10tensorflow10batch_util28ValidateElementToLargerSliceERKNS_6TensorEPS1_@Base 2.0.0
 _ZN10tensorflow10batch_util34HandleElementToLargerSliceWithRankILi0EEENS_6StatusERKNS_6TensorEPS3_i@Base 2.0.0
 _ZN10tensorflow10batch_util34HandleElementToLargerSliceWithRankILi1EEENS_6StatusERKNS_6TensorEPS3_i@Base 2.0.0
 _ZN10tensorflow10batch_util34HandleElementToLargerSliceWithRankILi2EEENS_6StatusERKNS_6TensorEPS3_i@Base 2.0.0
 _ZN10tensorflow10batch_util34HandleElementToLargerSliceWithRankILi3EEENS_6StatusERKNS_6TensorEPS3_i@Base 2.0.0
 _ZN10tensorflow10batch_util34HandleElementToLargerSliceWithRankILi4EEENS_6StatusERKNS_6TensorEPS3_i@Base 2.0.0
 _ZN10tensorflow10batch_util34HandleElementToLargerSliceWithRankILi5EEENS_6StatusERKNS_6TensorEPS3_i@Base 2.0.0
 _ZN10tensorflow10checkpoint14TensorSliceSet8RegisterERKNS_11TensorSliceERKNSt7__cxx1112basic_stringIcSt11char_traitsIcESaIcEEE@Base 2.0.0
 _ZN10tensorflow10checkpoint14TensorSliceSetC1ERKNS_11TensorShapeENS_8DataTypeE@Base 2.0.0
 _ZN10tensorflow10checkpoint14TensorSliceSetC2ERKNS_11TensorShapeENS_8DataTypeE@Base 2.0.0
 _ZN10tensorflow10checkpoint14TensorSliceSetD0Ev@Base 2.0.0
 _ZN10tensorflow10checkpoint14TensorSliceSetD1Ev@Base 2.0.0
 _ZN10tensorflow10checkpoint14TensorSliceSetD2Ev@Base 2.0.0
 _ZN10tensorflow10checkpoint17TensorSliceReader5TableD0Ev@Base 2.0.0
 _ZN10tensorflow10checkpoint17TensorSliceReader5TableD1Ev@Base 2.0.0
 _ZN10tensorflow10checkpoint17TensorSliceReader5TableD2Ev@Base 2.0.0
 _ZN10tensorflow10checkpoint17TensorSliceReaderC1ERKNSt7__cxx1112basic_stringIcSt11char_traitsIcESaIcEEE@Base 2.0.0
 _ZN10tensorflow10checkpoint17TensorSliceReaderC1ERKNSt7__cxx1112basic_stringIcSt11char_traitsIcESaIcEEESt8functionIFNS_6StatusES9_PPNS1_5TableEEE@Base 2.0.0
 _ZN10tensorflow10checkpoint17TensorSliceReaderC1ERKNSt7__cxx1112basic_stringIcSt11char_traitsIcESaIcEEESt8functionIFNS_6StatusES9_PPNS1_5TableEEEi@Base 2.0.0
 _ZN10tensorflow10checkpoint17TensorSliceReaderC2ERKNSt7__cxx1112basic_stringIcSt11char_traitsIcESaIcEEE@Base 2.0.0
 _ZN10tensorflow10checkpoint17TensorSliceReaderC2ERKNSt7__cxx1112basic_stringIcSt11char_traitsIcESaIcEEESt8functionIFNS_6StatusES9_PPNS1_5TableEEE@Base 2.0.0
 _ZN10tensorflow10checkpoint17TensorSliceReaderC2ERKNSt7__cxx1112basic_stringIcSt11char_traitsIcESaIcEEESt8functionIFNS_6StatusES9_PPNS1_5TableEEEi@Base 2.0.0
 _ZN10tensorflow10checkpoint17TensorSliceReaderD0Ev@Base 2.0.0
 _ZN10tensorflow10checkpoint17TensorSliceReaderD1Ev@Base 2.0.0
 _ZN10tensorflow10checkpoint17TensorSliceReaderD2Ev@Base 2.0.0
 _ZN10tensorflow10checkpoint17TensorSliceWriter18MaxBytesPerElementENS_8DataTypeE@Base 2.0.0
 _ZN10tensorflow10checkpoint17TensorSliceWriter6FinishEv@Base 2.0.0
 _ZN10tensorflow10checkpoint17TensorSliceWriter8SaveDataINSt7__cxx1112basic_stringIcSt11char_traitsIcESaIcEEEEENS_6StatusEPKT_xPNS_10SavedSliceE@Base 2.0.0
 _ZN10tensorflow10checkpoint17TensorSliceWriterC1ERKNSt7__cxx1112basic_stringIcSt11char_traitsIcESaIcEEESt8functionIFNS_6StatusES9_PPNS1_7BuilderEEE@Base 2.0.0
 _ZN10tensorflow10checkpoint17TensorSliceWriterC2ERKNSt7__cxx1112basic_stringIcSt11char_traitsIcESaIcEEESt8functionIFNS_6StatusES9_PPNS1_7BuilderEEE@Base 2.0.0
 _ZN10tensorflow10checkpoint17TensorSliceWriterD0Ev@Base 2.0.0
 _ZN10tensorflow10checkpoint17TensorSliceWriterD1Ev@Base 2.0.0
 _ZN10tensorflow10checkpoint17TensorSliceWriterD2Ev@Base 2.0.0
 _ZN10tensorflow10checkpoint18ParseShapeAndSliceERKNSt7__cxx1112basic_stringIcSt11char_traitsIcESaIcEEEPNS_11TensorShapeEPNS_11TensorSliceESA_@Base 2.0.0
 _ZN10tensorflow10checkpoint19RegisterTensorSliceERKNSt7__cxx1112basic_stringIcSt11char_traitsIcESaIcEEERKNS_11TensorShapeENS_8DataTypeES8_RKNS_11TensorSliceEPSt13unordered_mapIS6_PNS0_14TensorSliceSetESt4hashIS6_ESt8equal_toIS6_ESaISt4pairIS7_SI_EEE@Base 2.0.0
 _ZN10tensorflow10checkpoint21DecodeTensorNameSliceERKNSt7__cxx1112basic_stringIcSt11char_traitsIcESaIcEEEPS6_PNS_11TensorSliceE@Base 2.0.0
 _ZN10tensorflow10checkpoint21EncodeTensorNameSliceERKNSt7__cxx1112basic_stringIcSt11char_traitsIcESaIcEEERKNS_11TensorSliceE@Base 2.0.0
 _ZN10tensorflow10checkpoint21kSavedTensorSlicesKeyE@Base 2.0.0
 _ZN10tensorflow10checkpoint22TensorSliceReaderCache9GetReaderERKNSt7__cxx1112basic_stringIcSt11char_traitsIcESaIcEEESt8functionIFNS_6StatusES9_PPNS0_17TensorSliceReader5TableEEEi@Base 2.0.0
 _ZN10tensorflow10checkpoint22TensorSliceReaderCacheC1Ev@Base 2.0.0
 _ZN10tensorflow10checkpoint22TensorSliceReaderCacheC2Ev@Base 2.0.0
 _ZN10tensorflow10checkpoint22TensorSliceReaderCacheD1Ev@Base 2.0.0
 _ZN10tensorflow10checkpoint22TensorSliceReaderCacheD2Ev@Base 2.0.0
 _ZN10tensorflow10checkpoint26OpenTableTensorSliceReaderERKNSt7__cxx1112basic_stringIcSt11char_traitsIcESaIcEEEPPNS0_17TensorSliceReader5TableE@Base 2.0.0
 _ZN10tensorflow10checkpoint29CreateTableTensorSliceBuilderERKNSt7__cxx1112basic_stringIcSt11char_traitsIcESaIcEEEPPNS0_17TensorSliceWriter7BuilderE@Base 2.0.0
 _ZN10tensorflow10checkpoint29TensorSliceReaderCacheWrapperC1Ev@Base 2.0.0
 _ZN10tensorflow10checkpoint29TensorSliceReaderCacheWrapperC2Ev@Base 2.0.0
 _ZN10tensorflow10checkpoint29TensorSliceReaderCacheWrapperD1Ev@Base 2.0.0
 _ZN10tensorflow10checkpoint29TensorSliceReaderCacheWrapperD2Ev@Base 2.0.0
 _ZN10tensorflow10error_nameB5cxx11ENS_5error4CodeE@Base 2.0.0
 _ZN10tensorflow10monitoring13ExportMetricsEv@Base 2.0.0
 _ZN10tensorflow10monitoring13StartExporterEv@Base 2.0.0
 _ZN10tensorflow10monitoring15MetricCollectorILNS0_10MetricKindE0EbLi0EE12CollectValueERKSt5arrayINSt7__cxx1112basic_stringIcSt11char_traitsIcESaIcEEELm0EERKb@Base 2.0.0
 _ZN10tensorflow10monitoring15MetricCollectorILNS0_10MetricKindE1ENS_14HistogramProtoELi2EE12CollectValueERKSt5arrayINSt7__cxx1112basic_stringIcSt11char_traitsIcESaIcEEELm2EERKS3_@Base 2.0.0
 _ZN10tensorflow10monitoring15MetricCollectorILNS0_10MetricKindE1ExLi0EE12CollectValueERKSt5arrayINSt7__cxx1112basic_stringIcSt11char_traitsIcESaIcEEELm0EERKx@Base 2.0.0
 _ZN10tensorflow10monitoring15MetricCollectorILNS0_10MetricKindE1ExLi1EE12CollectValueERKSt5arrayINSt7__cxx1112basic_stringIcSt11char_traitsIcESaIcEEELm1EERKx@Base 2.0.0
 _ZN10tensorflow10monitoring15MetricCollectorILNS0_10MetricKindE1ExLi2EE12CollectValueERKSt5arrayINSt7__cxx1112basic_stringIcSt11char_traitsIcESaIcEEELm2EERKx@Base 2.0.0
 _ZN10tensorflow10monitoring17AbstractMetricDefD1Ev@Base 2.0.0
 _ZN10tensorflow10monitoring17AbstractMetricDefD2Ev@Base 2.0.0
 _ZN10tensorflow10monitoring18CollectionRegistry10UnregisterEPKNS0_17AbstractMetricDefE@Base 2.0.0
 _ZN10tensorflow10monitoring18CollectionRegistry7DefaultEv@Base 2.0.0
 _ZN10tensorflow10monitoring18CollectionRegistry8RegisterEPKNS0_17AbstractMetricDefERKSt8functionIFvNS0_21MetricCollectorGetterEEE@Base 2.0.0
 _ZN10tensorflow10monitoring18CollectionRegistryC1EPNS_3EnvE@Base 2.0.0
 _ZN10tensorflow10monitoring18CollectionRegistryC2EPNS_3EnvE@Base 2.0.0
 _ZN10tensorflow10monitoring5GaugeIbLi0EE3NewIJRA33_KcRA31_S4_EEEPS2_DpOT_@Base 2.0.0
 _ZN10tensorflow10monitoring5GaugeIbLi0EE7GetCellIJEEEPNS0_9GaugeCellIbEEDpRKT_@Base 2.0.0
 _ZN10tensorflow10monitoring5Point5LabelD1Ev@Base 2.0.0
 _ZN10tensorflow10monitoring5Point5LabelD2Ev@Base 2.0.0
 _ZN10tensorflow10monitoring7Buckets11ExponentialEddi@Base 2.0.0
 _ZN10tensorflow10monitoring7Buckets8ExplicitESt16initializer_listIdE@Base 2.0.0
 _ZN10tensorflow10monitoring7Buckets8ExplicitESt6vectorIdSaIdEE@Base 2.0.0
 _ZN10tensorflow10monitoring7CounterILi0EE7GetCellIJEEEPNS0_11CounterCellEDpRKT_@Base 2.0.0
 _ZN10tensorflow10monitoring7CounterILi0EEC1ERKNS0_9MetricDefILNS0_10MetricKindE1ExLi0EEE@Base 2.0.0
 _ZN10tensorflow10monitoring7CounterILi0EEC2ERKNS0_9MetricDefILNS0_10MetricKindE1ExLi0EEE@Base 2.0.0
 _ZN10tensorflow10monitoring7CounterILi1EE3NewIJRA40_KcRA71_S4_RA11_S4_EEEPS2_DpOT_@Base 2.0.0
 _ZN10tensorflow10monitoring7CounterILi1EE7GetCellIJNSt7__cxx1112basic_stringIcSt11char_traitsIcESaIcEEEEEEPNS0_11CounterCellEDpRKT_@Base 2.0.0
 _ZN10tensorflow10monitoring7CounterILi2EE3NewIJRA46_KcRA58_S4_RA11_S4_RA7_S4_EEEPS2_DpOT_@Base 2.0.0
 _ZN10tensorflow10monitoring7CounterILi2EE7GetCellIJNSt7__cxx1112basic_stringIcSt11char_traitsIcESaIcEEES9_EEEPNS0_11CounterCellEDpRKT_@Base 2.0.0
 _ZN10tensorflow10monitoring7SamplerILi0EE3NewERKNS0_9MetricDefILNS0_10MetricKindE1ENS_14HistogramProtoELi0EEESt10unique_ptrINS0_7BucketsESt14default_deleteISA_EE@Base 2.0.0
 _ZN10tensorflow10monitoring7SamplerILi0EE7GetCellIJEEEPNS0_11SamplerCellEDpRKT_@Base 2.0.0
 _ZN10tensorflow10monitoring7SamplerILi2EE7GetCellIJNSt7__cxx1112basic_stringIcSt11char_traitsIcESaIcEEEA11_cEEEPNS0_11SamplerCellEDpRKT_@Base 2.0.0
 _ZN10tensorflow10monitoring7SamplerILi2EE7GetCellIJNSt7__cxx1112basic_stringIcSt11char_traitsIcESaIcEEEA14_cEEEPNS0_11SamplerCellEDpRKT_@Base 2.0.0
 _ZN10tensorflow10monitoring8internal9Collector19CollectMetricValuesERKNS0_18CollectionRegistry14CollectionInfoE@Base 2.0.0
 _ZN10tensorflow10monitoring8internal9Collector23CollectMetricDescriptorEPKNS0_17AbstractMetricDefE@Base 2.0.0
 _ZN10tensorflow10monitoring8internal9Collector23ConsumeCollectedMetricsEv@Base 2.0.0
 _ZN10tensorflow10monitoring9MetricDefILNS0_10MetricKindE1ENS_14HistogramProtoELi0EEC1IJEEEN4absl11string_viewES7_DpRKT_@Base 2.0.0
 _ZN10tensorflow10monitoring9MetricDefILNS0_10MetricKindE1ENS_14HistogramProtoELi0EEC2IJEEEN4absl11string_viewES7_DpRKT_@Base 2.0.0
 _ZN10tensorflow10monitoring9MetricDefILNS0_10MetricKindE1ExLi1EEC1IJA5_cEEEN4absl11string_viewES7_DpRKT_@Base 2.0.0
 _ZN10tensorflow10monitoring9MetricDefILNS0_10MetricKindE1ExLi1EEC2IJA5_cEEEN4absl11string_viewES7_DpRKT_@Base 2.0.0
 _ZN10tensorflow11AddNodeAttrEN4absl11string_viewENS0_4SpanIKNS_11TensorShapeEEEPNS_7NodeDefE@Base 2.0.0
 _ZN10tensorflow11AddNodeAttrEN4absl11string_viewENS0_4SpanIKNS_12NameAttrListEEEPNS_7NodeDefE@Base 2.0.0
 _ZN10tensorflow11AddNodeAttrEN4absl11string_viewENS0_4SpanIKNS_16TensorShapeProtoEEEPNS_7NodeDefE@Base 2.0.0
 _ZN10tensorflow11AddNodeAttrEN4absl11string_viewENS0_4SpanIKNS_18PartialTensorShapeEEEPNS_7NodeDefE@Base 2.0.0
 _ZN10tensorflow11AddNodeAttrEN4absl11string_viewENS0_4SpanIKNS_6TensorEEEPNS_7NodeDefE@Base 2.0.0
 _ZN10tensorflow11AddNodeAttrEN4absl11string_viewENS0_4SpanIKNS_8DataTypeEEEPNS_7NodeDefE@Base 2.0.0
 _ZN10tensorflow11AddNodeAttrEN4absl11string_viewENS0_4SpanIKNSt7__cxx1112basic_stringIcSt11char_traitsIcESaIcEEEEEPNS_7NodeDefE@Base 2.0.0
 _ZN10tensorflow11AddNodeAttrEN4absl11string_viewENS0_4SpanIKPKcEEPNS_7NodeDefE@Base 2.0.0
 _ZN10tensorflow11AddNodeAttrEN4absl11string_viewENS0_4SpanIKS1_EEPNS_7NodeDefE@Base 2.0.0
 _ZN10tensorflow11AddNodeAttrEN4absl11string_viewENS0_4SpanIKbEEPNS_7NodeDefE@Base 2.0.0
 _ZN10tensorflow11AddNodeAttrEN4absl11string_viewENS0_4SpanIKfEEPNS_7NodeDefE@Base 2.0.0
 _ZN10tensorflow11AddNodeAttrEN4absl11string_viewENS0_4SpanIKiEEPNS_7NodeDefE@Base 2.0.0
 _ZN10tensorflow11AddNodeAttrEN4absl11string_viewENS0_4SpanIKxEEPNS_7NodeDefE@Base 2.0.0
 _ZN10tensorflow11AddNodeAttrEN4absl11string_viewENS_8DataTypeEPNS_7NodeDefE@Base 2.0.0
 _ZN10tensorflow11AddNodeAttrEN4absl11string_viewEONS_9AttrValueEPNS_7NodeDefE@Base 2.0.0
 _ZN10tensorflow11AddNodeAttrEN4absl11string_viewEPKcPNS_7NodeDefE@Base 2.0.0
 _ZN10tensorflow11AddNodeAttrEN4absl11string_viewERKNS_11TensorProtoEPNS_7NodeDefE@Base 2.0.0
 _ZN10tensorflow11AddNodeAttrEN4absl11string_viewERKNS_12NameAttrListEPNS_7NodeDefE@Base 2.0.0
 _ZN10tensorflow11AddNodeAttrEN4absl11string_viewERKNS_18PartialTensorShapeEPNS_7NodeDefE@Base 2.0.0
 _ZN10tensorflow11AddNodeAttrEN4absl11string_viewERKNS_6TensorEPNS_7NodeDefE@Base 2.0.0
 _ZN10tensorflow11AddNodeAttrEN4absl11string_viewERKNS_9AttrValueEPNS_7NodeDefE@Base 2.0.0
 _ZN10tensorflow11AddNodeAttrEN4absl11string_viewERKSt6vectorIbSaIbEEPNS_7NodeDefE@Base 2.0.0
 _ZN10tensorflow11AddNodeAttrEN4absl11string_viewES1_PNS_7NodeDefE@Base 2.0.0
 _ZN10tensorflow11AddNodeAttrEN4absl11string_viewEbPNS_7NodeDefE@Base 2.0.0
 _ZN10tensorflow11AddNodeAttrEN4absl11string_viewEdPNS_7NodeDefE@Base 2.0.0
 _ZN10tensorflow11AddNodeAttrEN4absl11string_viewEfPNS_7NodeDefE@Base 2.0.0
 _ZN10tensorflow11AddNodeAttrEN4absl11string_viewEiPNS_7NodeDefE@Base 2.0.0
 _ZN10tensorflow11AddNodeAttrEN4absl11string_viewExPNS_7NodeDefE@Base 2.0.0
 _ZN10tensorflow11ApiDef_Attr12InternalSwapEPS0_@Base 2.0.0
 _ZN10tensorflow11ApiDef_Attr14_InternalParseEPKcPN6google8protobuf8internal12ParseContextE@Base 2.0.0
 _ZN10tensorflow11ApiDef_Attr16default_instanceEv@Base 2.0.0
 _ZN10tensorflow11ApiDef_Attr19clear_default_valueEv@Base 2.0.0
 _ZN10tensorflow11ApiDef_Attr21InitAsDefaultInstanceEv@Base 2.0.0
 _ZN10tensorflow11ApiDef_Attr40unsafe_arena_set_allocated_default_valueEPNS_9AttrValueE@Base 2.0.0
 _ZN10tensorflow11ApiDef_Attr5ClearEv@Base 2.0.0
 _ZN10tensorflow11ApiDef_Attr8CopyFromERKN6google8protobuf7MessageE@Base 2.0.0
 _ZN10tensorflow11ApiDef_Attr8CopyFromERKS0_@Base 2.0.0
 _ZN10tensorflow11ApiDef_Attr9ArenaDtorEPv@Base 2.0.0
 _ZN10tensorflow11ApiDef_Attr9MergeFromERKN6google8protobuf7MessageE@Base 2.0.0
 _ZN10tensorflow11ApiDef_Attr9MergeFromERKS0_@Base 2.0.0
 _ZN10tensorflow11ApiDef_Attr9_Internal13default_valueEPKS0_@Base 2.0.0
 _ZN10tensorflow11ApiDef_AttrC1EPN6google8protobuf5ArenaE@Base 2.0.0
 _ZN10tensorflow11ApiDef_AttrC1ERKS0_@Base 2.0.0
 _ZN10tensorflow11ApiDef_AttrC1Ev@Base 2.0.0
 _ZN10tensorflow11ApiDef_AttrC2EPN6google8protobuf5ArenaE@Base 2.0.0
 _ZN10tensorflow11ApiDef_AttrC2ERKS0_@Base 2.0.0
 _ZN10tensorflow11ApiDef_AttrC2Ev@Base 2.0.0
 _ZN10tensorflow11ApiDef_AttrD0Ev@Base 2.0.0
 _ZN10tensorflow11ApiDef_AttrD1Ev@Base 2.0.0
 _ZN10tensorflow11ApiDef_AttrD2Ev@Base 2.0.0
 _ZN10tensorflow11AttrDefHashERKNS_13OpDef_AttrDefE@Base 2.0.0
 _ZN10tensorflow11CanUseCudnnEv@Base 2.0.0
 _ZN10tensorflow11ComputePoolERKNS_14SessionOptionsE@Base 2.0.0
 _ZN10tensorflow11ConfigProto12InternalSwapEPS0_@Base 2.0.0
 _ZN10tensorflow11ConfigProto14_InternalParseEPKcPN6google8protobuf8internal12ParseContextE@Base 2.0.0
 _ZN10tensorflow11ConfigProto16default_instanceEv@Base 2.0.0
 _ZN10tensorflow11ConfigProto17clear_cluster_defEv@Base 2.0.0
 _ZN10tensorflow11ConfigProto21InitAsDefaultInstanceEv@Base 2.0.0
 _ZN10tensorflow11ConfigProto38unsafe_arena_set_allocated_cluster_defEPNS_10ClusterDefE@Base 2.0.0
 _ZN10tensorflow11ConfigProto38unsafe_arena_set_allocated_gpu_optionsEPNS_10GPUOptionsE@Base 2.0.0
 _ZN10tensorflow11ConfigProto38unsafe_arena_set_allocated_rpc_optionsEPNS_10RPCOptionsE@Base 2.0.0
 _ZN10tensorflow11ConfigProto39unsafe_arena_set_allocated_experimentalEPNS_24ConfigProto_ExperimentalE@Base 2.0.0
 _ZN10tensorflow11ConfigProto40unsafe_arena_set_allocated_graph_optionsEPNS_12GraphOptionsE@Base 2.0.0
 _ZN10tensorflow11ConfigProto5ClearEv@Base 2.0.0
 _ZN10tensorflow11ConfigProto8CopyFromERKN6google8protobuf7MessageE@Base 2.0.0
 _ZN10tensorflow11ConfigProto8CopyFromERKS0_@Base 2.0.0
 _ZN10tensorflow11ConfigProto9ArenaDtorEPv@Base 2.0.0
 _ZN10tensorflow11ConfigProto9MergeFromERKN6google8protobuf7MessageE@Base 2.0.0
 _ZN10tensorflow11ConfigProto9MergeFromERKS0_@Base 2.0.0
 _ZN10tensorflow11ConfigProto9_Internal11cluster_defEPKS0_@Base 2.0.0
 _ZN10tensorflow11ConfigProto9_Internal11gpu_optionsEPKS0_@Base 2.0.0
 _ZN10tensorflow11ConfigProto9_Internal11rpc_optionsEPKS0_@Base 2.0.0
 _ZN10tensorflow11ConfigProto9_Internal12experimentalEPKS0_@Base 2.0.0
 _ZN10tensorflow11ConfigProto9_Internal13graph_optionsEPKS0_@Base 2.0.0
 _ZN10tensorflow11ConfigProtoC1EPN6google8protobuf5ArenaE@Base 2.0.0
 _ZN10tensorflow11ConfigProtoC1ERKS0_@Base 2.0.0
 _ZN10tensorflow11ConfigProtoC1Ev@Base 2.0.0
 _ZN10tensorflow11ConfigProtoC2EPN6google8protobuf5ArenaE@Base 2.0.0
 _ZN10tensorflow11ConfigProtoC2ERKS0_@Base 2.0.0
 _ZN10tensorflow11ConfigProtoC2Ev@Base 2.0.0
 _ZN10tensorflow11ConfigProtoD0Ev@Base 2.0.0
 _ZN10tensorflow11ConfigProtoD1Ev@Base 2.0.0
 _ZN10tensorflow11ConfigProtoD2Ev@Base 2.0.0
 _ZN10tensorflow11DEVICE_SYCLE@Base 2.0.0
 _ZN10tensorflow11DebugStringB5cxx11EN4absl4SpanIKNS_7NodeDefEEE@Base 2.0.0
 _ZN10tensorflow11DebugStringB5cxx11EPKNS_5GraphE@Base 2.0.0
 _ZN10tensorflow11DebugStringB5cxx11ERKNS_11FunctionDefE@Base 2.0.0
 _ZN10tensorflow11DebugStringB5cxx11ERKNS_8GraphDefE@Base 2.0.0
 _ZN10tensorflow11ErrnoToCodeEi@Base 2.0.0
 _ZN10tensorflow11FeatureList12InternalSwapEPS0_@Base 2.0.0
 _ZN10tensorflow11FeatureList14_InternalParseEPKcPN6google8protobuf8internal12ParseContextE@Base 2.0.0
 _ZN10tensorflow11FeatureList16default_instanceEv@Base 2.0.0
 _ZN10tensorflow11FeatureList21InitAsDefaultInstanceEv@Base 2.0.0
 _ZN10tensorflow11FeatureList5ClearEv@Base 2.0.0
 _ZN10tensorflow11FeatureList8CopyFromERKN6google8protobuf7MessageE@Base 2.0.0
 _ZN10tensorflow11FeatureList8CopyFromERKS0_@Base 2.0.0
 _ZN10tensorflow11FeatureList9ArenaDtorEPv@Base 2.0.0
 _ZN10tensorflow11FeatureList9MergeFromERKN6google8protobuf7MessageE@Base 2.0.0
 _ZN10tensorflow11FeatureList9MergeFromERKS0_@Base 2.0.0
 _ZN10tensorflow11FeatureListC1EPN6google8protobuf5ArenaE@Base 2.0.0
 _ZN10tensorflow11FeatureListC1ERKS0_@Base 2.0.0
 _ZN10tensorflow11FeatureListC1Ev@Base 2.0.0
 _ZN10tensorflow11FeatureListC2EPN6google8protobuf5ArenaE@Base 2.0.0
 _ZN10tensorflow11FeatureListC2ERKS0_@Base 2.0.0
 _ZN10tensorflow11FeatureListC2Ev@Base 2.0.0
 _ZN10tensorflow11FeatureListD0Ev@Base 2.0.0
 _ZN10tensorflow11FeatureListD1Ev@Base 2.0.0
 _ZN10tensorflow11FeatureListD2Ev@Base 2.0.0
 _ZN10tensorflow11FunctionDef10clear_attrEv@Base 2.0.0
 _ZN10tensorflow11FunctionDef12InternalSwapEPS0_@Base 2.0.0
 _ZN10tensorflow11FunctionDef14_InternalParseEPKcPN6google8protobuf8internal12ParseContextE@Base 2.0.0
 _ZN10tensorflow11FunctionDef14clear_node_defEv@Base 2.0.0
 _ZN10tensorflow11FunctionDef15clear_signatureEv@Base 2.0.0
 _ZN10tensorflow11FunctionDef16default_instanceEv@Base 2.0.0
 _ZN10tensorflow11FunctionDef21InitAsDefaultInstanceEv@Base 2.0.0
 _ZN10tensorflow11FunctionDef36unsafe_arena_set_allocated_signatureEPNS_5OpDefE@Base 2.0.0
 _ZN10tensorflow11FunctionDef5ClearEv@Base 2.0.0
 _ZN10tensorflow11FunctionDef8CopyFromERKN6google8protobuf7MessageE@Base 2.0.0
 _ZN10tensorflow11FunctionDef8CopyFromERKS0_@Base 2.0.0
 _ZN10tensorflow11FunctionDef9ArenaDtorEPv@Base 2.0.0
 _ZN10tensorflow11FunctionDef9MergeFromERKN6google8protobuf7MessageE@Base 2.0.0
 _ZN10tensorflow11FunctionDef9MergeFromERKS0_@Base 2.0.0
 _ZN10tensorflow11FunctionDef9_Internal9signatureEPKS0_@Base 2.0.0
 _ZN10tensorflow11FunctionDefC1EPN6google8protobuf5ArenaE@Base 2.0.0
 _ZN10tensorflow11FunctionDefC1ERKS0_@Base 2.0.0
 _ZN10tensorflow11FunctionDefC1Ev@Base 2.0.0
 _ZN10tensorflow11FunctionDefC2EPN6google8protobuf5ArenaE@Base 2.0.0
 _ZN10tensorflow11FunctionDefC2ERKS0_@Base 2.0.0
 _ZN10tensorflow11FunctionDefC2Ev@Base 2.0.0
 _ZN10tensorflow11FunctionDefD0Ev@Base 2.0.0
 _ZN10tensorflow11FunctionDefD1Ev@Base 2.0.0
 _ZN10tensorflow11FunctionDefD2Ev@Base 2.0.0
 _ZN10tensorflow11GcsDnsCache11ResolveNameERKNSt7__cxx1112basic_stringIcSt11char_traitsIcESaIcEEE@Base 2.0.0
 _ZN10tensorflow11GcsDnsCache12ResolveNamesERKSt6vectorINSt7__cxx1112basic_stringIcSt11char_traitsIcESaIcEEESaIS7_EE@Base 2.0.0
 _ZN10tensorflow11GcsDnsCache12WorkerThreadEv@Base 2.0.0
 _ZN10tensorflow11GcsDnsCache15AnnotateRequestEPNS_11HttpRequestE@Base 2.0.0
 _ZN10tensorflow11GcsDnsCacheC1EPNS_3EnvEx@Base 2.0.0
 _ZN10tensorflow11GcsDnsCacheC2EPNS_3EnvEx@Base 2.0.0
 _ZN10tensorflow11GcsThrottle11UpdateStateEv@Base 2.0.0
 _ZN10tensorflow11GcsThrottle12AdmitRequestEv@Base 2.0.0
 _ZN10tensorflow11GcsThrottle14RecordResponseEm@Base 2.0.0
 _ZN10tensorflow11GcsThrottle9SetConfigENS_17GcsThrottleConfigE@Base 2.0.0
 _ZN10tensorflow11GcsThrottleC1EPNS_7EnvTimeE@Base 2.0.0
 _ZN10tensorflow11GcsThrottleC2EPNS_7EnvTimeE@Base 2.0.0
 _ZN10tensorflow11GetFeaturesINS_7ExampleEEENSt9enable_ifIXsrNS_15TypeHasFeaturesIT_EE5valueEPNS_8FeaturesEE4typeEPS4_@Base 2.0.0
 _ZN10tensorflow11GetFeaturesINS_7ExampleEEENSt9enable_ifIXsrNS_15TypeHasFeaturesIT_EE5valueERKNS_8FeaturesEE4typeERKS4_@Base 2.0.0
 _ZN10tensorflow11GetFeaturesINS_8FeaturesEEENSt9enable_ifIXsrNS_15TypeHasFeaturesIT_EE5valueEPS1_E4typeEPS4_@Base 2.0.0
 _ZN10tensorflow11GetFeaturesINS_8FeaturesEEENSt9enable_ifIXsrNS_15TypeHasFeaturesIT_EE5valueERKS1_E4typeERKS4_@Base 2.0.0
 _ZN10tensorflow11GetNodeAttrERKNS_7NodeDefEN4absl11string_viewEPNS_13MirrorPadModeE@Base 2.0.0
 _ZN10tensorflow11GetNodeAttrERKNS_7NodeDefEN4absl11string_viewEPNS_7PaddingE@Base 2.0.0
 _ZN10tensorflow11GetNodeAttrERKNS_9AttrSliceEN4absl11string_viewEPNS3_13InlinedVectorINS_8DataTypeELm4ESaIS6_EEE@Base 2.0.0
 _ZN10tensorflow11GetNodeAttrERKNS_9AttrSliceEN4absl11string_viewEPNS_11TensorShapeE@Base 2.0.0
 _ZN10tensorflow11GetNodeAttrERKNS_9AttrSliceEN4absl11string_viewEPNS_12NameAttrListE@Base 2.0.0
 _ZN10tensorflow11GetNodeAttrERKNS_9AttrSliceEN4absl11string_viewEPNS_16TensorShapeProtoE@Base 2.0.0
 _ZN10tensorflow11GetNodeAttrERKNS_9AttrSliceEN4absl11string_viewEPNS_18PartialTensorShapeE@Base 2.0.0
 _ZN10tensorflow11GetNodeAttrERKNS_9AttrSliceEN4absl11string_viewEPNS_6TensorE@Base 2.0.0
 _ZN10tensorflow11GetNodeAttrERKNS_9AttrSliceEN4absl11string_viewEPNS_8DataTypeE@Base 2.0.0
 _ZN10tensorflow11GetNodeAttrERKNS_9AttrSliceEN4absl11string_viewEPNSt7__cxx1112basic_stringIcSt11char_traitsIcESaIcEEE@Base 2.0.0
 _ZN10tensorflow11GetNodeAttrERKNS_9AttrSliceEN4absl11string_viewEPPKNS_11TensorProtoE@Base 2.0.0
 _ZN10tensorflow11GetNodeAttrERKNS_9AttrSliceEN4absl11string_viewEPPKNS_12NameAttrListE@Base 2.0.0
 _ZN10tensorflow11GetNodeAttrERKNS_9AttrSliceEN4absl11string_viewEPSt6vectorINS_11TensorShapeESaIS6_EE@Base 2.0.0
 _ZN10tensorflow11GetNodeAttrERKNS_9AttrSliceEN4absl11string_viewEPSt6vectorINS_12NameAttrListESaIS6_EE@Base 2.0.0
 _ZN10tensorflow11GetNodeAttrERKNS_9AttrSliceEN4absl11string_viewEPSt6vectorINS_16TensorShapeProtoESaIS6_EE@Base 2.0.0
 _ZN10tensorflow11GetNodeAttrERKNS_9AttrSliceEN4absl11string_viewEPSt6vectorINS_18PartialTensorShapeESaIS6_EE@Base 2.0.0
 _ZN10tensorflow11GetNodeAttrERKNS_9AttrSliceEN4absl11string_viewEPSt6vectorINS_6TensorESaIS6_EE@Base 2.0.0
 _ZN10tensorflow11GetNodeAttrERKNS_9AttrSliceEN4absl11string_viewEPSt6vectorINS_8DataTypeESaIS6_EE@Base 2.0.0
 _ZN10tensorflow11GetNodeAttrERKNS_9AttrSliceEN4absl11string_viewEPSt6vectorINSt7__cxx1112basic_stringIcSt11char_traitsIcESaIcEEESaISB_EE@Base 2.0.0
 _ZN10tensorflow11GetNodeAttrERKNS_9AttrSliceEN4absl11string_viewEPSt6vectorIbSaIbEE@Base 2.0.0
 _ZN10tensorflow11GetNodeAttrERKNS_9AttrSliceEN4absl11string_viewEPSt6vectorIfSaIfEE@Base 2.0.0
 _ZN10tensorflow11GetNodeAttrERKNS_9AttrSliceEN4absl11string_viewEPSt6vectorIiSaIiEE@Base 2.0.0
 _ZN10tensorflow11GetNodeAttrERKNS_9AttrSliceEN4absl11string_viewEPSt6vectorIxSaIxEE@Base 2.0.0
 _ZN10tensorflow11GetNodeAttrERKNS_9AttrSliceEN4absl11string_viewEPb@Base 2.0.0
 _ZN10tensorflow11GetNodeAttrERKNS_9AttrSliceEN4absl11string_viewEPf@Base 2.0.0
 _ZN10tensorflow11GetNodeAttrERKNS_9AttrSliceEN4absl11string_viewEPi@Base 2.0.0
 _ZN10tensorflow11GetNodeAttrERKNS_9AttrSliceEN4absl11string_viewEPx@Base 2.0.0
 _ZN10tensorflow11GradientDef12InternalSwapEPS0_@Base 2.0.0
 _ZN10tensorflow11GradientDef14_InternalParseEPKcPN6google8protobuf8internal12ParseContextE@Base 2.0.0
 _ZN10tensorflow11GradientDef16default_instanceEv@Base 2.0.0
 _ZN10tensorflow11GradientDef21InitAsDefaultInstanceEv@Base 2.0.0
 _ZN10tensorflow11GradientDef5ClearEv@Base 2.0.0
 _ZN10tensorflow11GradientDef8CopyFromERKN6google8protobuf7MessageE@Base 2.0.0
 _ZN10tensorflow11GradientDef8CopyFromERKS0_@Base 2.0.0
 _ZN10tensorflow11GradientDef9ArenaDtorEPv@Base 2.0.0
 _ZN10tensorflow11GradientDef9MergeFromERKN6google8protobuf7MessageE@Base 2.0.0
 _ZN10tensorflow11GradientDef9MergeFromERKS0_@Base 2.0.0
 _ZN10tensorflow11GradientDefC1EPN6google8protobuf5ArenaE@Base 2.0.0
 _ZN10tensorflow11GradientDefC1ERKS0_@Base 2.0.0
 _ZN10tensorflow11GradientDefC1Ev@Base 2.0.0
 _ZN10tensorflow11GradientDefC2EPN6google8protobuf5ArenaE@Base 2.0.0
 _ZN10tensorflow11GradientDefC2ERKS0_@Base 2.0.0
 _ZN10tensorflow11GradientDefC2Ev@Base 2.0.0
 _ZN10tensorflow11GradientDefD0Ev@Base 2.0.0
 _ZN10tensorflow11GradientDefD1Ev@Base 2.0.0
 _ZN10tensorflow11GradientDefD2Ev@Base 2.0.0
 _ZN10tensorflow11GraphRunner3RunEPNS_5GraphEPNS_22FunctionLibraryRuntimeERKSt6vectorISt4pairINSt7__cxx1112basic_stringIcSt11char_traitsIcESaIcEEENS_6TensorEESaISE_EERKS5_ISC_SaISC_EEPS5_ISD_SaISD_EE@Base 2.0.0
 _ZN10tensorflow11GraphRunnerC1EPNS_3EnvE@Base 2.0.0
 _ZN10tensorflow11GraphRunnerC1EPNS_6DeviceE@Base 2.0.0
 _ZN10tensorflow11GraphRunnerC2EPNS_3EnvE@Base 2.0.0
 _ZN10tensorflow11GraphRunnerC2EPNS_6DeviceE@Base 2.0.0
 _ZN10tensorflow11GraphRunnerD1Ev@Base 2.0.0
 _ZN10tensorflow11GraphRunnerD2Ev@Base 2.0.0
 _ZN10tensorflow11HasNodeAttrERKNS_7NodeDefEN4absl11string_viewE@Base 2.0.0
 _ZN10tensorflow11LoadLibraryEPKcPPvPPKvPm@Base 2.0.0
 _ZN10tensorflow11LocalDevice13global_tp_mu_E@Base 2.0.0
 _ZN10tensorflow11LocalDevice15global_tp_info_E@Base 2.0.0
 _ZN10tensorflow11LocalDevice19EigenThreadPoolInfo14EigenAllocatorD0Ev@Base 2.0.0
 _ZN10tensorflow11LocalDevice19EigenThreadPoolInfo14EigenAllocatorD1Ev@Base 2.0.0
 _ZN10tensorflow11LocalDevice19EigenThreadPoolInfo14EigenAllocatorD2Ev@Base 2.0.0
 _ZN10tensorflow11LocalDevice22use_global_threadpool_E@Base 2.0.0
 _ZN10tensorflow11LocalDeviceC1ERKNS_14SessionOptionsERKNS_16DeviceAttributesE@Base 2.0.0
 _ZN10tensorflow11LocalDeviceC2ERKNS_14SessionOptionsERKNS_16DeviceAttributesE@Base 2.0.0
 _ZN10tensorflow11LocalDeviceD0Ev@Base 2.0.0
 _ZN10tensorflow11LocalDeviceD1Ev@Base 2.0.0
 _ZN10tensorflow11LocalDeviceD2Ev@Base 2.0.0
 _ZN10tensorflow11MatMulBCastC1EN4absl13InlinedVectorIxLm4ESaIxEEES4_@Base 2.0.0
 _ZN10tensorflow11MatMulBCastC2EN4absl13InlinedVectorIxLm4ESaIxEEES4_@Base 2.0.0
 _ZN10tensorflow11MemoryStats12InternalSwapEPS0_@Base 2.0.0
 _ZN10tensorflow11MemoryStats14_InternalParseEPKcPN6google8protobuf8internal12ParseContextE@Base 2.0.0
 _ZN10tensorflow11MemoryStats16default_instanceEv@Base 2.0.0
 _ZN10tensorflow11MemoryStats21InitAsDefaultInstanceEv@Base 2.0.0
 _ZN10tensorflow11MemoryStats5ClearEv@Base 2.0.0
 _ZN10tensorflow11MemoryStats8CopyFromERKN6google8protobuf7MessageE@Base 2.0.0
 _ZN10tensorflow11MemoryStats8CopyFromERKS0_@Base 2.0.0
 _ZN10tensorflow11MemoryStats9ArenaDtorEPv@Base 2.0.0
 _ZN10tensorflow11MemoryStats9MergeFromERKN6google8protobuf7MessageE@Base 2.0.0
 _ZN10tensorflow11MemoryStats9MergeFromERKS0_@Base 2.0.0
 _ZN10tensorflow11MemoryStatsC1EPN6google8protobuf5ArenaE@Base 2.0.0
 _ZN10tensorflow11MemoryStatsC1ERKS0_@Base 2.0.0
 _ZN10tensorflow11MemoryStatsC1Ev@Base 2.0.0
 _ZN10tensorflow11MemoryStatsC2EPN6google8protobuf5ArenaE@Base 2.0.0
 _ZN10tensorflow11MemoryStatsC2ERKS0_@Base 2.0.0
 _ZN10tensorflow11MemoryStatsC2Ev@Base 2.0.0
 _ZN10tensorflow11MemoryStatsD0Ev@Base 2.0.0
 _ZN10tensorflow11MemoryStatsD1Ev@Base 2.0.0
 _ZN10tensorflow11MemoryStatsD2Ev@Base 2.0.0
 _ZN10tensorflow11MetricEntry12InternalSwapEPS0_@Base 2.0.0
 _ZN10tensorflow11MetricEntry14_InternalParseEPKcPN6google8protobuf8internal12ParseContextE@Base 2.0.0
 _ZN10tensorflow11MetricEntry15clear_max_valueEv@Base 2.0.0
 _ZN10tensorflow11MetricEntry15clear_min_valueEv@Base 2.0.0
 _ZN10tensorflow11MetricEntry16default_instanceEv@Base 2.0.0
 _ZN10tensorflow11MetricEntry21InitAsDefaultInstanceEv@Base 2.0.0
 _ZN10tensorflow11MetricEntry36unsafe_arena_set_allocated_max_valueEPN6google8protobuf11DoubleValueE@Base 2.0.0
 _ZN10tensorflow11MetricEntry36unsafe_arena_set_allocated_min_valueEPN6google8protobuf11DoubleValueE@Base 2.0.0
 _ZN10tensorflow11MetricEntry5ClearEv@Base 2.0.0
 _ZN10tensorflow11MetricEntry8CopyFromERKN6google8protobuf7MessageE@Base 2.0.0
 _ZN10tensorflow11MetricEntry8CopyFromERKS0_@Base 2.0.0
 _ZN10tensorflow11MetricEntry9ArenaDtorEPv@Base 2.0.0
 _ZN10tensorflow11MetricEntry9MergeFromERKN6google8protobuf7MessageE@Base 2.0.0
 _ZN10tensorflow11MetricEntry9MergeFromERKS0_@Base 2.0.0
 _ZN10tensorflow11MetricEntry9_Internal9max_valueEPKS0_@Base 2.0.0
 _ZN10tensorflow11MetricEntry9_Internal9min_valueEPKS0_@Base 2.0.0
 _ZN10tensorflow11MetricEntryC1EPN6google8protobuf5ArenaE@Base 2.0.0
 _ZN10tensorflow11MetricEntryC1ERKS0_@Base 2.0.0
 _ZN10tensorflow11MetricEntryC1Ev@Base 2.0.0
 _ZN10tensorflow11MetricEntryC2EPN6google8protobuf5ArenaE@Base 2.0.0
 _ZN10tensorflow11MetricEntryC2ERKS0_@Base 2.0.0
 _ZN10tensorflow11MetricEntryC2Ev@Base 2.0.0
 _ZN10tensorflow11MetricEntryD0Ev@Base 2.0.0
 _ZN10tensorflow11MetricEntryD1Ev@Base 2.0.0
 _ZN10tensorflow11MetricEntryD2Ev@Base 2.0.0
 _ZN10tensorflow11NamedDevice12InternalSwapEPS0_@Base 2.0.0
 _ZN10tensorflow11NamedDevice14_InternalParseEPKcPN6google8protobuf8internal12ParseContextE@Base 2.0.0
 _ZN10tensorflow11NamedDevice16default_instanceEv@Base 2.0.0
 _ZN10tensorflow11NamedDevice21InitAsDefaultInstanceEv@Base 2.0.0
 _ZN10tensorflow11NamedDevice37unsafe_arena_set_allocated_propertiesEPNS_16DevicePropertiesE@Base 2.0.0
 _ZN10tensorflow11NamedDevice5ClearEv@Base 2.0.0
 _ZN10tensorflow11NamedDevice8CopyFromERKN6google8protobuf7MessageE@Base 2.0.0
 _ZN10tensorflow11NamedDevice8CopyFromERKS0_@Base 2.0.0
 _ZN10tensorflow11NamedDevice9ArenaDtorEPv@Base 2.0.0
 _ZN10tensorflow11NamedDevice9MergeFromERKN6google8protobuf7MessageE@Base 2.0.0
 _ZN10tensorflow11NamedDevice9MergeFromERKS0_@Base 2.0.0
 _ZN10tensorflow11NamedDevice9_Internal10propertiesEPKS0_@Base 2.0.0
 _ZN10tensorflow11NamedDeviceC1EPN6google8protobuf5ArenaE@Base 2.0.0
 _ZN10tensorflow11NamedDeviceC1ERKS0_@Base 2.0.0
 _ZN10tensorflow11NamedDeviceC1Ev@Base 2.0.0
 _ZN10tensorflow11NamedDeviceC2EPN6google8protobuf5ArenaE@Base 2.0.0
 _ZN10tensorflow11NamedDeviceC2ERKS0_@Base 2.0.0
 _ZN10tensorflow11NamedDeviceC2Ev@Base 2.0.0
 _ZN10tensorflow11NamedDeviceD0Ev@Base 2.0.0
 _ZN10tensorflow11NamedDeviceD1Ev@Base 2.0.0
 _ZN10tensorflow11NamedDeviceD2Ev@Base 2.0.0
 _ZN10tensorflow11NewExecutorERKNSt7__cxx1112basic_stringIcSt11char_traitsIcESaIcEEERKNS_19LocalExecutorParamsESt10unique_ptrIKNS_5GraphESt14default_deleteISD_EEPSB_INS_8ExecutorESE_ISH_EE@Base 2.0.0
 _ZN10tensorflow11NodeBuilder10XlaClusterEN4absl11string_viewE@Base 2.0.0
 _ZN10tensorflow11NodeBuilder12ControlInputEPNS_4NodeE@Base 2.0.0
 _ZN10tensorflow11NodeBuilder13AddIndexErrorEPKNS_4NodeEi@Base 2.0.0
 _ZN10tensorflow11NodeBuilder13ControlInputsEN4absl4SpanIKPNS_4NodeEEE@Base 2.0.0
 _ZN10tensorflow11NodeBuilder13GetOutputTypeEPKNS_4NodeEiPNS_8DataTypeE@Base 2.0.0
 _ZN10tensorflow11NodeBuilder14AssignedDeviceEN4absl11string_viewE@Base 2.0.0
 _ZN10tensorflow11NodeBuilder5InputEN4absl4SpanIKNS0_7NodeOutEEE@Base 2.0.0
 _ZN10tensorflow11NodeBuilder5InputENS0_7NodeOutE@Base 2.0.0
 _ZN10tensorflow11NodeBuilder5InputEPNS_4NodeEi@Base 2.0.0
 _ZN10tensorflow11NodeBuilder6DeviceEN4absl11string_viewE@Base 2.0.0
 _ZN10tensorflow11NodeBuilder7NodeOutC1EN4absl11string_viewEiNS_8DataTypeE@Base 2.0.0
 _ZN10tensorflow11NodeBuilder7NodeOutC1ENS_12OutputTensorE@Base 2.0.0
 _ZN10tensorflow11NodeBuilder7NodeOutC1EPNS_4NodeEi@Base 2.0.0
 _ZN10tensorflow11NodeBuilder7NodeOutC1Ev@Base 2.0.0
 _ZN10tensorflow11NodeBuilder7NodeOutC2EN4absl11string_viewEiNS_8DataTypeE@Base 2.0.0
 _ZN10tensorflow11NodeBuilder7NodeOutC2ENS_12OutputTensorE@Base 2.0.0
 _ZN10tensorflow11NodeBuilder7NodeOutC2EPNS_4NodeEi@Base 2.0.0
 _ZN10tensorflow11NodeBuilder7NodeOutC2Ev@Base 2.0.0
 _ZN10tensorflow11NodeBuilder8FinalizeEPNS_5GraphEPPNS_4NodeEb@Base 2.0.0
 _ZN10tensorflow11NodeBuilderC1EN4absl11string_viewEPKNS_5OpDefE@Base 2.0.0
 _ZN10tensorflow11NodeBuilderC1EN4absl11string_viewES2_PKNS_19OpRegistryInterfaceEPKNS_13NodeDebugInfoE@Base 2.0.0
 _ZN10tensorflow11NodeBuilderC1ERKNS_14NodeDefBuilderE@Base 2.0.0
 _ZN10tensorflow11NodeBuilderC2EN4absl11string_viewEPKNS_5OpDefE@Base 2.0.0
 _ZN10tensorflow11NodeBuilderC2EN4absl11string_viewES2_PKNS_19OpRegistryInterfaceEPKNS_13NodeDebugInfoE@Base 2.0.0
 _ZN10tensorflow11NodeBuilderC2ERKNS_14NodeDefBuilderE@Base 2.0.0
 _ZN10tensorflow11NodeBuilderD1Ev@Base 2.0.0
 _ZN10tensorflow11NodeBuilderD2Ev@Base 2.0.0
 _ZN10tensorflow11NodeDefHashERKNS_7NodeDefERKNS_20EqualGraphDefOptionsE@Base 2.0.0
 _ZN10tensorflow11NoopRounder7RoundUpEm@Base 2.0.0
 _ZN10tensorflow11NoopRounderD0Ev@Base 2.0.0
 _ZN10tensorflow11NoopRounderD1Ev@Base 2.0.0
 _ZN10tensorflow11NoopRounderD2Ev@Base 2.0.0
 _ZN10tensorflow11OAuthClient18ParseOAuthResponseEN4absl11string_viewEyPNSt7__cxx1112basic_stringIcSt11char_traitsIcESaIcEEEPy@Base 2.0.0
 _ZN10tensorflow11OAuthClient28GetTokenFromRefreshTokenJsonEN4Json5ValueEN4absl11string_viewEPNSt7__cxx1112basic_stringIcSt11char_traitsIcESaIcEEEPy@Base 2.0.0
 _ZN10tensorflow11OAuthClient30GetTokenFromServiceAccountJsonEN4Json5ValueEN4absl11string_viewES4_PNSt7__cxx1112basic_stringIcSt11char_traitsIcESaIcEEEPy@Base 2.0.0
 _ZN10tensorflow11OAuthClientC1ESt10unique_ptrINS_11HttpRequest7FactoryESt14default_deleteIS3_EEPNS_3EnvE@Base 2.0.0
 _ZN10tensorflow11OAuthClientC1Ev@Base 2.0.0
 _ZN10tensorflow11OAuthClientC2ESt10unique_ptrINS_11HttpRequest7FactoryESt14default_deleteIS3_EEPNS_3EnvE@Base 2.0.0
 _ZN10tensorflow11OAuthClientC2Ev@Base 2.0.0
 _ZN10tensorflow11OAuthClientD0Ev@Base 2.0.0
 _ZN10tensorflow11OAuthClientD1Ev@Base 2.0.0
 _ZN10tensorflow11OAuthClientD2Ev@Base 2.0.0
 _ZN10tensorflow11OptimizeCSEEPNS_5GraphERKSt8functionIFbPKNS_4NodeEEE@Base 2.0.0
 _ZN10tensorflow11PrepareCopyEPNS_6DeviceEPKNS_13DeviceContextERKNS_6TensorEPS6_PPKNS_10DeviceBase13GpuDeviceInfoEPPN15stream_executor6StreamE@Base 2.0.0
 _ZN10tensorflow11PrintMemoryB5cxx11EPKcm@Base 2.0.0
 _ZN10tensorflow11ResourceMgr19InsertDebugTypeNameEyRKNSt7__cxx1112basic_stringIcSt11char_traitsIcESaIcEEE@Base 2.0.0
 _ZN10tensorflow11ResourceMgr5ClearEv@Base 2.0.0
 _ZN10tensorflow11ResourceMgr6DeleteERKNS_14ResourceHandleE@Base 2.0.0
 _ZN10tensorflow11ResourceMgr7CleanupERKNSt7__cxx1112basic_stringIcSt11char_traitsIcESaIcEEE@Base 2.0.0
 _ZN10tensorflow11ResourceMgr8DoCreateERKNSt7__cxx1112basic_stringIcSt11char_traitsIcESaIcEEESt10type_indexS8_PNS_12ResourceBaseE@Base 2.0.0
 _ZN10tensorflow11ResourceMgr8DoDeleteERKNSt7__cxx1112basic_stringIcSt11char_traitsIcESaIcEEESt10type_indexS8_@Base 2.0.0
 _ZN10tensorflow11ResourceMgr8DoDeleteERKNSt7__cxx1112basic_stringIcSt11char_traitsIcESaIcEEEyS8_S8_@Base 2.0.0
 _ZN10tensorflow11ResourceMgrC1ERKNSt7__cxx1112basic_stringIcSt11char_traitsIcESaIcEEE@Base 2.0.0
 _ZN10tensorflow11ResourceMgrC1Ev@Base 2.0.0
 _ZN10tensorflow11ResourceMgrC2ERKNSt7__cxx1112basic_stringIcSt11char_traitsIcESaIcEEE@Base 2.0.0
 _ZN10tensorflow11ResourceMgrC2Ev@Base 2.0.0
 _ZN10tensorflow11ResourceMgrD1Ev@Base 2.0.0
 _ZN10tensorflow11ResourceMgrD2Ev@Base 2.0.0
 _ZN10tensorflow11RingReducer13InitRingFieldEPNS_7RingAlg9RingFieldEiii@Base 2.0.0
 _ZN10tensorflow11RingReducer13RunAsyncPartsEv@Base 2.0.0
 _ZN10tensorflow11RingReducer22ContinueAfterInputCopyEv@Base 2.0.0
 _ZN10tensorflow11RingReducer26InitializeCollectiveParamsEPNS_16CollectiveParamsE@Base 2.0.0
 _ZN10tensorflow11RingReducer3RunESt8functionIFvRKNS_6StatusEEE@Base 2.0.0
 _ZN10tensorflow11RingReducerD0Ev@Base 2.0.0
 _ZN10tensorflow11RingReducerD1Ev@Base 2.0.0
 _ZN10tensorflow11RingReducerD2Ev@Base 2.0.0
 _ZN10tensorflow11RunMetadata12InternalSwapEPS0_@Base 2.0.0
 _ZN10tensorflow11RunMetadata14_InternalParseEPKcPN6google8protobuf8internal12ParseContextE@Base 2.0.0
 _ZN10tensorflow11RunMetadata16clear_cost_graphEv@Base 2.0.0
 _ZN10tensorflow11RunMetadata16clear_step_statsEv@Base 2.0.0
 _ZN10tensorflow11RunMetadata16default_instanceEv@Base 2.0.0
 _ZN10tensorflow11RunMetadata21InitAsDefaultInstanceEv@Base 2.0.0
 _ZN10tensorflow11RunMetadata22clear_partition_graphsEv@Base 2.0.0
 _ZN10tensorflow11RunMetadata37unsafe_arena_set_allocated_cost_graphEPNS_12CostGraphDefE@Base 2.0.0
 _ZN10tensorflow11RunMetadata37unsafe_arena_set_allocated_step_statsEPNS_9StepStatsE@Base 2.0.0
 _ZN10tensorflow11RunMetadata5ClearEv@Base 2.0.0
 _ZN10tensorflow11RunMetadata8CopyFromERKN6google8protobuf7MessageE@Base 2.0.0
 _ZN10tensorflow11RunMetadata8CopyFromERKS0_@Base 2.0.0
 _ZN10tensorflow11RunMetadata9ArenaDtorEPv@Base 2.0.0
 _ZN10tensorflow11RunMetadata9MergeFromERKN6google8protobuf7MessageE@Base 2.0.0
 _ZN10tensorflow11RunMetadata9MergeFromERKS0_@Base 2.0.0
 _ZN10tensorflow11RunMetadata9_Internal10cost_graphEPKS0_@Base 2.0.0
 _ZN10tensorflow11RunMetadata9_Internal10step_statsEPKS0_@Base 2.0.0
 _ZN10tensorflow11RunMetadataC1EPN6google8protobuf5ArenaE@Base 2.0.0
 _ZN10tensorflow11RunMetadataC1ERKS0_@Base 2.0.0
 _ZN10tensorflow11RunMetadataC1Ev@Base 2.0.0
 _ZN10tensorflow11RunMetadataC2EPN6google8protobuf5ArenaE@Base 2.0.0
 _ZN10tensorflow11RunMetadataC2ERKS0_@Base 2.0.0
 _ZN10tensorflow11RunMetadataC2Ev@Base 2.0.0
 _ZN10tensorflow11RunMetadataD0Ev@Base 2.0.0
 _ZN10tensorflow11RunMetadataD1Ev@Base 2.0.0
 _ZN10tensorflow11RunMetadataD2Ev@Base 2.0.0
 _ZN10tensorflow11SavedObject10clear_kindEv@Base 2.0.0
 _ZN10tensorflow11SavedObject12InternalSwapEPS0_@Base 2.0.0
 _ZN10tensorflow11SavedObject14_InternalParseEPKcPN6google8protobuf8internal12ParseContextE@Base 2.0.0
 _ZN10tensorflow11SavedObject14clear_childrenEv@Base 2.0.0
 _ZN10tensorflow11SavedObject16default_instanceEv@Base 2.0.0
 _ZN10tensorflow11SavedObject19set_allocated_assetEPNS_10SavedAssetE@Base 2.0.0
 _ZN10tensorflow11SavedObject20clear_slot_variablesEv@Base 2.0.0
 _ZN10tensorflow11SavedObject21InitAsDefaultInstanceEv@Base 2.0.0
 _ZN10tensorflow11SavedObject22set_allocated_constantEPNS_13SavedConstantE@Base 2.0.0
 _ZN10tensorflow11SavedObject22set_allocated_functionEPNS_13SavedFunctionE@Base 2.0.0
 _ZN10tensorflow11SavedObject22set_allocated_resourceEPNS_13SavedResourceE@Base 2.0.0
 _ZN10tensorflow11SavedObject22set_allocated_variableEPNS_13SavedVariableE@Base 2.0.0
 _ZN10tensorflow11SavedObject25set_allocated_user_objectEPNS_15SavedUserObjectE@Base 2.0.0
 _ZN10tensorflow11SavedObject36set_allocated_bare_concrete_functionEPNS_25SavedBareConcreteFunctionE@Base 2.0.0
 _ZN10tensorflow11SavedObject5ClearEv@Base 2.0.0
 _ZN10tensorflow11SavedObject8CopyFromERKN6google8protobuf7MessageE@Base 2.0.0
 _ZN10tensorflow11SavedObject8CopyFromERKS0_@Base 2.0.0
 _ZN10tensorflow11SavedObject9ArenaDtorEPv@Base 2.0.0
 _ZN10tensorflow11SavedObject9MergeFromERKN6google8protobuf7MessageE@Base 2.0.0
 _ZN10tensorflow11SavedObject9MergeFromERKS0_@Base 2.0.0
 _ZN10tensorflow11SavedObject9_Internal11user_objectEPKS0_@Base 2.0.0
 _ZN10tensorflow11SavedObject9_Internal22bare_concrete_functionEPKS0_@Base 2.0.0
 _ZN10tensorflow11SavedObject9_Internal5assetEPKS0_@Base 2.0.0
 _ZN10tensorflow11SavedObject9_Internal8constantEPKS0_@Base 2.0.0
 _ZN10tensorflow11SavedObject9_Internal8functionEPKS0_@Base 2.0.0
 _ZN10tensorflow11SavedObject9_Internal8resourceEPKS0_@Base 2.0.0
 _ZN10tensorflow11SavedObject9_Internal8variableEPKS0_@Base 2.0.0
 _ZN10tensorflow11SavedObjectC1EPN6google8protobuf5ArenaE@Base 2.0.0
 _ZN10tensorflow11SavedObjectC1ERKS0_@Base 2.0.0
 _ZN10tensorflow11SavedObjectC1Ev@Base 2.0.0
 _ZN10tensorflow11SavedObjectC2EPN6google8protobuf5ArenaE@Base 2.0.0
 _ZN10tensorflow11SavedObjectC2ERKS0_@Base 2.0.0
 _ZN10tensorflow11SavedObjectC2Ev@Base 2.0.0
 _ZN10tensorflow11SavedObjectD0Ev@Base 2.0.0
 _ZN10tensorflow11SavedObjectD1Ev@Base 2.0.0
 _ZN10tensorflow11SavedObjectD2Ev@Base 2.0.0
 _ZN10tensorflow11SessionInfo12InternalSwapEPS0_@Base 2.0.0
 _ZN10tensorflow11SessionInfo14_InternalParseEPKcPN6google8protobuf8internal12ParseContextE@Base 2.0.0
 _ZN10tensorflow11SessionInfo16default_instanceEv@Base 2.0.0
 _ZN10tensorflow11SessionInfo21InitAsDefaultInstanceEv@Base 2.0.0
 _ZN10tensorflow11SessionInfo5ClearEv@Base 2.0.0
 _ZN10tensorflow11SessionInfo8CopyFromERKN6google8protobuf7MessageE@Base 2.0.0
 _ZN10tensorflow11SessionInfo8CopyFromERKS0_@Base 2.0.0
 _ZN10tensorflow11SessionInfo9ArenaDtorEPv@Base 2.0.0
 _ZN10tensorflow11SessionInfo9MergeFromERKN6google8protobuf7MessageE@Base 2.0.0
 _ZN10tensorflow11SessionInfo9MergeFromERKS0_@Base 2.0.0
 _ZN10tensorflow11SessionInfoC1EPN6google8protobuf5ArenaE@Base 2.0.0
 _ZN10tensorflow11SessionInfoC1ERKS0_@Base 2.0.0
 _ZN10tensorflow11SessionInfoC1Ev@Base 2.0.0
 _ZN10tensorflow11SessionInfoC2EPN6google8protobuf5ArenaE@Base 2.0.0
 _ZN10tensorflow11SessionInfoC2ERKS0_@Base 2.0.0
 _ZN10tensorflow11SessionInfoC2Ev@Base 2.0.0
 _ZN10tensorflow11SessionInfoD0Ev@Base 2.0.0
 _ZN10tensorflow11SessionInfoD1Ev@Base 2.0.0
 _ZN10tensorflow11SessionInfoD2Ev@Base 2.0.0
 _ZN10tensorflow11StatusGroup11MakeDerivedERKNS_6StatusE@Base 2.0.0
 _ZN10tensorflow11StatusGroup17AttachLogMessagesEv@Base 2.0.0
 _ZN10tensorflow11StatusGroup19ConfigureLogHistoryEv@Base 2.0.0
 _ZN10tensorflow11StatusGroup6UpdateERKNS_6StatusE@Base 2.0.0
 _ZN10tensorflow11StatusGroup9IsDerivedERKNS_6StatusE@Base 2.0.0
 _ZN10tensorflow11TensorProto12InternalSwapEPS0_@Base 2.0.0
 _ZN10tensorflow11TensorProto14_InternalParseEPKcPN6google8protobuf8internal12ParseContextE@Base 2.0.0
 _ZN10tensorflow11TensorProto16default_instanceEv@Base 2.0.0
 _ZN10tensorflow11TensorProto18clear_tensor_shapeEv@Base 2.0.0
 _ZN10tensorflow11TensorProto21InitAsDefaultInstanceEv@Base 2.0.0
 _ZN10tensorflow11TensorProto25clear_resource_handle_valEv@Base 2.0.0
 _ZN10tensorflow11TensorProto39unsafe_arena_set_allocated_tensor_shapeEPNS_16TensorShapeProtoE@Base 2.0.0
 _ZN10tensorflow11TensorProto5ClearEv@Base 2.0.0
 _ZN10tensorflow11TensorProto8CopyFromERKN6google8protobuf7MessageE@Base 2.0.0
 _ZN10tensorflow11TensorProto8CopyFromERKS0_@Base 2.0.0
 _ZN10tensorflow11TensorProto9ArenaDtorEPv@Base 2.0.0
 _ZN10tensorflow11TensorProto9MergeFromERKN6google8protobuf7MessageE@Base 2.0.0
 _ZN10tensorflow11TensorProto9MergeFromERKS0_@Base 2.0.0
 _ZN10tensorflow11TensorProto9_Internal12tensor_shapeEPKS0_@Base 2.0.0
 _ZN10tensorflow11TensorProtoC1EPN6google8protobuf5ArenaE@Base 2.0.0
 _ZN10tensorflow11TensorProtoC1ERKS0_@Base 2.0.0
 _ZN10tensorflow11TensorProtoC1Ev@Base 2.0.0
 _ZN10tensorflow11TensorProtoC2EPN6google8protobuf5ArenaE@Base 2.0.0
 _ZN10tensorflow11TensorProtoC2ERKS0_@Base 2.0.0
 _ZN10tensorflow11TensorProtoC2Ev@Base 2.0.0
 _ZN10tensorflow11TensorProtoD0Ev@Base 2.0.0
 _ZN10tensorflow11TensorProtoD1Ev@Base 2.0.0
 _ZN10tensorflow11TensorProtoD2Ev@Base 2.0.0
 _ZN10tensorflow11TensorSlice11kFullExtentE@Base 2.0.0
 _ZN10tensorflow11TensorSlice12SetFullSliceEi@Base 2.0.0
 _ZN10tensorflow11TensorSlice13UpdateToCoverERKS0_@Base 2.0.0
 _ZN10tensorflow11TensorSlice15GetExtentLengthERKNS_23TensorSliceProto_ExtentE@Base 2.0.0
 _ZN10tensorflow11TensorSlice15HasExtentLengthERKNS_23TensorSliceProto_ExtentE@Base 2.0.0
 _ZN10tensorflow11TensorSlice5ClearEv@Base 2.0.0
 _ZN10tensorflow11TensorSlice5ParseERKNSt7__cxx1112basic_stringIcSt11char_traitsIcESaIcEEEPS0_@Base 2.0.0
 _ZN10tensorflow11TensorSlice6ExtendEi@Base 2.0.0
 _ZN10tensorflow11TensorSliceC1ERKNS_16TensorSliceProtoE@Base 2.0.0
 _ZN10tensorflow11TensorSliceC1ESt16initializer_listISt4pairIxxEE@Base 2.0.0
 _ZN10tensorflow11TensorSliceC1Ei@Base 2.0.0
 _ZN10tensorflow11TensorSliceC2ERKNS_16TensorSliceProtoE@Base 2.0.0
 _ZN10tensorflow11TensorSliceC2ESt16initializer_listISt4pairIxxEE@Base 2.0.0
 _ZN10tensorflow11TensorSliceC2Ei@Base 2.0.0
 _ZN10tensorflow11TensorSliceD1Ev@Base 2.0.0
 _ZN10tensorflow11TensorSliceD2Ev@Base 2.0.0
 _ZN10tensorflow11TensorStore11SaveTensorsERKSt6vectorINSt7__cxx1112basic_stringIcSt11char_traitsIcESaIcEEESaIS7_EEPNS_12SessionStateE@Base 2.0.0
 _ZN10tensorflow11TensorStore9AddTensorERKNSt7__cxx1112basic_stringIcSt11char_traitsIcESaIcEEERKNS0_12TensorAndKeyE@Base 2.0.0
 _ZN10tensorflow11TestResults12InternalSwapEPS0_@Base 2.0.0
 _ZN10tensorflow11TestResults14_InternalParseEPKcPN6google8protobuf8internal12ParseContextE@Base 2.0.0
 _ZN10tensorflow11TestResults16PYTHON_BENCHMARKE@Base 2.0.0
 _ZN10tensorflow11TestResults16default_instanceEv@Base 2.0.0
 _ZN10tensorflow11TestResults17ANDROID_BENCHMARKE@Base 2.0.0
 _ZN10tensorflow11TestResults17BenchmarkType_MAXE@Base 2.0.0
 _ZN10tensorflow11TestResults17BenchmarkType_MINE@Base 2.0.0
 _ZN10tensorflow11TestResults18CPP_MICROBENCHMARKE@Base 2.0.0
 _ZN10tensorflow11TestResults21InitAsDefaultInstanceEv@Base 2.0.0
 _ZN10tensorflow11TestResults23BenchmarkType_ARRAYSIZEE@Base 2.0.0
 _ZN10tensorflow11TestResults34unsafe_arena_set_allocated_entriesEPNS_16BenchmarkEntriesE@Base 2.0.0
 _ZN10tensorflow11TestResults36unsafe_arena_set_allocated_commit_idEPNS_8CommitIdE@Base 2.0.0
 _ZN10tensorflow11TestResults44unsafe_arena_set_allocated_run_configurationEPNS_16RunConfigurationE@Base 2.0.0
 _ZN10tensorflow11TestResults46unsafe_arena_set_allocated_build_configurationEPNS_18BuildConfigurationE@Base 2.0.0
 _ZN10tensorflow11TestResults48unsafe_arena_set_allocated_machine_configurationEPNS_20MachineConfigurationE@Base 2.0.0
 _ZN10tensorflow11TestResults5ClearEv@Base 2.0.0
 _ZN10tensorflow11TestResults7UNKNOWNE@Base 2.0.0
 _ZN10tensorflow11TestResults8CopyFromERKN6google8protobuf7MessageE@Base 2.0.0
 _ZN10tensorflow11TestResults8CopyFromERKS0_@Base 2.0.0
 _ZN10tensorflow11TestResults9ArenaDtorEPv@Base 2.0.0
 _ZN10tensorflow11TestResults9MergeFromERKN6google8protobuf7MessageE@Base 2.0.0
 _ZN10tensorflow11TestResults9MergeFromERKS0_@Base 2.0.0
 _ZN10tensorflow11TestResults9_Internal17run_configurationEPKS0_@Base 2.0.0
 _ZN10tensorflow11TestResults9_Internal19build_configurationEPKS0_@Base 2.0.0
 _ZN10tensorflow11TestResults9_Internal21machine_configurationEPKS0_@Base 2.0.0
 _ZN10tensorflow11TestResults9_Internal7entriesEPKS0_@Base 2.0.0
 _ZN10tensorflow11TestResults9_Internal9commit_idEPKS0_@Base 2.0.0
 _ZN10tensorflow11TestResultsC1EPN6google8protobuf5ArenaE@Base 2.0.0
 _ZN10tensorflow11TestResultsC1ERKS0_@Base 2.0.0
 _ZN10tensorflow11TestResultsC1Ev@Base 2.0.0
 _ZN10tensorflow11TestResultsC2EPN6google8protobuf5ArenaE@Base 2.0.0
 _ZN10tensorflow11TestResultsC2ERKS0_@Base 2.0.0
 _ZN10tensorflow11TestResultsC2Ev@Base 2.0.0
 _ZN10tensorflow11TestResultsD0Ev@Base 2.0.0
 _ZN10tensorflow11TestResultsD1Ev@Base 2.0.0
 _ZN10tensorflow11TestResultsD2Ev@Base 2.0.0
 _ZN10tensorflow11VariableDef12InternalSwapEPS0_@Base 2.0.0
 _ZN10tensorflow11VariableDef14_InternalParseEPKcPN6google8protobuf8internal12ParseContextE@Base 2.0.0
 _ZN10tensorflow11VariableDef16default_instanceEv@Base 2.0.0
 _ZN10tensorflow11VariableDef21InitAsDefaultInstanceEv@Base 2.0.0
 _ZN10tensorflow11VariableDef46unsafe_arena_set_allocated_save_slice_info_defEPNS_16SaveSliceInfoDefE@Base 2.0.0
 _ZN10tensorflow11VariableDef5ClearEv@Base 2.0.0
 _ZN10tensorflow11VariableDef8CopyFromERKN6google8protobuf7MessageE@Base 2.0.0
 _ZN10tensorflow11VariableDef8CopyFromERKS0_@Base 2.0.0
 _ZN10tensorflow11VariableDef9ArenaDtorEPv@Base 2.0.0
 _ZN10tensorflow11VariableDef9MergeFromERKN6google8protobuf7MessageE@Base 2.0.0
 _ZN10tensorflow11VariableDef9MergeFromERKS0_@Base 2.0.0
 _ZN10tensorflow11VariableDef9_Internal19save_slice_info_defEPKS0_@Base 2.0.0
 _ZN10tensorflow11VariableDefC1EPN6google8protobuf5ArenaE@Base 2.0.0
 _ZN10tensorflow11VariableDefC1ERKS0_@Base 2.0.0
 _ZN10tensorflow11VariableDefC1Ev@Base 2.0.0
 _ZN10tensorflow11VariableDefC2EPN6google8protobuf5ArenaE@Base 2.0.0
 _ZN10tensorflow11VariableDefC2ERKS0_@Base 2.0.0
 _ZN10tensorflow11VariableDefC2Ev@Base 2.0.0
 _ZN10tensorflow11VariableDefD0Ev@Base 2.0.0
 _ZN10tensorflow11VariableDefD1Ev@Base 2.0.0
 _ZN10tensorflow11VariableDefD2Ev@Base 2.0.0
 _ZN10tensorflow11register_op20OpDefBuilderReceiverC1ERKNS0_19OpDefBuilderWrapperILb1EEE@Base 2.0.0
 _ZN10tensorflow11register_op20OpDefBuilderReceiverC2ERKNS0_19OpDefBuilderWrapperILb1EEE@Base 2.0.0
 _ZN10tensorflow12AssetFileDef12InternalSwapEPS0_@Base 2.0.0
 _ZN10tensorflow12AssetFileDef14_InternalParseEPKcPN6google8protobuf8internal12ParseContextE@Base 2.0.0
 _ZN10tensorflow12AssetFileDef16default_instanceEv@Base 2.0.0
 _ZN10tensorflow12AssetFileDef21InitAsDefaultInstanceEv@Base 2.0.0
 _ZN10tensorflow12AssetFileDef38unsafe_arena_set_allocated_tensor_infoEPNS_10TensorInfoE@Base 2.0.0
 _ZN10tensorflow12AssetFileDef5ClearEv@Base 2.0.0
 _ZN10tensorflow12AssetFileDef8CopyFromERKN6google8protobuf7MessageE@Base 2.0.0
 _ZN10tensorflow12AssetFileDef8CopyFromERKS0_@Base 2.0.0
 _ZN10tensorflow12AssetFileDef9ArenaDtorEPv@Base 2.0.0
 _ZN10tensorflow12AssetFileDef9MergeFromERKN6google8protobuf7MessageE@Base 2.0.0
 _ZN10tensorflow12AssetFileDef9MergeFromERKS0_@Base 2.0.0
 _ZN10tensorflow12AssetFileDef9_Internal11tensor_infoEPKS0_@Base 2.0.0
 _ZN10tensorflow12AssetFileDefC1EPN6google8protobuf5ArenaE@Base 2.0.0
 _ZN10tensorflow12AssetFileDefC1ERKS0_@Base 2.0.0
 _ZN10tensorflow12AssetFileDefC1Ev@Base 2.0.0
 _ZN10tensorflow12AssetFileDefC2EPN6google8protobuf5ArenaE@Base 2.0.0
 _ZN10tensorflow12AssetFileDefC2ERKS0_@Base 2.0.0
 _ZN10tensorflow12AssetFileDefC2Ev@Base 2.0.0
 _ZN10tensorflow12AssetFileDefD0Ev@Base 2.0.0
 _ZN10tensorflow12AssetFileDefD1Ev@Base 2.0.0
 _ZN10tensorflow12AssetFileDefD2Ev@Base 2.0.0
 _ZN10tensorflow12AttrDefEqualERKNS_13OpDef_AttrDefES2_@Base 2.0.0
 _ZN10tensorflow12BFCAllocator10ClearStatsEv@Base 2.0.0
 _ZN10tensorflow12BFCAllocator10SplitChunkEmm@Base 2.0.0
 _ZN10tensorflow12BFCAllocator11AllocateRawEmm@Base 2.0.0
 _ZN10tensorflow12BFCAllocator11AllocateRawEmmRKNS_20AllocationAttributesE@Base 2.0.0
 _ZN10tensorflow12BFCAllocator11DeleteChunkEm@Base 2.0.0
 _ZN10tensorflow12BFCAllocator12FindChunkPtrEimmy@Base 2.0.0
 _ZN10tensorflow12BFCAllocator12RoundedBytesEm@Base 2.0.0
 _ZN10tensorflow12BFCAllocator13AllocateChunkEv@Base 2.0.0
 _ZN10tensorflow12BFCAllocator13DeallocateRawEPv@Base 2.0.0
 _ZN10tensorflow12BFCAllocator13DumpMemoryLogEm@Base 2.0.0
 _ZN10tensorflow12BFCAllocator13RegionManager10ComparatorEPKvRKNS0_16AllocationRegionE@Base 2.0.0
 _ZN10tensorflow12BFCAllocator13TryToCoalesceEmb@Base 2.0.0
 _ZN10tensorflow12BFCAllocator15ChunkFromHandleEm@Base 2.0.0
 _ZN10tensorflow12BFCAllocator15DeallocateChunkEm@Base 2.0.0
 _ZN10tensorflow12BFCAllocator15RenderOccupancyB5cxx11Ev@Base 2.0.0
 _ZN10tensorflow12BFCAllocator15SetSafeFrontierEy@Base 2.0.0
 _ZN10tensorflow12BFCAllocator17DeallocateRegionsERKN4absl13flat_hash_setIPvNS1_18container_internal6HashEqIS3_vE4HashENS6_2EqESaIS3_EEE@Base 2.0.0
 _ZN10tensorflow12BFCAllocator18get_bin_debug_infoEv@Base 2.0.0
 _ZN10tensorflow12BFCAllocator19AllocateRawInternalEmmby@Base 2.0.0
 _ZN10tensorflow12BFCAllocator21DeallocateFreeRegionsEm@Base 2.0.0
 _ZN10tensorflow12BFCAllocator21DeallocateRawInternalEPv@Base 2.0.0
 _ZN10tensorflow12BFCAllocator22InsertFreeChunkIntoBinEm@Base 2.0.0
 _ZN10tensorflow12BFCAllocator22MergeTimestampedChunksEm@Base 2.0.0
 _ZN10tensorflow12BFCAllocator22RemoveFreeChunkFromBinEm@Base 2.0.0
 _ZN10tensorflow12BFCAllocator26RemoveFreeChunkIterFromBinEPSt3setImNS0_3Bin15ChunkComparatorESaImEERKSt23_Rb_tree_const_iteratorImE@Base 2.0.0
 _ZN10tensorflow12BFCAllocator28AllocateRawInternalWithRetryEmmRKNS_20AllocationAttributesE@Base 2.0.0
 _ZN10tensorflow12BFCAllocator4NameB5cxx11Ev@Base 2.0.0
 _ZN10tensorflow12BFCAllocator5Chunk11DebugStringB5cxx11EPS0_b@Base 2.0.0
 _ZN10tensorflow12BFCAllocator5MergeEmm@Base 2.0.0
 _ZN10tensorflow12BFCAllocator6ExtendEmm@Base 2.0.0
 _ZN10tensorflow12BFCAllocator8GetStatsEv@Base 2.0.0
 _ZN10tensorflow12BFCAllocator8MarkFreeEm@Base 2.0.0
 _ZN10tensorflow12BFCAllocatorC1EPNS_12SubAllocatorEmbRKNSt7__cxx1112basic_stringIcSt11char_traitsIcESaIcEEEb@Base 2.0.0
 _ZN10tensorflow12BFCAllocatorC2EPNS_12SubAllocatorEmbRKNSt7__cxx1112basic_stringIcSt11char_traitsIcESaIcEEEb@Base 2.0.0
 _ZN10tensorflow12BFCAllocatorD0Ev@Base 2.0.0
 _ZN10tensorflow12BFCAllocatorD1Ev@Base 2.0.0
 _ZN10tensorflow12BFCAllocatorD2Ev@Base 2.0.0
 _ZN10tensorflow12Base64DecodeEN4absl11string_viewEPNSt7__cxx1112basic_stringIcSt11char_traitsIcESaIcEEE@Base 2.0.0
 _ZN10tensorflow12Base64EncodeEN4absl11string_viewEPNSt7__cxx1112basic_stringIcSt11char_traitsIcESaIcEEE@Base 2.0.0
 _ZN10tensorflow12Base64EncodeEN4absl11string_viewEbPNSt7__cxx1112basic_stringIcSt11char_traitsIcESaIcEEE@Base 2.0.0
 _ZN10tensorflow12BundleReader11DebugStringB5cxx11Ev@Base 2.0.0
 _ZN10tensorflow12BundleReader11LookupSliceEN4absl11string_viewERKNS_11TensorSliceEPNS_6TensorE@Base 2.0.0
 _ZN10tensorflow12BundleReader11ReadCurrentEPNS_6TensorE@Base 2.0.0
 _ZN10tensorflow12BundleReader13GetSliceValueEN4absl11string_viewERKNS_16BundleEntryProtoERKNS_11TensorSliceEPNS_6TensorE@Base 2.0.0
 _ZN10tensorflow12BundleReader17LookupTensorShapeEN4absl11string_viewEPNS_11TensorShapeE@Base 2.0.0
 _ZN10tensorflow12BundleReader18LookupTensorSlicesEN4absl11string_viewEPSt6vectorINS_11TensorSliceESaIS4_EE@Base 2.0.0
 _ZN10tensorflow12BundleReader19GetBundleEntryProtoEN4absl11string_viewEPNS_16BundleEntryProtoE@Base 2.0.0
 _ZN10tensorflow12BundleReader19LookupDtypeAndShapeEN4absl11string_viewEPNS_8DataTypeEPNS_11TensorShapeE@Base 2.0.0
 _ZN10tensorflow12BundleReader6LookupEN4absl11string_viewEPNS_6TensorE@Base 2.0.0
 _ZN10tensorflow12BundleReader8ContainsEN4absl11string_viewE@Base 2.0.0
 _ZN10tensorflow12BundleReader8GetValueERKNS_16BundleEntryProtoEPNS_6TensorE@Base 2.0.0
 _ZN10tensorflow12BundleReaderC1EPNS_3EnvEN4absl11string_viewE@Base 2.0.0
 _ZN10tensorflow12BundleReaderC2EPNS_3EnvEN4absl11string_viewE@Base 2.0.0
 _ZN10tensorflow12BundleReaderD1Ev@Base 2.0.0
 _ZN10tensorflow12BundleReaderD2Ev@Base 2.0.0
 _ZN10tensorflow12BundleWriter3AddEN4absl11string_viewERKNS_6TensorE@Base 2.0.0
 _ZN10tensorflow12BundleWriter6FinishEv@Base 2.0.0
 _ZN10tensorflow12BundleWriter8AddSliceEN4absl11string_viewERKNS_11TensorShapeERKNS_11TensorSliceERKNS_6TensorE@Base 2.0.0
 _ZN10tensorflow12BundleWriterC1EPNS_3EnvEN4absl11string_viewERKNS0_7OptionsE@Base 2.0.0
 _ZN10tensorflow12BundleWriterC2EPNS_3EnvEN4absl11string_viewERKNS0_7OptionsE@Base 2.0.0
 _ZN10tensorflow12CanonicalizeERKNSt7__cxx1112basic_stringIcSt11char_traitsIcESaIcEEENS_9AttrSliceERKNS_22FunctionLibraryRuntime18InstantiateOptionsE@Base 2.0.0
 _ZN10tensorflow12ConstantFoldERKNS_22ConstantFoldingOptionsEPNS_22FunctionLibraryRuntimeEPNS_3EnvEPKNS_6DeviceEPNS_5GraphEPb@Base 2.0.0
 _ZN10tensorflow12CostGraphDef12InternalSwapEPS0_@Base 2.0.0
 _ZN10tensorflow12CostGraphDef14_InternalParseEPKcPN6google8protobuf8internal12ParseContextE@Base 2.0.0
 _ZN10tensorflow12CostGraphDef16default_instanceEv@Base 2.0.0
 _ZN10tensorflow12CostGraphDef21InitAsDefaultInstanceEv@Base 2.0.0
 _ZN10tensorflow12CostGraphDef5ClearEv@Base 2.0.0
 _ZN10tensorflow12CostGraphDef8CopyFromERKN6google8protobuf7MessageE@Base 2.0.0
 _ZN10tensorflow12CostGraphDef8CopyFromERKS0_@Base 2.0.0
 _ZN10tensorflow12CostGraphDef9ArenaDtorEPv@Base 2.0.0
 _ZN10tensorflow12CostGraphDef9MergeFromERKN6google8protobuf7MessageE@Base 2.0.0
 _ZN10tensorflow12CostGraphDef9MergeFromERKS0_@Base 2.0.0
 _ZN10tensorflow12CostGraphDefC1EPN6google8protobuf5ArenaE@Base 2.0.0
 _ZN10tensorflow12CostGraphDefC1ERKS0_@Base 2.0.0
 _ZN10tensorflow12CostGraphDefC1Ev@Base 2.0.0
 _ZN10tensorflow12CostGraphDefC2EPN6google8protobuf5ArenaE@Base 2.0.0
 _ZN10tensorflow12CostGraphDefC2ERKS0_@Base 2.0.0
 _ZN10tensorflow12CostGraphDefC2Ev@Base 2.0.0
 _ZN10tensorflow12CostGraphDefD0Ev@Base 2.0.0
 _ZN10tensorflow12CostGraphDefD1Ev@Base 2.0.0
 _ZN10tensorflow12CostGraphDefD2Ev@Base 2.0.0
 _ZN10tensorflow12CudnnVersion12InternalSwapEPS0_@Base 2.0.0
 _ZN10tensorflow12CudnnVersion14_InternalParseEPKcPN6google8protobuf8internal12ParseContextE@Base 2.0.0
 _ZN10tensorflow12CudnnVersion16default_instanceEv@Base 2.0.0
 _ZN10tensorflow12CudnnVersion21InitAsDefaultInstanceEv@Base 2.0.0
 _ZN10tensorflow12CudnnVersion5ClearEv@Base 2.0.0
 _ZN10tensorflow12CudnnVersion8CopyFromERKN6google8protobuf7MessageE@Base 2.0.0
 _ZN10tensorflow12CudnnVersion8CopyFromERKS0_@Base 2.0.0
 _ZN10tensorflow12CudnnVersion9MergeFromERKN6google8protobuf7MessageE@Base 2.0.0
 _ZN10tensorflow12CudnnVersion9MergeFromERKS0_@Base 2.0.0
 _ZN10tensorflow12CudnnVersionC1ERKS0_@Base 2.0.0
 _ZN10tensorflow12CudnnVersionC1Ev@Base 2.0.0
 _ZN10tensorflow12CudnnVersionC2ERKS0_@Base 2.0.0
 _ZN10tensorflow12CudnnVersionC2Ev@Base 2.0.0
 _ZN10tensorflow12CudnnVersionD0Ev@Base 2.0.0
 _ZN10tensorflow12CudnnVersionD1Ev@Base 2.0.0
 _ZN10tensorflow12CudnnVersionD2Ev@Base 2.0.0
 _ZN10tensorflow12DataFilenameB5cxx11EN4absl11string_viewEii@Base 2.0.0
 _ZN10tensorflow12DataTypeSizeENS_8DataTypeE@Base 2.0.0
 _ZN10tensorflow12DebugOptions12InternalSwapEPS0_@Base 2.0.0
 _ZN10tensorflow12DebugOptions14_InternalParseEPKcPN6google8protobuf8internal12ParseContextE@Base 2.0.0
 _ZN10tensorflow12DebugOptions16default_instanceEv@Base 2.0.0
 _ZN10tensorflow12DebugOptions21InitAsDefaultInstanceEv@Base 2.0.0
 _ZN10tensorflow12DebugOptions5ClearEv@Base 2.0.0
 _ZN10tensorflow12DebugOptions8CopyFromERKN6google8protobuf7MessageE@Base 2.0.0
 _ZN10tensorflow12DebugOptions8CopyFromERKS0_@Base 2.0.0
 _ZN10tensorflow12DebugOptions9ArenaDtorEPv@Base 2.0.0
 _ZN10tensorflow12DebugOptions9MergeFromERKN6google8protobuf7MessageE@Base 2.0.0
 _ZN10tensorflow12DebugOptions9MergeFromERKS0_@Base 2.0.0
 _ZN10tensorflow12DebugOptionsC1EPN6google8protobuf5ArenaE@Base 2.0.0
 _ZN10tensorflow12DebugOptionsC1ERKS0_@Base 2.0.0
 _ZN10tensorflow12DebugOptionsC1Ev@Base 2.0.0
 _ZN10tensorflow12DebugOptionsC2EPN6google8protobuf5ArenaE@Base 2.0.0
 _ZN10tensorflow12DebugOptionsC2ERKS0_@Base 2.0.0
 _ZN10tensorflow12DebugOptionsC2Ev@Base 2.0.0
 _ZN10tensorflow12DebugOptionsD0Ev@Base 2.0.0
 _ZN10tensorflow12DebugOptionsD1Ev@Base 2.0.0
 _ZN10tensorflow12DebugOptionsD2Ev@Base 2.0.0
 _ZN10tensorflow12EqualNodeDefERKNS_7NodeDefES2_PNSt7__cxx1112basic_stringIcSt11char_traitsIcESaIcEEERKNS_20EqualGraphDefOptionsE@Base 2.0.0
 _ZN10tensorflow12EventsWriter10WriteEventERKNS_5EventE@Base 2.0.0
 _ZN10tensorflow12EventsWriter12InitIfNeededEv@Base 2.0.0
 _ZN10tensorflow12EventsWriter14InitWithSuffixERKNSt7__cxx1112basic_stringIcSt11char_traitsIcESaIcEEE@Base 2.0.0
 _ZN10tensorflow12EventsWriter15FileStillExistsEv@Base 2.0.0
 _ZN10tensorflow12EventsWriter20WriteSerializedEventEN4absl11string_viewE@Base 2.0.0
 _ZN10tensorflow12EventsWriter4InitEv@Base 2.0.0
 _ZN10tensorflow12EventsWriter5CloseEv@Base 2.0.0
 _ZN10tensorflow12EventsWriter5FlushEv@Base 2.0.0
 _ZN10tensorflow12EventsWriter8FileNameB5cxx11Ev@Base 2.0.0
 _ZN10tensorflow12EventsWriterC1ERKNSt7__cxx1112basic_stringIcSt11char_traitsIcESaIcEEE@Base 2.0.0
 _ZN10tensorflow12EventsWriterC2ERKNSt7__cxx1112basic_stringIcSt11char_traitsIcESaIcEEE@Base 2.0.0
 _ZN10tensorflow12EventsWriterD1Ev@Base 2.0.0
 _ZN10tensorflow12EventsWriterD2Ev@Base 2.0.0
 _ZN10tensorflow12FeatureLists12InternalSwapEPS0_@Base 2.0.0
 _ZN10tensorflow12FeatureLists14_InternalParseEPKcPN6google8protobuf8internal12ParseContextE@Base 2.0.0
 _ZN10tensorflow12FeatureLists16default_instanceEv@Base 2.0.0
 _ZN10tensorflow12FeatureLists21InitAsDefaultInstanceEv@Base 2.0.0
 _ZN10tensorflow12FeatureLists5ClearEv@Base 2.0.0
 _ZN10tensorflow12FeatureLists8CopyFromERKN6google8protobuf7MessageE@Base 2.0.0
 _ZN10tensorflow12FeatureLists8CopyFromERKS0_@Base 2.0.0
 _ZN10tensorflow12FeatureLists9ArenaDtorEPv@Base 2.0.0
 _ZN10tensorflow12FeatureLists9MergeFromERKN6google8protobuf7MessageE@Base 2.0.0
 _ZN10tensorflow12FeatureLists9MergeFromERKS0_@Base 2.0.0
 _ZN10tensorflow12FeatureListsC1EPN6google8protobuf5ArenaE@Base 2.0.0
 _ZN10tensorflow12FeatureListsC1ERKS0_@Base 2.0.0
 _ZN10tensorflow12FeatureListsC1Ev@Base 2.0.0
 _ZN10tensorflow12FeatureListsC2EPN6google8protobuf5ArenaE@Base 2.0.0
 _ZN10tensorflow12FeatureListsC2ERKS0_@Base 2.0.0
 _ZN10tensorflow12FeatureListsC2Ev@Base 2.0.0
 _ZN10tensorflow12FeatureListsD0Ev@Base 2.0.0
 _ZN10tensorflow12FeatureListsD1Ev@Base 2.0.0
 _ZN10tensorflow12FeatureListsD2Ev@Base 2.0.0
 _ZN10tensorflow12FindInputArgEN4absl11string_viewERKNS_5OpDefE@Base 2.0.0
 _ZN10tensorflow12FindInputArgEN4absl11string_viewERKNS_6ApiDefE@Base 2.0.0
 _ZN10tensorflow12FunctionBodyC1ERKNS_11FunctionDefEN4absl4SpanIKNS_8DataTypeEEES8_PNS_5GraphE@Base 2.0.0
 _ZN10tensorflow12FunctionBodyC2ERKNS_11FunctionDefEN4absl4SpanIKNS_8DataTypeEEES8_PNS_5GraphE@Base 2.0.0
 _ZN10tensorflow12FunctionBodyD1Ev@Base 2.0.0
 _ZN10tensorflow12FunctionBodyD2Ev@Base 2.0.0
 _ZN10tensorflow12FunctionSpec12InternalSwapEPS0_@Base 2.0.0
 _ZN10tensorflow12FunctionSpec14_InternalParseEPKcPN6google8protobuf8internal12ParseContextE@Base 2.0.0
 _ZN10tensorflow12FunctionSpec16default_instanceEv@Base 2.0.0
 _ZN10tensorflow12FunctionSpec17clear_fullargspecEv@Base 2.0.0
 _ZN10tensorflow12FunctionSpec21InitAsDefaultInstanceEv@Base 2.0.0
 _ZN10tensorflow12FunctionSpec21clear_input_signatureEv@Base 2.0.0
 _ZN10tensorflow12FunctionSpec38unsafe_arena_set_allocated_fullargspecEPNS_15StructuredValueE@Base 2.0.0
 _ZN10tensorflow12FunctionSpec42unsafe_arena_set_allocated_input_signatureEPNS_15StructuredValueE@Base 2.0.0
 _ZN10tensorflow12FunctionSpec5ClearEv@Base 2.0.0
 _ZN10tensorflow12FunctionSpec8CopyFromERKN6google8protobuf7MessageE@Base 2.0.0
 _ZN10tensorflow12FunctionSpec8CopyFromERKS0_@Base 2.0.0
 _ZN10tensorflow12FunctionSpec9ArenaDtorEPv@Base 2.0.0
 _ZN10tensorflow12FunctionSpec9MergeFromERKN6google8protobuf7MessageE@Base 2.0.0
 _ZN10tensorflow12FunctionSpec9MergeFromERKS0_@Base 2.0.0
 _ZN10tensorflow12FunctionSpec9_Internal11fullargspecEPKS0_@Base 2.0.0
 _ZN10tensorflow12FunctionSpec9_Internal15input_signatureEPKS0_@Base 2.0.0
 _ZN10tensorflow12FunctionSpecC1EPN6google8protobuf5ArenaE@Base 2.0.0
 _ZN10tensorflow12FunctionSpecC1ERKS0_@Base 2.0.0
 _ZN10tensorflow12FunctionSpecC1Ev@Base 2.0.0
 _ZN10tensorflow12FunctionSpecC2EPN6google8protobuf5ArenaE@Base 2.0.0
 _ZN10tensorflow12FunctionSpecC2ERKS0_@Base 2.0.0
 _ZN10tensorflow12FunctionSpecC2Ev@Base 2.0.0
 _ZN10tensorflow12FunctionSpecD0Ev@Base 2.0.0
 _ZN10tensorflow12FunctionSpecD1Ev@Base 2.0.0
 _ZN10tensorflow12FunctionSpecD2Ev@Base 2.0.0
 _ZN10tensorflow12GetPostOrderERKNS_5GraphEPSt6vectorIPNS_4NodeESaIS5_EERKSt8functionIFbPKS4_SB_EERKS9_IFbRKNS_4EdgeEEE@Base 2.0.0
 _ZN10tensorflow12GpuIdManager13TestOnlyResetEv@Base 2.0.0
 _ZN10tensorflow12GpuIdManager17TfToPlatformGpuIdENS_3gtl7IntTypeINS_12TfGpuId_tag_EiEEPNS2_INS_18PlatformGpuId_tag_EiEE@Base 2.0.0
 _ZN10tensorflow12GpuIdManager25InsertTfPlatformGpuIdPairENS_3gtl7IntTypeINS_12TfGpuId_tag_EiEENS2_INS_18PlatformGpuId_tag_EiEE@Base 2.0.0
 _ZN10tensorflow12GraphDefHashERKNS_8GraphDefERKNS_20EqualGraphDefOptionsE@Base 2.0.0
 _ZN10tensorflow12GraphOptions12InternalSwapEPS0_@Base 2.0.0
 _ZN10tensorflow12GraphOptions14_InternalParseEPKcPN6google8protobuf8internal12ParseContextE@Base 2.0.0
 _ZN10tensorflow12GraphOptions16default_instanceEv@Base 2.0.0
 _ZN10tensorflow12GraphOptions21InitAsDefaultInstanceEv@Base 2.0.0
 _ZN10tensorflow12GraphOptions21clear_rewrite_optionsEv@Base 2.0.0
 _ZN10tensorflow12GraphOptions42unsafe_arena_set_allocated_rewrite_optionsEPNS_14RewriterConfigE@Base 2.0.0
 _ZN10tensorflow12GraphOptions44unsafe_arena_set_allocated_optimizer_optionsEPNS_16OptimizerOptionsE@Base 2.0.0
 _ZN10tensorflow12GraphOptions5ClearEv@Base 2.0.0
 _ZN10tensorflow12GraphOptions8CopyFromERKN6google8protobuf7MessageE@Base 2.0.0
 _ZN10tensorflow12GraphOptions8CopyFromERKS0_@Base 2.0.0
 _ZN10tensorflow12GraphOptions9ArenaDtorEPv@Base 2.0.0
 _ZN10tensorflow12GraphOptions9MergeFromERKN6google8protobuf7MessageE@Base 2.0.0
 _ZN10tensorflow12GraphOptions9MergeFromERKS0_@Base 2.0.0
 _ZN10tensorflow12GraphOptions9_Internal15rewrite_optionsEPKS0_@Base 2.0.0
 _ZN10tensorflow12GraphOptions9_Internal17optimizer_optionsEPKS0_@Base 2.0.0
 _ZN10tensorflow12GraphOptionsC1EPN6google8protobuf5ArenaE@Base 2.0.0
 _ZN10tensorflow12GraphOptionsC1ERKS0_@Base 2.0.0
 _ZN10tensorflow12GraphOptionsC1Ev@Base 2.0.0
 _ZN10tensorflow12GraphOptionsC2EPN6google8protobuf5ArenaE@Base 2.0.0
 _ZN10tensorflow12GraphOptionsC2ERKS0_@Base 2.0.0
 _ZN10tensorflow12GraphOptionsC2Ev@Base 2.0.0
 _ZN10tensorflow12GraphOptionsD0Ev@Base 2.0.0
 _ZN10tensorflow12GraphOptionsD1Ev@Base 2.0.0
 _ZN10tensorflow12GraphOptionsD2Ev@Base 2.0.0
 _ZN10tensorflow12IsMklEnabledEv@Base 2.0.0
 _ZN10tensorflow12MemmappedEnv18InitializeFromFileERKNSt7__cxx1112basic_stringIcSt11char_traitsIcESaIcEEE@Base 2.0.0
 _ZN10tensorflow12MemmappedEnv20GetFileSystemForFileERKNSt7__cxx1112basic_stringIcSt11char_traitsIcESaIcEEEPPNS_10FileSystemE@Base 2.0.0
 _ZN10tensorflow12MemmappedEnv30GetRegisteredFileSystemSchemesEPSt6vectorINSt7__cxx1112basic_stringIcSt11char_traitsIcESaIcEEESaIS7_EE@Base 2.0.0
 _ZN10tensorflow12MemmappedEnvC1EPNS_3EnvE@Base 2.0.0
 _ZN10tensorflow12MemmappedEnvC2EPNS_3EnvE@Base 2.0.0
 _ZN10tensorflow12MemmappedEnvD0Ev@Base 2.0.0
 _ZN10tensorflow12MemmappedEnvD1Ev@Base 2.0.0
 _ZN10tensorflow12MemmappedEnvD2Ev@Base 2.0.0
 _ZN10tensorflow12MergeBundlesEPNS_3EnvEN4absl4SpanIKNSt7__cxx1112basic_stringIcSt11char_traitsIcESaIcEEEEENS2_11string_viewE@Base 2.0.0
 _ZN10tensorflow12MetaFilenameB5cxx11EN4absl11string_viewE@Base 2.0.0
 _ZN10tensorflow12MetaGraphDef12InternalSwapEPS0_@Base 2.0.0
 _ZN10tensorflow12MetaGraphDef14_InternalParseEPKcPN6google8protobuf8internal12ParseContextE@Base 2.0.0
 _ZN10tensorflow12MetaGraphDef15clear_graph_defEv@Base 2.0.0
 _ZN10tensorflow12MetaGraphDef15clear_saver_defEv@Base 2.0.0
 _ZN10tensorflow12MetaGraphDef16default_instanceEv@Base 2.0.0
 _ZN10tensorflow12MetaGraphDef21InitAsDefaultInstanceEv@Base 2.0.0
 _ZN10tensorflow12MetaGraphDef22clear_object_graph_defEv@Base 2.0.0
 _ZN10tensorflow12MetaGraphDef36unsafe_arena_set_allocated_graph_defEPNS_8GraphDefE@Base 2.0.0
 _ZN10tensorflow12MetaGraphDef36unsafe_arena_set_allocated_saver_defEPNS_8SaverDefE@Base 2.0.0
 _ZN10tensorflow12MetaGraphDef40unsafe_arena_set_allocated_meta_info_defEPNS_24MetaGraphDef_MetaInfoDefE@Base 2.0.0
 _ZN10tensorflow12MetaGraphDef43unsafe_arena_set_allocated_object_graph_defEPNS_16SavedObjectGraphE@Base 2.0.0
 _ZN10tensorflow12MetaGraphDef5ClearEv@Base 2.0.0
 _ZN10tensorflow12MetaGraphDef8CopyFromERKN6google8protobuf7MessageE@Base 2.0.0
 _ZN10tensorflow12MetaGraphDef8CopyFromERKS0_@Base 2.0.0
 _ZN10tensorflow12MetaGraphDef9ArenaDtorEPv@Base 2.0.0
 _ZN10tensorflow12MetaGraphDef9MergeFromERKN6google8protobuf7MessageE@Base 2.0.0
 _ZN10tensorflow12MetaGraphDef9MergeFromERKS0_@Base 2.0.0
 _ZN10tensorflow12MetaGraphDef9_Internal13meta_info_defEPKS0_@Base 2.0.0
 _ZN10tensorflow12MetaGraphDef9_Internal16object_graph_defEPKS0_@Base 2.0.0
 _ZN10tensorflow12MetaGraphDef9_Internal9graph_defEPKS0_@Base 2.0.0
 _ZN10tensorflow12MetaGraphDef9_Internal9saver_defEPKS0_@Base 2.0.0
 _ZN10tensorflow12MetaGraphDefC1EPN6google8protobuf5ArenaE@Base 2.0.0
 _ZN10tensorflow12MetaGraphDefC1ERKS0_@Base 2.0.0
 _ZN10tensorflow12MetaGraphDefC1Ev@Base 2.0.0
 _ZN10tensorflow12MetaGraphDefC2EPN6google8protobuf5ArenaE@Base 2.0.0
 _ZN10tensorflow12MetaGraphDefC2ERKS0_@Base 2.0.0
 _ZN10tensorflow12MetaGraphDefC2Ev@Base 2.0.0
 _ZN10tensorflow12MetaGraphDefD0Ev@Base 2.0.0
 _ZN10tensorflow12MetaGraphDefD1Ev@Base 2.0.0
 _ZN10tensorflow12MetaGraphDefD2Ev@Base 2.0.0
 _ZN10tensorflow12NameAttrList12InternalSwapEPS0_@Base 2.0.0
 _ZN10tensorflow12NameAttrList14_InternalParseEPKcPN6google8protobuf8internal12ParseContextE@Base 2.0.0
 _ZN10tensorflow12NameAttrList16default_instanceEv@Base 2.0.0
 _ZN10tensorflow12NameAttrList21InitAsDefaultInstanceEv@Base 2.0.0
 _ZN10tensorflow12NameAttrList5ClearEv@Base 2.0.0
 _ZN10tensorflow12NameAttrList8CopyFromERKN6google8protobuf7MessageE@Base 2.0.0
 _ZN10tensorflow12NameAttrList8CopyFromERKS0_@Base 2.0.0
 _ZN10tensorflow12NameAttrList9ArenaDtorEPv@Base 2.0.0
 _ZN10tensorflow12NameAttrList9MergeFromERKN6google8protobuf7MessageE@Base 2.0.0
 _ZN10tensorflow12NameAttrList9MergeFromERKS0_@Base 2.0.0
 _ZN10tensorflow12NameAttrListC1EPN6google8protobuf5ArenaE@Base 2.0.0
 _ZN10tensorflow12NameAttrListC1ERKS0_@Base 2.0.0
 _ZN10tensorflow12NameAttrListC1Ev@Base 2.0.0
 _ZN10tensorflow12NameAttrListC2EPN6google8protobuf5ArenaE@Base 2.0.0
 _ZN10tensorflow12NameAttrListC2ERKS0_@Base 2.0.0
 _ZN10tensorflow12NameAttrListC2Ev@Base 2.0.0
 _ZN10tensorflow12NameAttrListD0Ev@Base 2.0.0
 _ZN10tensorflow12NameAttrListD1Ev@Base 2.0.0
 _ZN10tensorflow12NameAttrListD2Ev@Base 2.0.0
 _ZN10tensorflow12OpDefBuilder10DeprecatedEiNSt7__cxx1112basic_stringIcSt11char_traitsIcESaIcEEE@Base 2.0.0
 _ZN10tensorflow12OpDefBuilder10SetShapeFnESt8functionIFNS_6StatusEPNS_15shape_inference16InferenceContextEEE@Base 2.0.0
 _ZN10tensorflow12OpDefBuilder13ControlOutputENSt7__cxx1112basic_stringIcSt11char_traitsIcESaIcEEE@Base 2.0.0
 _ZN10tensorflow12OpDefBuilder13SetIsStatefulEv@Base 2.0.0
 _ZN10tensorflow12OpDefBuilder14SetIsAggregateEv@Base 2.0.0
 _ZN10tensorflow12OpDefBuilder16SetIsCommutativeEv@Base 2.0.0
 _ZN10tensorflow12OpDefBuilder27SetAllowsUninitializedInputEv@Base 2.0.0
 _ZN10tensorflow12OpDefBuilder3DocENSt7__cxx1112basic_stringIcSt11char_traitsIcESaIcEEE@Base 2.0.0
 _ZN10tensorflow12OpDefBuilder4AttrENSt7__cxx1112basic_stringIcSt11char_traitsIcESaIcEEE@Base 2.0.0
 _ZN10tensorflow12OpDefBuilder5InputENSt7__cxx1112basic_stringIcSt11char_traitsIcESaIcEEE@Base 2.0.0
 _ZN10tensorflow12OpDefBuilder6OutputENSt7__cxx1112basic_stringIcSt11char_traitsIcESaIcEEE@Base 2.0.0
 _ZN10tensorflow12OpDefBuilderC1ENSt7__cxx1112basic_stringIcSt11char_traitsIcESaIcEEE@Base 2.0.0
 _ZN10tensorflow12OpDefBuilderC1ERKS0_@Base 2.0.0
 _ZN10tensorflow12OpDefBuilderC2ENSt7__cxx1112basic_stringIcSt11char_traitsIcESaIcEEE@Base 2.0.0
 _ZN10tensorflow12OpDefBuilderC2ERKS0_@Base 2.0.0
 _ZN10tensorflow12OpDefBuilderD1Ev@Base 2.0.0
 _ZN10tensorflow12OpDefBuilderD2Ev@Base 2.0.0
 _ZN10tensorflow12OpDef_ArgDef12InternalSwapEPS0_@Base 2.0.0
 _ZN10tensorflow12OpDef_ArgDef14_InternalParseEPKcPN6google8protobuf8internal12ParseContextE@Base 2.0.0
 _ZN10tensorflow12OpDef_ArgDef16default_instanceEv@Base 2.0.0
 _ZN10tensorflow12OpDef_ArgDef21InitAsDefaultInstanceEv@Base 2.0.0
 _ZN10tensorflow12OpDef_ArgDef5ClearEv@Base 2.0.0
 _ZN10tensorflow12OpDef_ArgDef8CopyFromERKN6google8protobuf7MessageE@Base 2.0.0
 _ZN10tensorflow12OpDef_ArgDef8CopyFromERKS0_@Base 2.0.0
 _ZN10tensorflow12OpDef_ArgDef9ArenaDtorEPv@Base 2.0.0
 _ZN10tensorflow12OpDef_ArgDef9MergeFromERKN6google8protobuf7MessageE@Base 2.0.0
 _ZN10tensorflow12OpDef_ArgDef9MergeFromERKS0_@Base 2.0.0
 _ZN10tensorflow12OpDef_ArgDefC1EPN6google8protobuf5ArenaE@Base 2.0.0
 _ZN10tensorflow12OpDef_ArgDefC1ERKS0_@Base 2.0.0
 _ZN10tensorflow12OpDef_ArgDefC1Ev@Base 2.0.0
 _ZN10tensorflow12OpDef_ArgDefC2EPN6google8protobuf5ArenaE@Base 2.0.0
 _ZN10tensorflow12OpDef_ArgDefC2ERKS0_@Base 2.0.0
 _ZN10tensorflow12OpDef_ArgDefC2Ev@Base 2.0.0
 _ZN10tensorflow12OpDef_ArgDefD0Ev@Base 2.0.0
 _ZN10tensorflow12OpDef_ArgDefD1Ev@Base 2.0.0
 _ZN10tensorflow12OpDef_ArgDefD2Ev@Base 2.0.0
 _ZN10tensorflow12OptimizerCSE10EquivalentEPKNS_4NodeES3_PNS_9AttrSlice7ScratchE@Base 2.0.0
 _ZN10tensorflow12OptimizerCSE8NodeHashEPKNS_4NodeE@Base 2.0.0
 _ZN10tensorflow12OptimizerCSE8OptimizeERKSt8functionIFbPKNS_4NodeEEE@Base 2.0.0
 _ZN10tensorflow12PlatformInfo12InternalSwapEPS0_@Base 2.0.0
 _ZN10tensorflow12PlatformInfo14_InternalParseEPKcPN6google8protobuf8internal12ParseContextE@Base 2.0.0
 _ZN10tensorflow12PlatformInfo16default_instanceEv@Base 2.0.0
 _ZN10tensorflow12PlatformInfo21InitAsDefaultInstanceEv@Base 2.0.0
 _ZN10tensorflow12PlatformInfo5ClearEv@Base 2.0.0
 _ZN10tensorflow12PlatformInfo8CopyFromERKN6google8protobuf7MessageE@Base 2.0.0
 _ZN10tensorflow12PlatformInfo8CopyFromERKS0_@Base 2.0.0
 _ZN10tensorflow12PlatformInfo9ArenaDtorEPv@Base 2.0.0
 _ZN10tensorflow12PlatformInfo9MergeFromERKN6google8protobuf7MessageE@Base 2.0.0
 _ZN10tensorflow12PlatformInfo9MergeFromERKS0_@Base 2.0.0
 _ZN10tensorflow12PlatformInfoC1EPN6google8protobuf5ArenaE@Base 2.0.0
 _ZN10tensorflow12PlatformInfoC1ERKS0_@Base 2.0.0
 _ZN10tensorflow12PlatformInfoC1Ev@Base 2.0.0
 _ZN10tensorflow12PlatformInfoC2EPN6google8protobuf5ArenaE@Base 2.0.0
 _ZN10tensorflow12PlatformInfoC2ERKS0_@Base 2.0.0
 _ZN10tensorflow12PlatformInfoC2Ev@Base 2.0.0
 _ZN10tensorflow12PlatformInfoD0Ev@Base 2.0.0
 _ZN10tensorflow12PlatformInfoD1Ev@Base 2.0.0
 _ZN10tensorflow12PlatformInfoD2Ev@Base 2.0.0
 _ZN10tensorflow12ProcessState13TestOnlyResetEv@Base 2.0.0
 _ZN10tensorflow12ProcessState15GetCPUAllocatorEi@Base 2.0.0
 _ZN10tensorflow12ProcessState17AddCPUFreeVisitorESt8functionIFvPvimEE@Base 2.0.0
 _ZN10tensorflow12ProcessState18AddCPUAllocVisitorESt8functionIFvPvimEE@Base 2.0.0
 _ZN10tensorflow12ProcessState7MemDesc11DebugStringB5cxx11Ev@Base 2.0.0
 _ZN10tensorflow12ProcessState7PtrTypeEPKv@Base 2.0.0
 _ZN10tensorflow12ProcessState9singletonEv@Base 2.0.0
 _ZN10tensorflow12ProcessStateC1Ev@Base 2.0.0
 _ZN10tensorflow12ProcessStateC2Ev@Base 2.0.0
 _ZN10tensorflow12ProcessStateD0Ev@Base 2.0.0
 _ZN10tensorflow12ProcessStateD1Ev@Base 2.0.0
 _ZN10tensorflow12ProcessStateD2Ev@Base 2.0.0
 _ZN10tensorflow12RingGatherer13RunAsyncPartsEv@Base 2.0.0
 _ZN10tensorflow12RingGatherer26InitializeCollectiveParamsEPNS_16CollectiveParamsE@Base 2.0.0
 _ZN10tensorflow12RingGatherer3RunESt8functionIFvRKNS_6StatusEEE@Base 2.0.0
 _ZN10tensorflow12RingGathererD0Ev@Base 2.0.0
 _ZN10tensorflow12RingGathererD1Ev@Base 2.0.0
 _ZN10tensorflow12RingGathererD2Ev@Base 2.0.0
 _ZN10tensorflow12RowDenseCopyERKmRKNS_8DataTypeERKNS_6TensorEPS5_@Base 2.0.0
 _ZN10tensorflow12SafeTensorIdC1ERKNS_8TensorIdE@Base 2.0.0
 _ZN10tensorflow12SafeTensorIdC2ERKNS_8TensorIdE@Base 2.0.0
 _ZN10tensorflow12SchedClosureESt8functionIFvvEE@Base 2.0.0
 _ZN10tensorflow12SessionState12DeleteTensorERKNSt7__cxx1112basic_stringIcSt11char_traitsIcESaIcEEE@Base 2.0.0
 _ZN10tensorflow12SessionState29kTensorHandleResourceTypeNameE@Base 2.0.0
 _ZN10tensorflow12SessionState8GetNewIdEv@Base 2.0.0
 _ZN10tensorflow12SessionState9AddTensorERKNSt7__cxx1112basic_stringIcSt11char_traitsIcESaIcEEERKNS_6TensorE@Base 2.0.0
 _ZN10tensorflow12SessionState9GetTensorERKNSt7__cxx1112basic_stringIcSt11char_traitsIcESaIcEEEPNS_6TensorE@Base 2.0.0
 _ZN10tensorflow12SetAttrValueEN4absl11string_viewEPNS_9AttrValueE@Base 2.0.0
 _ZN10tensorflow12SetAttrValueEN4absl4SpanIKNS0_11string_viewEEEPNS_9AttrValueE@Base 2.0.0
 _ZN10tensorflow12SetAttrValueEN4absl4SpanIKNS_11TensorProtoEEEPNS_9AttrValueE@Base 2.0.0
 _ZN10tensorflow12SetAttrValueEN4absl4SpanIKNS_11TensorShapeEEEPNS_9AttrValueE@Base 2.0.0
 _ZN10tensorflow12SetAttrValueEN4absl4SpanIKNS_12NameAttrListEEEPNS_9AttrValueE@Base 2.0.0
 _ZN10tensorflow12SetAttrValueEN4absl4SpanIKNS_16TensorShapeProtoEEEPNS_9AttrValueE@Base 2.0.0
 _ZN10tensorflow12SetAttrValueEN4absl4SpanIKNS_18PartialTensorShapeEEEPNS_9AttrValueE@Base 2.0.0
 _ZN10tensorflow12SetAttrValueEN4absl4SpanIKNS_6TensorEEEPNS_9AttrValueE@Base 2.0.0
 _ZN10tensorflow12SetAttrValueEN4absl4SpanIKNS_8DataTypeEEEPNS_9AttrValueE@Base 2.0.0
 _ZN10tensorflow12SetAttrValueEN4absl4SpanIKNSt7__cxx1112basic_stringIcSt11char_traitsIcESaIcEEEEEPNS_9AttrValueE@Base 2.0.0
 _ZN10tensorflow12SetAttrValueEN4absl4SpanIKPKcEEPNS_9AttrValueE@Base 2.0.0
 _ZN10tensorflow12SetAttrValueEN4absl4SpanIKbEEPNS_9AttrValueE@Base 2.0.0
 _ZN10tensorflow12SetAttrValueEN4absl4SpanIKdEEPNS_9AttrValueE@Base 2.0.0
 _ZN10tensorflow12SetAttrValueEN4absl4SpanIKfEEPNS_9AttrValueE@Base 2.0.0
 _ZN10tensorflow12SetAttrValueEN4absl4SpanIKiEEPNS_9AttrValueE@Base 2.0.0
 _ZN10tensorflow12SetAttrValueEN4absl4SpanIKxEEPNS_9AttrValueE@Base 2.0.0
 _ZN10tensorflow12SetAttrValueENS_8DataTypeEPNS_9AttrValueE@Base 2.0.0
 _ZN10tensorflow12SetAttrValueEPKcPNS_9AttrValueE@Base 2.0.0
 _ZN10tensorflow12SetAttrValueERKNS_11TensorProtoEPNS_9AttrValueE@Base 2.0.0
 _ZN10tensorflow12SetAttrValueERKNS_11TensorShapeEPNS_9AttrValueE@Base 2.0.0
 _ZN10tensorflow12SetAttrValueERKNS_12NameAttrListEPNS_9AttrValueE@Base 2.0.0
 _ZN10tensorflow12SetAttrValueERKNS_16TensorShapeProtoEPNS_9AttrValueE@Base 2.0.0
 _ZN10tensorflow12SetAttrValueERKNS_18PartialTensorShapeEPNS_9AttrValueE@Base 2.0.0
 _ZN10tensorflow12SetAttrValueERKNS_6TensorEPNS_9AttrValueE@Base 2.0.0
 _ZN10tensorflow12SetAttrValueERKNS_9AttrValueEPS0_@Base 2.0.0
 _ZN10tensorflow12SetAttrValueERKNSt7__cxx1112basic_stringIcSt11char_traitsIcESaIcEEEPNS_9AttrValueE@Base 2.0.0
 _ZN10tensorflow12SetAttrValueERKSt6vectorIbSaIbEEPNS_9AttrValueE@Base 2.0.0
 _ZN10tensorflow12SetAttrValueESt16initializer_listIbEPNS_9AttrValueE@Base 2.0.0
 _ZN10tensorflow12SetAttrValueEbPNS_9AttrValueE@Base 2.0.0
 _ZN10tensorflow12SetAttrValueEdPNS_9AttrValueE@Base 2.0.0
 _ZN10tensorflow12SetAttrValueEfPNS_9AttrValueE@Base 2.0.0
 _ZN10tensorflow12SetAttrValueEiPNS_9AttrValueE@Base 2.0.0
 _ZN10tensorflow12SetAttrValueExPNS_9AttrValueE@Base 2.0.0
 _ZN10tensorflow12ShapeRefiner10RunShapeFnEPKNS_4NodeEPKNS_18OpRegistrationDataEPNS_24ExtendedInferenceContextE@Base 2.0.0
 _ZN10tensorflow12ShapeRefiner10UpdateNodeEPKNS_4NodeEbPb@Base 2.0.0
 _ZN10tensorflow12ShapeRefiner16SameDefinedShapeEPNS_15shape_inference16InferenceContextENS1_11ShapeHandleES4_@Base 2.0.0
 _ZN10tensorflow12ShapeRefiner20ConstantPartialShapeEPNS_15shape_inference16InferenceContextEPKNS_4NodeEiPNS1_11ShapeHandleE@Base 2.0.0
 _ZN10tensorflow12ShapeRefiner22InferShapesForFunctionEPKNS_11FunctionDefENS_9AttrSliceEbPNS_24ExtendedInferenceContextE@Base 2.0.0
 _ZN10tensorflow12ShapeRefiner22IsUpdatedShapesOrTypesEPNS_15shape_inference16InferenceContextERKSt6vectorINS1_12ShapeAndTypeESaIS5_EES9_@Base 2.0.0
 _ZN10tensorflow12ShapeRefiner24PartialStridedSliceShapeEPNS_4NodeEPNS_15shape_inference16InferenceContextEPNS3_11ShapeHandleE@Base 2.0.0
 _ZN10tensorflow12ShapeRefiner29EvaluateConstantIntScalarEdgeEPKNS_4NodeEiPbPx@Base 2.0.0
 _ZN10tensorflow12ShapeRefiner29EvaluateConstantTensorForEdgeEPKNS_4NodeEiPbPNS_6TensorE@Base 2.0.0
 _ZN10tensorflow12ShapeRefiner7AddNodeEPKNS_4NodeE@Base 2.0.0
 _ZN10tensorflow12ShapeRefiner8SetShapeEPKNS_4NodeEiNS_15shape_inference11ShapeHandleE@Base 2.0.0
 _ZN10tensorflow12ShapeRefinerC1ERKNS_10VersionDefEPKNS_19OpRegistryInterfaceE@Base 2.0.0
 _ZN10tensorflow12ShapeRefinerC1EiPKNS_19OpRegistryInterfaceE@Base 2.0.0
 _ZN10tensorflow12ShapeRefinerC2ERKNS_10VersionDefEPKNS_19OpRegistryInterfaceE@Base 2.0.0
 _ZN10tensorflow12ShapeRefinerC2EiPKNS_19OpRegistryInterfaceE@Base 2.0.0
 _ZN10tensorflow12ShapeRefinerD1Ev@Base 2.0.0
 _ZN10tensorflow12ShapeRefinerD2Ev@Base 2.0.0
 _ZN10tensorflow12SignatureDef12InternalSwapEPS0_@Base 2.0.0
 _ZN10tensorflow12SignatureDef14_InternalParseEPKcPN6google8protobuf8internal12ParseContextE@Base 2.0.0
 _ZN10tensorflow12SignatureDef16default_instanceEv@Base 2.0.0
 _ZN10tensorflow12SignatureDef21InitAsDefaultInstanceEv@Base 2.0.0
 _ZN10tensorflow12SignatureDef5ClearEv@Base 2.0.0
 _ZN10tensorflow12SignatureDef8CopyFromERKN6google8protobuf7MessageE@Base 2.0.0
 _ZN10tensorflow12SignatureDef8CopyFromERKS0_@Base 2.0.0
 _ZN10tensorflow12SignatureDef9ArenaDtorEPv@Base 2.0.0
 _ZN10tensorflow12SignatureDef9MergeFromERKN6google8protobuf7MessageE@Base 2.0.0
 _ZN10tensorflow12SignatureDef9MergeFromERKS0_@Base 2.0.0
 _ZN10tensorflow12SignatureDefC1EPN6google8protobuf5ArenaE@Base 2.0.0
 _ZN10tensorflow12SignatureDefC1ERKS0_@Base 2.0.0
 _ZN10tensorflow12SignatureDefC1Ev@Base 2.0.0
 _ZN10tensorflow12SignatureDefC2EPN6google8protobuf5ArenaE@Base 2.0.0
 _ZN10tensorflow12SignatureDefC2ERKS0_@Base 2.0.0
 _ZN10tensorflow12SignatureDefC2Ev@Base 2.0.0
 _ZN10tensorflow12SignatureDefD0Ev@Base 2.0.0
 _ZN10tensorflow12SignatureDefD1Ev@Base 2.0.0
 _ZN10tensorflow12SignatureDefD2Ev@Base 2.0.0
 _ZN10tensorflow12SubAllocator10VisitAllocEPvim@Base 2.0.0
 _ZN10tensorflow12SubAllocator9VisitFreeEPvim@Base 2.0.0
 _ZN10tensorflow12SubAllocatorC1ERKSt6vectorISt8functionIFvPvimEESaIS5_EES9_@Base 2.0.0
 _ZN10tensorflow12SubAllocatorC2ERKSt6vectorISt8functionIFvPvimEESaIS5_EES9_@Base 2.0.0
 _ZN10tensorflow12TFAddLogSinkEPNS_9TFLogSinkE@Base 2.0.0
 _ZN10tensorflow12WhileContextC1EN4absl11string_viewESt6vectorIPNS_4NodeESaIS5_EES7_NS_12OutputTensorES3_IS8_SaIS8_EESA_@Base 2.0.0
 _ZN10tensorflow12WhileContextC2EN4absl11string_viewESt6vectorIPNS_4NodeESaIS5_EES7_NS_12OutputTensorES3_IS8_SaIS8_EESA_@Base 2.0.0
 _ZN10tensorflow12WritableFile4TellEPx@Base 2.0.0
 _ZN10tensorflow12WritableFileD0Ev@Base 2.0.0
 _ZN10tensorflow12WritableFileD1Ev@Base 2.0.0
 _ZN10tensorflow12WritableFileD2Ev@Base 2.0.0
 _ZN10tensorflow13AsyncOpKernel7AsAsyncEv@Base 2.0.0
 _ZN10tensorflow13AsyncOpKernel7ComputeEPNS_15OpKernelContextE@Base 2.0.0
 _ZN10tensorflow13AttrValueHashERKNS_9AttrValueE@Base 2.0.0
 _ZN10tensorflow13AutotuningLog11clear_instrEv@Base 2.0.0
 _ZN10tensorflow13AutotuningLog12InternalSwapEPS0_@Base 2.0.0
 _ZN10tensorflow13AutotuningLog14_InternalParseEPKcPN6google8protobuf8internal12ParseContextE@Base 2.0.0
 _ZN10tensorflow13AutotuningLog16default_instanceEv@Base 2.0.0
 _ZN10tensorflow13AutotuningLog21InitAsDefaultInstanceEv@Base 2.0.0
 _ZN10tensorflow13AutotuningLog5ClearEv@Base 2.0.0
 _ZN10tensorflow13AutotuningLog8CopyFromERKN6google8protobuf7MessageE@Base 2.0.0
 _ZN10tensorflow13AutotuningLog8CopyFromERKS0_@Base 2.0.0
 _ZN10tensorflow13AutotuningLog9MergeFromERKN6google8protobuf7MessageE@Base 2.0.0
 _ZN10tensorflow13AutotuningLog9MergeFromERKS0_@Base 2.0.0
 _ZN10tensorflow13AutotuningLog9_Internal13cudnn_versionEPKS0_@Base 2.0.0
 _ZN10tensorflow13AutotuningLog9_Internal18compute_capabilityEPKS0_@Base 2.0.0
 _ZN10tensorflow13AutotuningLog9_Internal5instrEPKS0_@Base 2.0.0
 _ZN10tensorflow13AutotuningLogC1ERKS0_@Base 2.0.0
 _ZN10tensorflow13AutotuningLogC1Ev@Base 2.0.0
 _ZN10tensorflow13AutotuningLogC2ERKS0_@Base 2.0.0
 _ZN10tensorflow13AutotuningLogC2Ev@Base 2.0.0
 _ZN10tensorflow13AutotuningLogD0Ev@Base 2.0.0
 _ZN10tensorflow13AutotuningLogD1Ev@Base 2.0.0
 _ZN10tensorflow13AutotuningLogD2Ev@Base 2.0.0
 _ZN10tensorflow13BufRendezvous10ConsumeBufERKNSt7__cxx1112basic_stringIcSt11char_traitsIcESaIcEEES8_yRKSt8functionIFvRKNS_6StatusEPNS0_4HookEEE@Base 2.0.0
 _ZN10tensorflow13BufRendezvous10ProvideBufERKNSt7__cxx1112basic_stringIcSt11char_traitsIcESaIcEEEPNS_6DeviceEPNS_13DeviceContextEPKNS_6TensorERKNS_19AllocatorAttributesERKSt8functionIFvRKNS_6StatusEEE@Base 2.0.0
 _ZN10tensorflow13BufRendezvous10PurgeTableERKNS_6StatusEPN4absl13flat_hash_mapINSt7__cxx1112basic_stringIcSt11char_traitsIcESaIcEEEPNS0_4HookENS4_18container_internal10StringHashENSE_12StringHashEq2EqESaISt4pairIKSB_SD_EEEE@Base 2.0.0
 _ZN10tensorflow13BufRendezvous10StartAbortERKNS_6StatusE@Base 2.0.0
 _ZN10tensorflow13BufRendezvous11LogContentsEv@Base 2.0.0
 _ZN10tensorflow13BufRendezvous12DoneWithHookEPNS0_4HookE@Base 2.0.0
 _ZN10tensorflow13BufRendezvousD1Ev@Base 2.0.0
 _ZN10tensorflow13BufRendezvousD2Ev@Base 2.0.0
 _ZN10tensorflow13ByteSwapArrayEPcmi@Base 2.0.0
 _ZN10tensorflow13CheckVersionsERKNS_10VersionDefEiiPKcS4_@Base 2.0.0
 _ZN10tensorflow13CollectionDef10clear_kindEv@Base 2.0.0
 _ZN10tensorflow13CollectionDef12InternalSwapEPS0_@Base 2.0.0
 _ZN10tensorflow13CollectionDef14_InternalParseEPKcPN6google8protobuf8internal12ParseContextE@Base 2.0.0
 _ZN10tensorflow13CollectionDef16default_instanceEv@Base 2.0.0
 _ZN10tensorflow13CollectionDef21InitAsDefaultInstanceEv@Base 2.0.0
 _ZN10tensorflow13CollectionDef22set_allocated_any_listEPNS_21CollectionDef_AnyListE@Base 2.0.0
 _ZN10tensorflow13CollectionDef23set_allocated_node_listEPNS_22CollectionDef_NodeListE@Base 2.0.0
 _ZN10tensorflow13CollectionDef24set_allocated_bytes_listEPNS_23CollectionDef_BytesListE@Base 2.0.0
 _ZN10tensorflow13CollectionDef24set_allocated_float_listEPNS_23CollectionDef_FloatListE@Base 2.0.0
 _ZN10tensorflow13CollectionDef24set_allocated_int64_listEPNS_23CollectionDef_Int64ListE@Base 2.0.0
 _ZN10tensorflow13CollectionDef5ClearEv@Base 2.0.0
 _ZN10tensorflow13CollectionDef8CopyFromERKN6google8protobuf7MessageE@Base 2.0.0
 _ZN10tensorflow13CollectionDef8CopyFromERKS0_@Base 2.0.0
 _ZN10tensorflow13CollectionDef9ArenaDtorEPv@Base 2.0.0
 _ZN10tensorflow13CollectionDef9MergeFromERKN6google8protobuf7MessageE@Base 2.0.0
 _ZN10tensorflow13CollectionDef9MergeFromERKS0_@Base 2.0.0
 _ZN10tensorflow13CollectionDef9_Internal10bytes_listEPKS0_@Base 2.0.0
 _ZN10tensorflow13CollectionDef9_Internal10float_listEPKS0_@Base 2.0.0
 _ZN10tensorflow13CollectionDef9_Internal10int64_listEPKS0_@Base 2.0.0
 _ZN10tensorflow13CollectionDef9_Internal8any_listEPKS0_@Base 2.0.0
 _ZN10tensorflow13CollectionDef9_Internal9node_listEPKS0_@Base 2.0.0
 _ZN10tensorflow13CollectionDefC1EPN6google8protobuf5ArenaE@Base 2.0.0
 _ZN10tensorflow13CollectionDefC1ERKS0_@Base 2.0.0
 _ZN10tensorflow13CollectionDefC1Ev@Base 2.0.0
 _ZN10tensorflow13CollectionDefC2EPN6google8protobuf5ArenaE@Base 2.0.0
 _ZN10tensorflow13CollectionDefC2ERKS0_@Base 2.0.0
 _ZN10tensorflow13CollectionDefC2Ev@Base 2.0.0
 _ZN10tensorflow13CollectionDefD0Ev@Base 2.0.0
 _ZN10tensorflow13CollectionDefD1Ev@Base 2.0.0
 _ZN10tensorflow13CollectionDefD2Ev@Base 2.0.0
 _ZN10tensorflow13ContainerInfo4InitEPNS_11ResourceMgrERKNS_7NodeDefEb@Base 2.0.0
 _ZN10tensorflow13DebugCudnnRnnEv@Base 2.0.0
 _ZN10tensorflow13DecodeVariantINS_22VariantTensorDataProtoEEEbPNS_17VariantTensorDataEPT_@Base 2.0.0
 _ZN10tensorflow13DecodeVariantINS_22VariantTensorDataProtoEEEbPNSt7__cxx1112basic_stringIcSt11char_traitsIcESaIcEEEPT_@Base 2.0.0
 _ZN10tensorflow13DecodeVariantINS_6TensorEEEbPNSt7__cxx1112basic_stringIcSt11char_traitsIcESaIcEEEPT_@Base 2.0.0
 _ZN10tensorflow13DecodeVariantIbEEbPNSt7__cxx1112basic_stringIcSt11char_traitsIcESaIcEEEPT_@Base 2.0.0
 _ZN10tensorflow13DecodeVariantIdEEbPNSt7__cxx1112basic_stringIcSt11char_traitsIcESaIcEEEPT_@Base 2.0.0
 _ZN10tensorflow13DecodeVariantIfEEbPNSt7__cxx1112basic_stringIcSt11char_traitsIcESaIcEEEPT_@Base 2.0.0
 _ZN10tensorflow13DecodeVariantIiEEbPNSt7__cxx1112basic_stringIcSt11char_traitsIcESaIcEEEPT_@Base 2.0.0
 _ZN10tensorflow13DeviceContext11ThenExecuteEPNS_6DeviceEPN15stream_executor6StreamESt8functionIFvvEE@Base 2.0.0
 _ZN10tensorflow13DeviceContext21CopyDeviceTensorToCPUEPKNS_6TensorEN4absl11string_viewEPNS_6DeviceEPS1_St8functionIFvRKNS_6StatusEEE@Base 2.0.0
 _ZN10tensorflow13DeviceFactory10AddDevicesERKNS_14SessionOptionsERKNSt7__cxx1112basic_stringIcSt11char_traitsIcESaIcEEEPSt6vectorISt10unique_ptrINS_6DeviceESt14default_deleteISE_EESaISH_EE@Base 2.0.0
 _ZN10tensorflow13DeviceFactory10GetFactoryERKNSt7__cxx1112basic_stringIcSt11char_traitsIcESaIcEEE@Base 2.0.0
 _ZN10tensorflow13DeviceFactory14DevicePriorityERKNSt7__cxx1112basic_stringIcSt11char_traitsIcESaIcEEE@Base 2.0.0
 _ZN10tensorflow13DeviceFactory22ListAllPhysicalDevicesEPSt6vectorINSt7__cxx1112basic_stringIcSt11char_traitsIcESaIcEEESaIS7_EE@Base 2.0.0
 _ZN10tensorflow13DeviceFactory8RegisterERKNSt7__cxx1112basic_stringIcSt11char_traitsIcESaIcEEEPS0_i@Base 2.0.0
 _ZN10tensorflow13DeviceFactory9NewDeviceERKNSt7__cxx1112basic_stringIcSt11char_traitsIcESaIcEEERKNS_14SessionOptionsES8_@Base 2.0.0
 _ZN10tensorflow13EncodeVariantINS_22VariantTensorDataProtoEEEvRKT_PNS_17VariantTensorDataE@Base 2.0.0
 _ZN10tensorflow13EncodeVariantINS_22VariantTensorDataProtoEEEvRKT_PNSt7__cxx1112basic_stringIcSt11char_traitsIcESaIcEEE@Base 2.0.0
 _ZN10tensorflow13EncodeVariantINS_6TensorEEEvRKT_PNSt7__cxx1112basic_stringIcSt11char_traitsIcESaIcEEE@Base 2.0.0
 _ZN10tensorflow13EncodeVariantIbEEvRKT_PNS_17VariantTensorDataE@Base 2.0.0
 _ZN10tensorflow13EncodeVariantIbEEvRKT_PNSt7__cxx1112basic_stringIcSt11char_traitsIcESaIcEEE@Base 2.0.0
 _ZN10tensorflow13EncodeVariantIdEEvRKT_PNS_17VariantTensorDataE@Base 2.0.0
 _ZN10tensorflow13EncodeVariantIdEEvRKT_PNSt7__cxx1112basic_stringIcSt11char_traitsIcESaIcEEE@Base 2.0.0
 _ZN10tensorflow13EncodeVariantIfEEvRKT_PNS_17VariantTensorDataE@Base 2.0.0
 _ZN10tensorflow13EncodeVariantIfEEvRKT_PNSt7__cxx1112basic_stringIcSt11char_traitsIcESaIcEEE@Base 2.0.0
 _ZN10tensorflow13EncodeVariantIiEEvRKT_PNS_17VariantTensorDataE@Base 2.0.0
 _ZN10tensorflow13EncodeVariantIiEEvRKT_PNSt7__cxx1112basic_stringIcSt11char_traitsIcESaIcEEE@Base 2.0.0
 _ZN10tensorflow13EqualGraphDefERKNS_8GraphDefES2_PNSt7__cxx1112basic_stringIcSt11char_traitsIcESaIcEEERKNS_20EqualGraphDefOptionsE@Base 2.0.0
 _ZN10tensorflow13FindKernelDefERKNS_10DeviceTypeEN4absl11string_viewEbRKNS_29NodeDef_ExperimentalDebugInfoES4_S4_NS_9AttrSliceEPPKNS_9KernelDefEPNSt7__cxx1112basic_stringIcSt11char_traitsIcESaIcEEE@Base 2.0.0
 _ZN10tensorflow13FindKernelDefERKNS_10DeviceTypeERKNS_7NodeDefEPPKNS_9KernelDefEPNSt7__cxx1112basic_stringIcSt11char_traitsIcESaIcEEE@Base 2.0.0
 _ZN10tensorflow13FunctionStackC1ERKNSt7__cxx1112basic_stringIcSt11char_traitsIcESaIcEEE@Base 2.0.0
 _ZN10tensorflow13FunctionStackC2ERKNSt7__cxx1112basic_stringIcSt11char_traitsIcESaIcEEE@Base 2.0.0
 _ZN10tensorflow13FunctionStackD1Ev@Base 2.0.0
 _ZN10tensorflow13FunctionStackD2Ev@Base 2.0.0
 _ZN10tensorflow13GcsFileSystem10DeleteFileERKNSt7__cxx1112basic_stringIcSt11char_traitsIcESaIcEEE@Base 2.0.0
 _ZN10tensorflow13GcsFileSystem10FileExistsERKNSt7__cxx1112basic_stringIcSt11char_traitsIcESaIcEEE@Base 2.0.0
 _ZN10tensorflow13GcsFileSystem10RenameFileERKNSt7__cxx1112basic_stringIcSt11char_traitsIcESaIcEEES8_@Base 2.0.0
 _ZN10tensorflow13GcsFileSystem11FlushCachesEv@Base 2.0.0
 _ZN10tensorflow13GcsFileSystem11GetChildrenERKNSt7__cxx1112basic_stringIcSt11char_traitsIcESaIcEEEPSt6vectorIS6_SaIS6_EE@Base 2.0.0
 _ZN10tensorflow13GcsFileSystem11GetFileSizeERKNSt7__cxx1112basic_stringIcSt11char_traitsIcESaIcEEEPy@Base 2.0.0
 _ZN10tensorflow13GcsFileSystem11IsDirectoryERKNSt7__cxx1112basic_stringIcSt11char_traitsIcESaIcEEE@Base 2.0.0
 _ZN10tensorflow13GcsFileSystem12BucketExistsERKNSt7__cxx1112basic_stringIcSt11char_traitsIcESaIcEEEPb@Base 2.0.0
 _ZN10tensorflow13GcsFileSystem12FolderExistsERKNSt7__cxx1112basic_stringIcSt11char_traitsIcESaIcEEEPb@Base 2.0.0
 _ZN10tensorflow13GcsFileSystem12ObjectExistsERKNSt7__cxx1112basic_stringIcSt11char_traitsIcESaIcEEES8_S8_Pb@Base 2.0.0
 _ZN10tensorflow13GcsFileSystem12RenameObjectERKNSt7__cxx1112basic_stringIcSt11char_traitsIcESaIcEEES8_@Base 2.0.0
 _ZN10tensorflow13GcsFileSystem13StatForObjectERKNSt7__cxx1112basic_stringIcSt11char_traitsIcESaIcEEES8_S8_PNS0_11GcsFileStatE@Base 2.0.0
 _ZN10tensorflow13GcsFileSystem15ClearFileCachesERKNSt7__cxx1112basic_stringIcSt11char_traitsIcESaIcEEE@Base 2.0.0
 _ZN10tensorflow13GcsFileSystem15NewWritableFileERKNSt7__cxx1112basic_stringIcSt11char_traitsIcESaIcEEEPSt10unique_ptrINS_12WritableFileESt14default_deleteISA_EE@Base 2.0.0
 _ZN10tensorflow13GcsFileSystem15SetAuthProviderESt10unique_ptrINS_12AuthProviderESt14default_deleteIS2_EE@Base 2.0.0
 _ZN10tensorflow13GcsFileSystem16GetMatchingPathsERKNSt7__cxx1112basic_stringIcSt11char_traitsIcESaIcEEEPSt6vectorIS6_SaIS6_EE@Base 2.0.0
 _ZN10tensorflow13GcsFileSystem17CreateHttpRequestEPSt10unique_ptrINS_11HttpRequestESt14default_deleteIS2_EE@Base 2.0.0
 _ZN10tensorflow13GcsFileSystem17DeleteRecursivelyERKNSt7__cxx1112basic_stringIcSt11char_traitsIcESaIcEEEPxS9_@Base 2.0.0
 _ZN10tensorflow13GcsFileSystem17GetBucketLocationERKNSt7__cxx1112basic_stringIcSt11char_traitsIcESaIcEEEPS6_@Base 2.0.0
 _ZN10tensorflow13GcsFileSystem17GetBucketMetadataERKNSt7__cxx1112basic_stringIcSt11char_traitsIcESaIcEEEPSt6vectorIcS5_E@Base 2.0.0
 _ZN10tensorflow13GcsFileSystem17LoadBufferFromGCSERKNSt7__cxx1112basic_stringIcSt11char_traitsIcESaIcEEEmmPcPm@Base 2.0.0
 _ZN10tensorflow13GcsFileSystem17NewAppendableFileERKNSt7__cxx1112basic_stringIcSt11char_traitsIcESaIcEEEPSt10unique_ptrINS_12WritableFileESt14default_deleteISA_EE@Base 2.0.0
 _ZN10tensorflow13GcsFileSystem18GetChildrenBoundedERKNSt7__cxx1112basic_stringIcSt11char_traitsIcESaIcEEEyPSt6vectorIS6_SaIS6_EEbb@Base 2.0.0
 _ZN10tensorflow13GcsFileSystem18MakeFileBlockCacheEmmy@Base 2.0.0
 _ZN10tensorflow13GcsFileSystem19NewRandomAccessFileERKNSt7__cxx1112basic_stringIcSt11char_traitsIcESaIcEEEPSt10unique_ptrINS_16RandomAccessFileESt14default_deleteISA_EE@Base 2.0.0
 _ZN10tensorflow13GcsFileSystem19ResetFileBlockCacheEmmy@Base 2.0.0
 _ZN10tensorflow13GcsFileSystem21UncachedStatForObjectERKNSt7__cxx1112basic_stringIcSt11char_traitsIcESaIcEEES8_S8_PNS0_11GcsFileStatE@Base 2.0.0
 _ZN10tensorflow13GcsFileSystem29CheckBucketLocationConstraintERKNSt7__cxx1112basic_stringIcSt11char_traitsIcESaIcEEE@Base 2.0.0
 _ZN10tensorflow13GcsFileSystem31NewReadOnlyMemoryRegionFromFileERKNSt7__cxx1112basic_stringIcSt11char_traitsIcESaIcEEEPSt10unique_ptrINS_20ReadOnlyMemoryRegionESt14default_deleteISA_EE@Base 2.0.0
 _ZN10tensorflow13GcsFileSystem4StatERKNSt7__cxx1112basic_stringIcSt11char_traitsIcESaIcEEEPNS_14FileStatisticsE@Base 2.0.0
 _ZN10tensorflow13GcsFileSystem8SetStatsEPNS_17GcsStatsInterfaceE@Base 2.0.0
 _ZN10tensorflow13GcsFileSystem9CreateDirERKNSt7__cxx1112basic_stringIcSt11char_traitsIcESaIcEEE@Base 2.0.0
 _ZN10tensorflow13GcsFileSystem9DeleteDirERKNSt7__cxx1112basic_stringIcSt11char_traitsIcESaIcEEE@Base 2.0.0
 _ZN10tensorflow13GcsFileSystemC1ESt10unique_ptrINS_12AuthProviderESt14default_deleteIS2_EES1_INS_11HttpRequest7FactoryES3_IS7_EES1_INS_12ZoneProviderES3_ISA_EEmmyymymNS_11RetryConfigENS0_13TimeoutConfigERKSt13unordered_setINSt7__cxx1112basic_stringIcSt11char_traitsIcESaIcEEESt4hashISL_ESt8equal_toISL_ESaISL_EEPSt4pairIKSL_SV_E@Base 2.0.0
 _ZN10tensorflow13GcsFileSystemC1Eb@Base 2.0.0
 _ZN10tensorflow13GcsFileSystemC2ESt10unique_ptrINS_12AuthProviderESt14default_deleteIS2_EES1_INS_11HttpRequest7FactoryES3_IS7_EES1_INS_12ZoneProviderES3_ISA_EEmmyymymNS_11RetryConfigENS0_13TimeoutConfigERKSt13unordered_setINSt7__cxx1112basic_stringIcSt11char_traitsIcESaIcEEESt4hashISL_ESt8equal_toISL_ESaISL_EEPSt4pairIKSL_SV_E@Base 2.0.0
 _ZN10tensorflow13GcsFileSystemC2Eb@Base 2.0.0
 _ZN10tensorflow13GcsFileSystemD0Ev@Base 2.0.0
 _ZN10tensorflow13GcsFileSystemD1Ev@Base 2.0.0
 _ZN10tensorflow13GcsFileSystemD2Ev@Base 2.0.0
 _ZN10tensorflow13IsValidOpNameEN4absl11string_viewE@Base 2.0.0
 _ZN10tensorflow13MemoryLogStep12InternalSwapEPS0_@Base 2.0.0
 _ZN10tensorflow13MemoryLogStep14_InternalParseEPKcPN6google8protobuf8internal12ParseContextE@Base 2.0.0
 _ZN10tensorflow13MemoryLogStep16default_instanceEv@Base 2.0.0
 _ZN10tensorflow13MemoryLogStep21InitAsDefaultInstanceEv@Base 2.0.0
 _ZN10tensorflow13MemoryLogStep5ClearEv@Base 2.0.0
 _ZN10tensorflow13MemoryLogStep8CopyFromERKN6google8protobuf7MessageE@Base 2.0.0
 _ZN10tensorflow13MemoryLogStep8CopyFromERKS0_@Base 2.0.0
 _ZN10tensorflow13MemoryLogStep9ArenaDtorEPv@Base 2.0.0
 _ZN10tensorflow13MemoryLogStep9MergeFromERKN6google8protobuf7MessageE@Base 2.0.0
 _ZN10tensorflow13MemoryLogStep9MergeFromERKS0_@Base 2.0.0
 _ZN10tensorflow13MemoryLogStepC1EPN6google8protobuf5ArenaE@Base 2.0.0
 _ZN10tensorflow13MemoryLogStepC1ERKS0_@Base 2.0.0
 _ZN10tensorflow13MemoryLogStepC1Ev@Base 2.0.0
 _ZN10tensorflow13MemoryLogStepC2EPN6google8protobuf5ArenaE@Base 2.0.0
 _ZN10tensorflow13MemoryLogStepC2ERKS0_@Base 2.0.0
 _ZN10tensorflow13MemoryLogStepC2Ev@Base 2.0.0
 _ZN10tensorflow13MemoryLogStepD0Ev@Base 2.0.0
 _ZN10tensorflow13MemoryLogStepD1Ev@Base 2.0.0
 _ZN10tensorflow13MemoryLogStepD2Ev@Base 2.0.0
 _ZN10tensorflow13MoveAttrValueEOSt6vectorINSt7__cxx1112basic_stringIcSt11char_traitsIcESaIcEEESaIS6_EEPNS_9AttrValueE@Base 2.0.0
 _ZN10tensorflow13MovingAverage5ClearEv@Base 2.0.0
 _ZN10tensorflow13MovingAverage8AddValueEd@Base 2.0.0
 _ZN10tensorflow13MovingAverageC1Ei@Base 2.0.0
 _ZN10tensorflow13MovingAverageC2Ei@Base 2.0.0
 _ZN10tensorflow13MovingAverageD1Ev@Base 2.0.0
 _ZN10tensorflow13MovingAverageD2Ev@Base 2.0.0
 _ZN10tensorflow13NodeDebugInfoC1EN4absl11string_viewEbRKNS_29NodeDef_ExperimentalDebugInfoE@Base 2.0.0
 _ZN10tensorflow13NodeDebugInfoC1ERKNS_4NodeE@Base 2.0.0
 _ZN10tensorflow13NodeDebugInfoC1ERKNS_7NodeDefE@Base 2.0.0
 _ZN10tensorflow13NodeDebugInfoC2EN4absl11string_viewEbRKNS_29NodeDef_ExperimentalDebugInfoE@Base 2.0.0
 _ZN10tensorflow13NodeDebugInfoC2ERKNS_4NodeE@Base 2.0.0
 _ZN10tensorflow13NodeDebugInfoC2ERKNS_7NodeDefE@Base 2.0.0
 _ZN10tensorflow13NodeDebugInfoD1Ev@Base 2.0.0
 _ZN10tensorflow13NodeDebugInfoD2Ev@Base 2.0.0
 _ZN10tensorflow13NodeExecStats12InternalSwapEPS0_@Base 2.0.0
 _ZN10tensorflow13NodeExecStats14_InternalParseEPKcPN6google8protobuf8internal12ParseContextE@Base 2.0.0
 _ZN10tensorflow13NodeExecStats16default_instanceEv@Base 2.0.0
 _ZN10tensorflow13NodeExecStats21InitAsDefaultInstanceEv@Base 2.0.0
 _ZN10tensorflow13NodeExecStats23clear_referenced_tensorEv@Base 2.0.0
 _ZN10tensorflow13NodeExecStats39unsafe_arena_set_allocated_memory_statsEPNS_11MemoryStatsE@Base 2.0.0
 _ZN10tensorflow13NodeExecStats5ClearEv@Base 2.0.0
 _ZN10tensorflow13NodeExecStats8CopyFromERKN6google8protobuf7MessageE@Base 2.0.0
 _ZN10tensorflow13NodeExecStats8CopyFromERKS0_@Base 2.0.0
 _ZN10tensorflow13NodeExecStats9ArenaDtorEPv@Base 2.0.0
 _ZN10tensorflow13NodeExecStats9MergeFromERKN6google8protobuf7MessageE@Base 2.0.0
 _ZN10tensorflow13NodeExecStats9MergeFromERKS0_@Base 2.0.0
 _ZN10tensorflow13NodeExecStats9_Internal12memory_statsEPKS0_@Base 2.0.0
 _ZN10tensorflow13NodeExecStatsC1EPN6google8protobuf5ArenaE@Base 2.0.0
 _ZN10tensorflow13NodeExecStatsC1ERKS0_@Base 2.0.0
 _ZN10tensorflow13NodeExecStatsC1Ev@Base 2.0.0
 _ZN10tensorflow13NodeExecStatsC2EPN6google8protobuf5ArenaE@Base 2.0.0
 _ZN10tensorflow13NodeExecStatsC2ERKS0_@Base 2.0.0
 _ZN10tensorflow13NodeExecStatsC2Ev@Base 2.0.0
 _ZN10tensorflow13NodeExecStatsD0Ev@Base 2.0.0
 _ZN10tensorflow13NodeExecStatsD1Ev@Base 2.0.0
 _ZN10tensorflow13NodeExecStatsD2Ev@Base 2.0.0
 _ZN10tensorflow13OpDef_AttrDef12InternalSwapEPS0_@Base 2.0.0
 _ZN10tensorflow13OpDef_AttrDef14_InternalParseEPKcPN6google8protobuf8internal12ParseContextE@Base 2.0.0
 _ZN10tensorflow13OpDef_AttrDef16default_instanceEv@Base 2.0.0
 _ZN10tensorflow13OpDef_AttrDef19clear_default_valueEv@Base 2.0.0
 _ZN10tensorflow13OpDef_AttrDef20clear_allowed_valuesEv@Base 2.0.0
 _ZN10tensorflow13OpDef_AttrDef21InitAsDefaultInstanceEv@Base 2.0.0
 _ZN10tensorflow13OpDef_AttrDef40unsafe_arena_set_allocated_default_valueEPNS_9AttrValueE@Base 2.0.0
 _ZN10tensorflow13OpDef_AttrDef41unsafe_arena_set_allocated_allowed_valuesEPNS_9AttrValueE@Base 2.0.0
 _ZN10tensorflow13OpDef_AttrDef5ClearEv@Base 2.0.0
 _ZN10tensorflow13OpDef_AttrDef8CopyFromERKN6google8protobuf7MessageE@Base 2.0.0
 _ZN10tensorflow13OpDef_AttrDef8CopyFromERKS0_@Base 2.0.0
 _ZN10tensorflow13OpDef_AttrDef9ArenaDtorEPv@Base 2.0.0
 _ZN10tensorflow13OpDef_AttrDef9MergeFromERKN6google8protobuf7MessageE@Base 2.0.0
 _ZN10tensorflow13OpDef_AttrDef9MergeFromERKS0_@Base 2.0.0
 _ZN10tensorflow13OpDef_AttrDef9_Internal13default_valueEPKS0_@Base 2.0.0
 _ZN10tensorflow13OpDef_AttrDef9_Internal14allowed_valuesEPKS0_@Base 2.0.0
 _ZN10tensorflow13OpDef_AttrDefC1EPN6google8protobuf5ArenaE@Base 2.0.0
 _ZN10tensorflow13OpDef_AttrDefC1ERKS0_@Base 2.0.0
 _ZN10tensorflow13OpDef_AttrDefC1Ev@Base 2.0.0
 _ZN10tensorflow13OpDef_AttrDefC2EPN6google8protobuf5ArenaE@Base 2.0.0
 _ZN10tensorflow13OpDef_AttrDefC2ERKS0_@Base 2.0.0
 _ZN10tensorflow13OpDef_AttrDefC2Ev@Base 2.0.0
 _ZN10tensorflow13OpDef_AttrDefD0Ev@Base 2.0.0
 _ZN10tensorflow13OpDef_AttrDefD1Ev@Base 2.0.0
 _ZN10tensorflow13OpDef_AttrDefD2Ev@Base 2.0.0
 _ZN10tensorflow13OpDeprecation12InternalSwapEPS0_@Base 2.0.0
 _ZN10tensorflow13OpDeprecation14_InternalParseEPKcPN6google8protobuf8internal12ParseContextE@Base 2.0.0
 _ZN10tensorflow13OpDeprecation16default_instanceEv@Base 2.0.0
 _ZN10tensorflow13OpDeprecation21InitAsDefaultInstanceEv@Base 2.0.0
 _ZN10tensorflow13OpDeprecation5ClearEv@Base 2.0.0
 _ZN10tensorflow13OpDeprecation8CopyFromERKN6google8protobuf7MessageE@Base 2.0.0
 _ZN10tensorflow13OpDeprecation8CopyFromERKS0_@Base 2.0.0
 _ZN10tensorflow13OpDeprecation9ArenaDtorEPv@Base 2.0.0
 _ZN10tensorflow13OpDeprecation9MergeFromERKN6google8protobuf7MessageE@Base 2.0.0
 _ZN10tensorflow13OpDeprecation9MergeFromERKS0_@Base 2.0.0
 _ZN10tensorflow13OpDeprecationC1EPN6google8protobuf5ArenaE@Base 2.0.0
 _ZN10tensorflow13OpDeprecationC1ERKS0_@Base 2.0.0
 _ZN10tensorflow13OpDeprecationC1Ev@Base 2.0.0
 _ZN10tensorflow13OpDeprecationC2EPN6google8protobuf5ArenaE@Base 2.0.0
 _ZN10tensorflow13OpDeprecationC2ERKS0_@Base 2.0.0
 _ZN10tensorflow13OpDeprecationC2Ev@Base 2.0.0
 _ZN10tensorflow13OpDeprecationD0Ev@Base 2.0.0
 _ZN10tensorflow13OpDeprecationD1Ev@Base 2.0.0
 _ZN10tensorflow13OpDeprecationD2Ev@Base 2.0.0
 _ZN10tensorflow13OpPerformance12InternalSwapEPS0_@Base 2.0.0
 _ZN10tensorflow13OpPerformance14_InternalParseEPKcPN6google8protobuf8internal12ParseContextE@Base 2.0.0
 _ZN10tensorflow13OpPerformance16default_instanceEv@Base 2.0.0
 _ZN10tensorflow13OpPerformance20clear_execution_timeEv@Base 2.0.0
 _ZN10tensorflow13OpPerformance21InitAsDefaultInstanceEv@Base 2.0.0
 _ZN10tensorflow13OpPerformance29unsafe_arena_set_allocated_opEPNS_6OpInfoE@Base 2.0.0
 _ZN10tensorflow13OpPerformance35set_allocated_execution_time_normalEPNS_18NormalDistributionE@Base 2.0.0
 _ZN10tensorflow13OpPerformance36unsafe_arena_set_allocated_op_memoryEPNS_22OpPerformance_OpMemoryE@Base 2.0.0
 _ZN10tensorflow13OpPerformance39set_allocated_execution_time_log_normalEPNS_21LogNormalDistributionE@Base 2.0.0
 _ZN10tensorflow13OpPerformance39unsafe_arena_set_allocated_session_infoEPNS_11SessionInfoE@Base 2.0.0
 _ZN10tensorflow13OpPerformance5ClearEv@Base 2.0.0
 _ZN10tensorflow13OpPerformance8CopyFromERKN6google8protobuf7MessageE@Base 2.0.0
 _ZN10tensorflow13OpPerformance8CopyFromERKS0_@Base 2.0.0
 _ZN10tensorflow13OpPerformance9ArenaDtorEPv@Base 2.0.0
 _ZN10tensorflow13OpPerformance9MergeFromERKN6google8protobuf7MessageE@Base 2.0.0
 _ZN10tensorflow13OpPerformance9MergeFromERKS0_@Base 2.0.0
 _ZN10tensorflow13OpPerformance9_Internal12session_infoEPKS0_@Base 2.0.0
 _ZN10tensorflow13OpPerformance9_Internal21execution_time_normalEPKS0_@Base 2.0.0
 _ZN10tensorflow13OpPerformance9_Internal25execution_time_log_normalEPKS0_@Base 2.0.0
 _ZN10tensorflow13OpPerformance9_Internal2opEPKS0_@Base 2.0.0
 _ZN10tensorflow13OpPerformance9_Internal9op_memoryEPKS0_@Base 2.0.0
 _ZN10tensorflow13OpPerformanceC1EPN6google8protobuf5ArenaE@Base 2.0.0
 _ZN10tensorflow13OpPerformanceC1ERKS0_@Base 2.0.0
 _ZN10tensorflow13OpPerformanceC1Ev@Base 2.0.0
 _ZN10tensorflow13OpPerformanceC2EPN6google8protobuf5ArenaE@Base 2.0.0
 _ZN10tensorflow13OpPerformanceC2ERKS0_@Base 2.0.0
 _ZN10tensorflow13OpPerformanceC2Ev@Base 2.0.0
 _ZN10tensorflow13OpPerformanceD0Ev@Base 2.0.0
 _ZN10tensorflow13OpPerformanceD1Ev@Base 2.0.0
 _ZN10tensorflow13OpPerformanceD2Ev@Base 2.0.0
 _ZN10tensorflow13OptimizeGraphEPNS_22FunctionLibraryRuntimeEPSt10unique_ptrINS_5GraphESt14default_deleteIS3_EE@Base 2.0.0
 _ZN10tensorflow13OptimizeGraphEPNS_22FunctionLibraryRuntimeEPSt10unique_ptrINS_5GraphESt14default_deleteIS3_EERKNS_14GraphOptimizer7OptionsE@Base 2.0.0
 _ZN10tensorflow13PendingCountsC1ERKS0_@Base 2.0.0
 _ZN10tensorflow13PendingCountsC2ERKS0_@Base 2.0.0
 _ZN10tensorflow13PoolAllocator11AllocateRawEmm@Base 2.0.0
 _ZN10tensorflow13PoolAllocator13DeallocateRawEPv@Base 2.0.0
 _ZN10tensorflow13PoolAllocator14RemoveFromListEPNS0_9PtrRecordE@Base 2.0.0
 _ZN10tensorflow13PoolAllocator4NameB5cxx11Ev@Base 2.0.0
 _ZN10tensorflow13PoolAllocator5ClearEv@Base 2.0.0
 _ZN10tensorflow13PoolAllocator8EvictOneEv@Base 2.0.0
 _ZN10tensorflow13PoolAllocator9AddToListEPNS0_9PtrRecordE@Base 2.0.0
 _ZN10tensorflow13PoolAllocatorC1EmbPNS_12SubAllocatorEPNS_16RoundUpInterfaceENSt7__cxx1112basic_stringIcSt11char_traitsIcESaIcEEE@Base 2.0.0
 _ZN10tensorflow13PoolAllocatorC2EmbPNS_12SubAllocatorEPNS_16RoundUpInterfaceENSt7__cxx1112basic_stringIcSt11char_traitsIcESaIcEEE@Base 2.0.0
 _ZN10tensorflow13PoolAllocatorD0Ev@Base 2.0.0
 _ZN10tensorflow13PoolAllocatorD1Ev@Base 2.0.0
 _ZN10tensorflow13PoolAllocatorD2Ev@Base 2.0.0
 _ZN10tensorflow13ReadTextProtoEPNS_3EnvERKNSt7__cxx1112basic_stringIcSt11char_traitsIcESaIcEEEPN6google8protobuf7MessageE@Base 2.0.0
 _ZN10tensorflow13RenamedDevice12ComputeAsyncEPNS_13AsyncOpKernelEPNS_15OpKernelContextESt8functionIFvvEE@Base 2.0.0
 _ZN10tensorflow13RenamedDevice12GetAllocatorENS_19AllocatorAttributesE@Base 2.0.0
 _ZN10tensorflow13RenamedDevice13MakeGpuDeviceEv@Base 2.0.0
 _ZN10tensorflow13RenamedDevice14FillContextMapEPKNS_5GraphEPSt6vectorIPNS_13DeviceContextESaIS6_EE@Base 2.0.0
 _ZN10tensorflow13RenamedDevice16NewRenamedDeviceERKNSt7__cxx1112basic_stringIcSt11char_traitsIcESaIcEEEPNS_6DeviceEbbPNS_6thread19ThreadPoolInterfaceE@Base 2.0.0
 _ZN10tensorflow13RenamedDevice16UnderlyingDeviceEv@Base 2.0.0
 _ZN10tensorflow13RenamedDevice16eigen_cpu_deviceEv@Base 2.0.0
 _ZN10tensorflow13RenamedDevice16resource_managerEv@Base 2.0.0
 _ZN10tensorflow13RenamedDevice17MaybeRewriteGraphEPSt10unique_ptrINS_5GraphESt14default_deleteIS2_EE@Base 2.0.0
 _ZN10tensorflow13RenamedDevice18GetScopedAllocatorENS_19AllocatorAttributesEx@Base 2.0.0
 _ZN10tensorflow13RenamedDevice19MakeTensorFromProtoERKNS_11TensorProtoENS_19AllocatorAttributesEPNS_6TensorE@Base 2.0.0
 _ZN10tensorflow13RenamedDevice21ReinitializeGpuDeviceEPNS_15OpKernelContextEPNS_14PerOpGpuDeviceEPNS_13DeviceContextEPNS_9AllocatorE@Base 2.0.0
 _ZN10tensorflow13RenamedDevice22CopyTensorInSameDeviceEPKNS_6TensorEPS1_PKNS_13DeviceContextESt8functionIFvRKNS_6StatusEEE@Base 2.0.0
 _ZN10tensorflow13RenamedDevice28ConsumeListOfAccessedTensorsEPNS_13DeviceContextERKN4absl13InlinedVectorINS_15TensorReferenceELm4ESaIS5_EEE@Base 2.0.0
 _ZN10tensorflow13RenamedDevice29tensorflow_device_thread_poolEv@Base 2.0.0
 _ZN10tensorflow13RenamedDevice4SyncEv@Base 2.0.0
 _ZN10tensorflow13RenamedDevice7ComputeEPNS_8OpKernelEPNS_15OpKernelContextE@Base 2.0.0
 _ZN10tensorflow13RenamedDeviceC1EPNS_6DeviceERKNS_16DeviceAttributesEbbPNS_6thread19ThreadPoolInterfaceE@Base 2.0.0
 _ZN10tensorflow13RenamedDeviceC2EPNS_6DeviceERKNS_16DeviceAttributesEbbPNS_6thread19ThreadPoolInterfaceE@Base 2.0.0
 _ZN10tensorflow13RenamedDeviceD0Ev@Base 2.0.0
 _ZN10tensorflow13RenamedDeviceD1Ev@Base 2.0.0
 _ZN10tensorflow13RenamedDeviceD2Ev@Base 2.0.0
 _ZN10tensorflow13RetryingUtils15CallWithRetriesERKSt8functionIFNS_6StatusEvEERKNS_11RetryConfigE@Base 2.0.0
 _ZN10tensorflow13RetryingUtils15CallWithRetriesERKSt8functionIFNS_6StatusEvEERKS1_IFvxEERKNS_11RetryConfigE@Base 2.0.0
 _ZN10tensorflow13RetryingUtils17DeleteWithRetriesERKSt8functionIFNS_6StatusEvEERKNS_11RetryConfigE@Base 2.0.0
 _ZN10tensorflow13RewriteIfNodeEPNS_4NodeEPNS_5GraphEb@Base 2.0.0
 _ZN10tensorflow13SavedConstant12InternalSwapEPS0_@Base 2.0.0
 _ZN10tensorflow13SavedConstant14_InternalParseEPKcPN6google8protobuf8internal12ParseContextE@Base 2.0.0
 _ZN10tensorflow13SavedConstant16default_instanceEv@Base 2.0.0
 _ZN10tensorflow13SavedConstant21InitAsDefaultInstanceEv@Base 2.0.0
 _ZN10tensorflow13SavedConstant5ClearEv@Base 2.0.0
 _ZN10tensorflow13SavedConstant8CopyFromERKN6google8protobuf7MessageE@Base 2.0.0
 _ZN10tensorflow13SavedConstant8CopyFromERKS0_@Base 2.0.0
 _ZN10tensorflow13SavedConstant9ArenaDtorEPv@Base 2.0.0
 _ZN10tensorflow13SavedConstant9MergeFromERKN6google8protobuf7MessageE@Base 2.0.0
 _ZN10tensorflow13SavedConstant9MergeFromERKS0_@Base 2.0.0
 _ZN10tensorflow13SavedConstantC1EPN6google8protobuf5ArenaE@Base 2.0.0
 _ZN10tensorflow13SavedConstantC1ERKS0_@Base 2.0.0
 _ZN10tensorflow13SavedConstantC1Ev@Base 2.0.0
 _ZN10tensorflow13SavedConstantC2EPN6google8protobuf5ArenaE@Base 2.0.0
 _ZN10tensorflow13SavedConstantC2ERKS0_@Base 2.0.0
 _ZN10tensorflow13SavedConstantC2Ev@Base 2.0.0
 _ZN10tensorflow13SavedConstantD0Ev@Base 2.0.0
 _ZN10tensorflow13SavedConstantD1Ev@Base 2.0.0
 _ZN10tensorflow13SavedConstantD2Ev@Base 2.0.0
 _ZN10tensorflow13SavedFunction12InternalSwapEPS0_@Base 2.0.0
 _ZN10tensorflow13SavedFunction14_InternalParseEPKcPN6google8protobuf8internal12ParseContextE@Base 2.0.0
 _ZN10tensorflow13SavedFunction16default_instanceEv@Base 2.0.0
 _ZN10tensorflow13SavedFunction21InitAsDefaultInstanceEv@Base 2.0.0
 _ZN10tensorflow13SavedFunction40unsafe_arena_set_allocated_function_specEPNS_12FunctionSpecE@Base 2.0.0
 _ZN10tensorflow13SavedFunction5ClearEv@Base 2.0.0
 _ZN10tensorflow13SavedFunction8CopyFromERKN6google8protobuf7MessageE@Base 2.0.0
 _ZN10tensorflow13SavedFunction8CopyFromERKS0_@Base 2.0.0
 _ZN10tensorflow13SavedFunction9ArenaDtorEPv@Base 2.0.0
 _ZN10tensorflow13SavedFunction9MergeFromERKN6google8protobuf7MessageE@Base 2.0.0
 _ZN10tensorflow13SavedFunction9MergeFromERKS0_@Base 2.0.0
 _ZN10tensorflow13SavedFunction9_Internal13function_specEPKS0_@Base 2.0.0
 _ZN10tensorflow13SavedFunctionC1EPN6google8protobuf5ArenaE@Base 2.0.0
 _ZN10tensorflow13SavedFunctionC1ERKS0_@Base 2.0.0
 _ZN10tensorflow13SavedFunctionC1Ev@Base 2.0.0
 _ZN10tensorflow13SavedFunctionC2EPN6google8protobuf5ArenaE@Base 2.0.0
 _ZN10tensorflow13SavedFunctionC2ERKS0_@Base 2.0.0
 _ZN10tensorflow13SavedFunctionC2Ev@Base 2.0.0
 _ZN10tensorflow13SavedFunctionD0Ev@Base 2.0.0
 _ZN10tensorflow13SavedFunctionD1Ev@Base 2.0.0
 _ZN10tensorflow13SavedFunctionD2Ev@Base 2.0.0
 _ZN10tensorflow13SavedResource12InternalSwapEPS0_@Base 2.0.0
 _ZN10tensorflow13SavedResource14_InternalParseEPKcPN6google8protobuf8internal12ParseContextE@Base 2.0.0
 _ZN10tensorflow13SavedResource16default_instanceEv@Base 2.0.0
 _ZN10tensorflow13SavedResource21InitAsDefaultInstanceEv@Base 2.0.0
 _ZN10tensorflow13SavedResource5ClearEv@Base 2.0.0
 _ZN10tensorflow13SavedResource8CopyFromERKN6google8protobuf7MessageE@Base 2.0.0
 _ZN10tensorflow13SavedResource8CopyFromERKS0_@Base 2.0.0
 _ZN10tensorflow13SavedResource9ArenaDtorEPv@Base 2.0.0
 _ZN10tensorflow13SavedResource9MergeFromERKN6google8protobuf7MessageE@Base 2.0.0
 _ZN10tensorflow13SavedResource9MergeFromERKS0_@Base 2.0.0
 _ZN10tensorflow13SavedResourceC1EPN6google8protobuf5ArenaE@Base 2.0.0
 _ZN10tensorflow13SavedResourceC1ERKS0_@Base 2.0.0
 _ZN10tensorflow13SavedResourceC1Ev@Base 2.0.0
 _ZN10tensorflow13SavedResourceC2EPN6google8protobuf5ArenaE@Base 2.0.0
 _ZN10tensorflow13SavedResourceC2ERKS0_@Base 2.0.0
 _ZN10tensorflow13SavedResourceC2Ev@Base 2.0.0
 _ZN10tensorflow13SavedResourceD0Ev@Base 2.0.0
 _ZN10tensorflow13SavedResourceD1Ev@Base 2.0.0
 _ZN10tensorflow13SavedResourceD2Ev@Base 2.0.0
 _ZN10tensorflow13SavedVariable11clear_shapeEv@Base 2.0.0
 _ZN10tensorflow13SavedVariable12InternalSwapEPS0_@Base 2.0.0
 _ZN10tensorflow13SavedVariable14_InternalParseEPKcPN6google8protobuf8internal12ParseContextE@Base 2.0.0
 _ZN10tensorflow13SavedVariable16default_instanceEv@Base 2.0.0
 _ZN10tensorflow13SavedVariable21InitAsDefaultInstanceEv@Base 2.0.0
 _ZN10tensorflow13SavedVariable32unsafe_arena_set_allocated_shapeEPNS_16TensorShapeProtoE@Base 2.0.0
 _ZN10tensorflow13SavedVariable5ClearEv@Base 2.0.0
 _ZN10tensorflow13SavedVariable8CopyFromERKN6google8protobuf7MessageE@Base 2.0.0
 _ZN10tensorflow13SavedVariable8CopyFromERKS0_@Base 2.0.0
 _ZN10tensorflow13SavedVariable9ArenaDtorEPv@Base 2.0.0
 _ZN10tensorflow13SavedVariable9MergeFromERKN6google8protobuf7MessageE@Base 2.0.0
 _ZN10tensorflow13SavedVariable9MergeFromERKS0_@Base 2.0.0
 _ZN10tensorflow13SavedVariable9_Internal5shapeEPKS0_@Base 2.0.0
 _ZN10tensorflow13SavedVariableC1EPN6google8protobuf5ArenaE@Base 2.0.0
 _ZN10tensorflow13SavedVariableC1ERKS0_@Base 2.0.0
 _ZN10tensorflow13SavedVariableC1Ev@Base 2.0.0
 _ZN10tensorflow13SavedVariableC2EPN6google8protobuf5ArenaE@Base 2.0.0
 _ZN10tensorflow13SavedVariableC2ERKS0_@Base 2.0.0
 _ZN10tensorflow13SavedVariableC2Ev@Base 2.0.0
 _ZN10tensorflow13SavedVariableD0Ev@Base 2.0.0
 _ZN10tensorflow13SavedVariableD1Ev@Base 2.0.0
 _ZN10tensorflow13SavedVariableD2Ev@Base 2.0.0
 _ZN10tensorflow13SummarizeNodeB5cxx11ERKNS_4NodeE@Base 2.0.0
 _ZN10tensorflow13Summary_Audio12InternalSwapEPS0_@Base 2.0.0
 _ZN10tensorflow13Summary_Audio14_InternalParseEPKcPN6google8protobuf8internal12ParseContextE@Base 2.0.0
 _ZN10tensorflow13Summary_Audio16default_instanceEv@Base 2.0.0
 _ZN10tensorflow13Summary_Audio21InitAsDefaultInstanceEv@Base 2.0.0
 _ZN10tensorflow13Summary_Audio5ClearEv@Base 2.0.0
 _ZN10tensorflow13Summary_Audio8CopyFromERKN6google8protobuf7MessageE@Base 2.0.0
 _ZN10tensorflow13Summary_Audio8CopyFromERKS0_@Base 2.0.0
 _ZN10tensorflow13Summary_Audio9ArenaDtorEPv@Base 2.0.0
 _ZN10tensorflow13Summary_Audio9MergeFromERKN6google8protobuf7MessageE@Base 2.0.0
 _ZN10tensorflow13Summary_Audio9MergeFromERKS0_@Base 2.0.0
 _ZN10tensorflow13Summary_AudioC1EPN6google8protobuf5ArenaE@Base 2.0.0
 _ZN10tensorflow13Summary_AudioC1ERKS0_@Base 2.0.0
 _ZN10tensorflow13Summary_AudioC1Ev@Base 2.0.0
 _ZN10tensorflow13Summary_AudioC2EPN6google8protobuf5ArenaE@Base 2.0.0
 _ZN10tensorflow13Summary_AudioC2ERKS0_@Base 2.0.0
 _ZN10tensorflow13Summary_AudioC2Ev@Base 2.0.0
 _ZN10tensorflow13Summary_AudioD0Ev@Base 2.0.0
 _ZN10tensorflow13Summary_AudioD1Ev@Base 2.0.0
 _ZN10tensorflow13Summary_AudioD2Ev@Base 2.0.0
 _ZN10tensorflow13Summary_Image12InternalSwapEPS0_@Base 2.0.0
 _ZN10tensorflow13Summary_Image14_InternalParseEPKcPN6google8protobuf8internal12ParseContextE@Base 2.0.0
 _ZN10tensorflow13Summary_Image16default_instanceEv@Base 2.0.0
 _ZN10tensorflow13Summary_Image21InitAsDefaultInstanceEv@Base 2.0.0
 _ZN10tensorflow13Summary_Image5ClearEv@Base 2.0.0
 _ZN10tensorflow13Summary_Image8CopyFromERKN6google8protobuf7MessageE@Base 2.0.0
 _ZN10tensorflow13Summary_Image8CopyFromERKS0_@Base 2.0.0
 _ZN10tensorflow13Summary_Image9ArenaDtorEPv@Base 2.0.0
 _ZN10tensorflow13Summary_Image9MergeFromERKN6google8protobuf7MessageE@Base 2.0.0
 _ZN10tensorflow13Summary_Image9MergeFromERKS0_@Base 2.0.0
 _ZN10tensorflow13Summary_ImageC1EPN6google8protobuf5ArenaE@Base 2.0.0
 _ZN10tensorflow13Summary_ImageC1ERKS0_@Base 2.0.0
 _ZN10tensorflow13Summary_ImageC1Ev@Base 2.0.0
 _ZN10tensorflow13Summary_ImageC2EPN6google8protobuf5ArenaE@Base 2.0.0
 _ZN10tensorflow13Summary_ImageC2ERKS0_@Base 2.0.0
 _ZN10tensorflow13Summary_ImageC2Ev@Base 2.0.0
 _ZN10tensorflow13Summary_ImageD0Ev@Base 2.0.0
 _ZN10tensorflow13Summary_ImageD1Ev@Base 2.0.0
 _ZN10tensorflow13Summary_ImageD2Ev@Base 2.0.0
 _ZN10tensorflow13Summary_Value11clear_valueEv@Base 2.0.0
 _ZN10tensorflow13Summary_Value12InternalSwapEPS0_@Base 2.0.0
 _ZN10tensorflow13Summary_Value12clear_tensorEv@Base 2.0.0
 _ZN10tensorflow13Summary_Value14_InternalParseEPKcPN6google8protobuf8internal12ParseContextE@Base 2.0.0
 _ZN10tensorflow13Summary_Value16default_instanceEv@Base 2.0.0
 _ZN10tensorflow13Summary_Value19set_allocated_audioEPNS_13Summary_AudioE@Base 2.0.0
 _ZN10tensorflow13Summary_Value19set_allocated_histoEPNS_14HistogramProtoE@Base 2.0.0
 _ZN10tensorflow13Summary_Value19set_allocated_imageEPNS_13Summary_ImageE@Base 2.0.0
 _ZN10tensorflow13Summary_Value20set_allocated_tensorEPNS_11TensorProtoE@Base 2.0.0
 _ZN10tensorflow13Summary_Value21InitAsDefaultInstanceEv@Base 2.0.0
 _ZN10tensorflow13Summary_Value35unsafe_arena_set_allocated_metadataEPNS_15SummaryMetadataE@Base 2.0.0
 _ZN10tensorflow13Summary_Value5ClearEv@Base 2.0.0
 _ZN10tensorflow13Summary_Value8CopyFromERKN6google8protobuf7MessageE@Base 2.0.0
 _ZN10tensorflow13Summary_Value8CopyFromERKS0_@Base 2.0.0
 _ZN10tensorflow13Summary_Value9ArenaDtorEPv@Base 2.0.0
 _ZN10tensorflow13Summary_Value9MergeFromERKN6google8protobuf7MessageE@Base 2.0.0
 _ZN10tensorflow13Summary_Value9MergeFromERKS0_@Base 2.0.0
 _ZN10tensorflow13Summary_Value9_Internal5audioEPKS0_@Base 2.0.0
 _ZN10tensorflow13Summary_Value9_Internal5histoEPKS0_@Base 2.0.0
 _ZN10tensorflow13Summary_Value9_Internal5imageEPKS0_@Base 2.0.0
 _ZN10tensorflow13Summary_Value9_Internal6tensorEPKS0_@Base 2.0.0
 _ZN10tensorflow13Summary_Value9_Internal8metadataEPKS0_@Base 2.0.0
 _ZN10tensorflow13Summary_ValueC1EPN6google8protobuf5ArenaE@Base 2.0.0
 _ZN10tensorflow13Summary_ValueC1ERKS0_@Base 2.0.0
 _ZN10tensorflow13Summary_ValueC1Ev@Base 2.0.0
 _ZN10tensorflow13Summary_ValueC2EPN6google8protobuf5ArenaE@Base 2.0.0
 _ZN10tensorflow13Summary_ValueC2ERKS0_@Base 2.0.0
 _ZN10tensorflow13Summary_ValueC2Ev@Base 2.0.0
 _ZN10tensorflow13Summary_ValueD0Ev@Base 2.0.0
 _ZN10tensorflow13Summary_ValueD1Ev@Base 2.0.0
 _ZN10tensorflow13Summary_ValueD2Ev@Base 2.0.0
 _ZN10tensorflow13TypeSpecProto12InternalSwapEPS0_@Base 2.0.0
 _ZN10tensorflow13TypeSpecProto13OPTIONAL_SPECE@Base 2.0.0
 _ZN10tensorflow13TypeSpecProto14_InternalParseEPKcPN6google8protobuf8internal12ParseContextE@Base 2.0.0
 _ZN10tensorflow13TypeSpecProto16PER_REPLICA_SPECE@Base 2.0.0
 _ZN10tensorflow13TypeSpecProto16default_instanceEv@Base 2.0.0
 _ZN10tensorflow13TypeSpecProto17DATA_DATASET_SPECE@Base 2.0.0
 _ZN10tensorflow13TypeSpecProto17TENSOR_ARRAY_SPECE@Base 2.0.0
 _ZN10tensorflow13TypeSpecProto17TypeSpecClass_MAXE@Base 2.0.0
 _ZN10tensorflow13TypeSpecProto17TypeSpecClass_MINE@Base 2.0.0
 _ZN10tensorflow13TypeSpecProto18DATA_ITERATOR_SPECE@Base 2.0.0
 _ZN10tensorflow13TypeSpecProto18RAGGED_TENSOR_SPECE@Base 2.0.0
 _ZN10tensorflow13TypeSpecProto18SPARSE_TENSOR_SPECE@Base 2.0.0
 _ZN10tensorflow13TypeSpecProto19INDEXED_SLICES_SPECE@Base 2.0.0
 _ZN10tensorflow13TypeSpecProto21InitAsDefaultInstanceEv@Base 2.0.0
 _ZN10tensorflow13TypeSpecProto23TypeSpecClass_ARRAYSIZEE@Base 2.0.0
 _ZN10tensorflow13TypeSpecProto5ClearEv@Base 2.0.0
 _ZN10tensorflow13TypeSpecProto7UNKNOWNE@Base 2.0.0
 _ZN10tensorflow13TypeSpecProto8CopyFromERKN6google8protobuf7MessageE@Base 2.0.0
 _ZN10tensorflow13TypeSpecProto8CopyFromERKS0_@Base 2.0.0
 _ZN10tensorflow13TypeSpecProto9MergeFromERKN6google8protobuf7MessageE@Base 2.0.0
 _ZN10tensorflow13TypeSpecProto9MergeFromERKS0_@Base 2.0.0
 _ZN10tensorflow13TypeSpecProto9_Internal10type_stateEPKS0_@Base 2.0.0
 _ZN10tensorflow13TypeSpecProtoC1ERKS0_@Base 2.0.0
 _ZN10tensorflow13TypeSpecProtoC1Ev@Base 2.0.0
 _ZN10tensorflow13TypeSpecProtoC2ERKS0_@Base 2.0.0
 _ZN10tensorflow13TypeSpecProtoC2Ev@Base 2.0.0
 _ZN10tensorflow13TypeSpecProtoD0Ev@Base 2.0.0
 _ZN10tensorflow13TypeSpecProtoD1Ev@Base 2.0.0
 _ZN10tensorflow13TypeSpecProtoD2Ev@Base 2.0.0
 _ZN10tensorflow13ValidateOpDefERKNS_5OpDefE@Base 2.0.0
 _ZN10tensorflow13cpu_allocatorEi@Base 2.0.0
 _ZN10tensorflow13gpu_event_mgr11ThreadLabel6value_E@Base 2.0.0
 _ZN10tensorflow13gpu_event_mgr16WarnIfInCallbackESt8functionIFvvEE@Base 2.0.0
 _ZN10tensorflow13gpu_event_mgr20InitThreadpoolLabelsEPNS_6thread10ThreadPoolE@Base 2.0.0
 _ZN10tensorflow13profile_utils8CpuUtils15ResetClockCycleEv@Base 2.0.0
 _ZN10tensorflow13profile_utils8CpuUtils17INVALID_FREQUENCYE@Base 2.0.0
 _ZN10tensorflow13profile_utils8CpuUtils19GetMicroSecPerClockEv@Base 2.0.0
 _ZN10tensorflow13profile_utils8CpuUtils21DefaultCpuUtilsHelper15ResetClockCycleEv@Base 2.0.0
 _ZN10tensorflow13profile_utils8CpuUtils21DefaultCpuUtilsHelper20GetCurrentClockCycleEv@Base 2.0.0
 _ZN10tensorflow13profile_utils8CpuUtils21DefaultCpuUtilsHelper21CalculateCpuFrequencyEv@Base 2.0.0
 _ZN10tensorflow13profile_utils8CpuUtils21DefaultCpuUtilsHelper25EnableClockCycleProfilingEb@Base 2.0.0
 _ZN10tensorflow13profile_utils8CpuUtils21DefaultCpuUtilsHelperD0Ev@Base 2.0.0
 _ZN10tensorflow13profile_utils8CpuUtils21DefaultCpuUtilsHelperD1Ev@Base 2.0.0
 _ZN10tensorflow13profile_utils8CpuUtils21DefaultCpuUtilsHelperD2Ev@Base 2.0.0
 _ZN10tensorflow13profile_utils8CpuUtils23ConvertClockCycleToTimeEx@Base 2.0.0
 _ZN10tensorflow13profile_utils8CpuUtils24GetCycleCounterFrequencyEv@Base 2.0.0
 _ZN10tensorflow13profile_utils8CpuUtils25EnableClockCycleProfilingEb@Base 2.0.0
 _ZN10tensorflow13profile_utils8CpuUtils28GetCycleCounterFrequencyImplEv@Base 2.0.0
 _ZN10tensorflow13profile_utils8CpuUtils34GetCpuUtilsHelperSingletonInstanceEv@Base 2.0.0
 _ZN10tensorflow14AllocatorRetry11AllocateRawESt8functionIFPvmmbEEimm@Base 2.0.0
 _ZN10tensorflow14AllocatorRetryC1Ev@Base 2.0.0
 _ZN10tensorflow14AllocatorRetryC2Ev@Base 2.0.0
 _ZN10tensorflow14AutotuneResult12InternalSwapEPS0_@Base 2.0.0
 _ZN10tensorflow14AutotuneResult12WRONG_RESULTE@Base 2.0.0
 _ZN10tensorflow14AutotuneResult14_InternalParseEPKcPN6google8protobuf8internal12ParseContextE@Base 2.0.0
 _ZN10tensorflow14AutotuneResult14clear_run_timeEv@Base 2.0.0
 _ZN10tensorflow14AutotuneResult15FailureKind_MAXE@Base 2.0.0
 _ZN10tensorflow14AutotuneResult15FailureKind_MINE@Base 2.0.0
 _ZN10tensorflow14AutotuneResult16REDZONE_MODIFIEDE@Base 2.0.0
 _ZN10tensorflow14AutotuneResult16default_instanceEv@Base 2.0.0
 _ZN10tensorflow14AutotuneResult18set_allocated_convEPNS_22AutotuneResult_ConvKeyE@Base 2.0.0
 _ZN10tensorflow14AutotuneResult18set_allocated_gemmEPNS_22AutotuneResult_GemmKeyE@Base 2.0.0
 _ZN10tensorflow14AutotuneResult21FailureKind_ARRAYSIZEE@Base 2.0.0
 _ZN10tensorflow14AutotuneResult21InitAsDefaultInstanceEv@Base 2.0.0
 _ZN10tensorflow14AutotuneResult5ClearEv@Base 2.0.0
 _ZN10tensorflow14AutotuneResult7UNKNOWNE@Base 2.0.0
 _ZN10tensorflow14AutotuneResult8CopyFromERKN6google8protobuf7MessageE@Base 2.0.0
 _ZN10tensorflow14AutotuneResult8CopyFromERKS0_@Base 2.0.0
 _ZN10tensorflow14AutotuneResult9MergeFromERKN6google8protobuf7MessageE@Base 2.0.0
 _ZN10tensorflow14AutotuneResult9MergeFromERKS0_@Base 2.0.0
 _ZN10tensorflow14AutotuneResult9_Internal4convEPKS0_@Base 2.0.0
 _ZN10tensorflow14AutotuneResult9_Internal4gemmEPKS0_@Base 2.0.0
 _ZN10tensorflow14AutotuneResult9_Internal7failureEPKS0_@Base 2.0.0
 _ZN10tensorflow14AutotuneResult9_Internal8run_timeEPKS0_@Base 2.0.0
 _ZN10tensorflow14AutotuneResult9clear_keyEv@Base 2.0.0
 _ZN10tensorflow14AutotuneResultC1ERKS0_@Base 2.0.0
 _ZN10tensorflow14AutotuneResultC1Ev@Base 2.0.0
 _ZN10tensorflow14AutotuneResultC2ERKS0_@Base 2.0.0
 _ZN10tensorflow14AutotuneResultC2Ev@Base 2.0.0
 _ZN10tensorflow14AutotuneResultD0Ev@Base 2.0.0
 _ZN10tensorflow14AutotuneResultD1Ev@Base 2.0.0
 _ZN10tensorflow14AutotuneResultD2Ev@Base 2.0.0
 _ZN10tensorflow14BenchmarkEntry12InternalSwapEPS0_@Base 2.0.0
 _ZN10tensorflow14BenchmarkEntry14_InternalParseEPKcPN6google8protobuf8internal12ParseContextE@Base 2.0.0
 _ZN10tensorflow14BenchmarkEntry16default_instanceEv@Base 2.0.0
 _ZN10tensorflow14BenchmarkEntry21InitAsDefaultInstanceEv@Base 2.0.0
 _ZN10tensorflow14BenchmarkEntry5ClearEv@Base 2.0.0
 _ZN10tensorflow14BenchmarkEntry8CopyFromERKN6google8protobuf7MessageE@Base 2.0.0
 _ZN10tensorflow14BenchmarkEntry8CopyFromERKS0_@Base 2.0.0
 _ZN10tensorflow14BenchmarkEntry9ArenaDtorEPv@Base 2.0.0
 _ZN10tensorflow14BenchmarkEntry9MergeFromERKN6google8protobuf7MessageE@Base 2.0.0
 _ZN10tensorflow14BenchmarkEntry9MergeFromERKS0_@Base 2.0.0
 _ZN10tensorflow14BenchmarkEntryC1EPN6google8protobuf5ArenaE@Base 2.0.0
 _ZN10tensorflow14BenchmarkEntryC1ERKS0_@Base 2.0.0
 _ZN10tensorflow14BenchmarkEntryC1Ev@Base 2.0.0
 _ZN10tensorflow14BenchmarkEntryC2EPN6google8protobuf5ArenaE@Base 2.0.0
 _ZN10tensorflow14BenchmarkEntryC2ERKS0_@Base 2.0.0
 _ZN10tensorflow14BenchmarkEntryC2Ev@Base 2.0.0
 _ZN10tensorflow14BenchmarkEntryD0Ev@Base 2.0.0
 _ZN10tensorflow14BenchmarkEntryD1Ev@Base 2.0.0
 _ZN10tensorflow14BenchmarkEntryD2Ev@Base 2.0.0
 _ZN10tensorflow14ByteSwapTensorEPNS_6TensorE@Base 2.0.0
 _ZN10tensorflow14CheckValidTypeERKNS_8DataTypeE@Base 2.0.0
 _ZN10tensorflow14CondContextDef12InternalSwapEPS0_@Base 2.0.0
 _ZN10tensorflow14CondContextDef14_InternalParseEPKcPN6google8protobuf8internal12ParseContextE@Base 2.0.0
 _ZN10tensorflow14CondContextDef16default_instanceEv@Base 2.0.0
 _ZN10tensorflow14CondContextDef21InitAsDefaultInstanceEv@Base 2.0.0
 _ZN10tensorflow14CondContextDef37unsafe_arena_set_allocated_values_defEPNS_9ValuesDefE@Base 2.0.0
 _ZN10tensorflow14CondContextDef5ClearEv@Base 2.0.0
 _ZN10tensorflow14CondContextDef8CopyFromERKN6google8protobuf7MessageE@Base 2.0.0
 _ZN10tensorflow14CondContextDef8CopyFromERKS0_@Base 2.0.0
 _ZN10tensorflow14CondContextDef9ArenaDtorEPv@Base 2.0.0
 _ZN10tensorflow14CondContextDef9MergeFromERKN6google8protobuf7MessageE@Base 2.0.0
 _ZN10tensorflow14CondContextDef9MergeFromERKS0_@Base 2.0.0
 _ZN10tensorflow14CondContextDef9_Internal10values_defEPKS0_@Base 2.0.0
 _ZN10tensorflow14CondContextDefC1EPN6google8protobuf5ArenaE@Base 2.0.0
 _ZN10tensorflow14CondContextDefC1ERKS0_@Base 2.0.0
 _ZN10tensorflow14CondContextDefC1Ev@Base 2.0.0
 _ZN10tensorflow14CondContextDefC2EPN6google8protobuf5ArenaE@Base 2.0.0
 _ZN10tensorflow14CondContextDefC2ERKS0_@Base 2.0.0
 _ZN10tensorflow14CondContextDefC2Ev@Base 2.0.0
 _ZN10tensorflow14CondContextDefD0Ev@Base 2.0.0
 _ZN10tensorflow14CondContextDefD1Ev@Base 2.0.0
 _ZN10tensorflow14CondContextDefD2Ev@Base 2.0.0
 _ZN10tensorflow14CreateOpKernelENS_10DeviceTypeEPNS_10DeviceBaseEPNS_9AllocatorEPNS_22FunctionLibraryRuntimeERKNS_7NodeDefEiPPNS_8OpKernelE@Base 2.0.0
 _ZN10tensorflow14CreateOpKernelENS_10DeviceTypeEPNS_10DeviceBaseEPNS_9AllocatorERKNS_7NodeDefEiPNS_6StatusE@Base 2.0.0
 _ZN10tensorflow14DEVICE_DEFAULTE@Base 2.0.0
 _ZN10tensorflow14DataTypeStringB5cxx11ENS_8DataTypeE@Base 2.0.0
 _ZN10tensorflow14DeleteResourceEPNS_15OpKernelContextERKNS_14ResourceHandleE@Base 2.0.0
 _ZN10tensorflow14DeviceLocality12InternalSwapEPS0_@Base 2.0.0
 _ZN10tensorflow14DeviceLocality14_InternalParseEPKcPN6google8protobuf8internal12ParseContextE@Base 2.0.0
 _ZN10tensorflow14DeviceLocality16default_instanceEv@Base 2.0.0
 _ZN10tensorflow14DeviceLocality21InitAsDefaultInstanceEv@Base 2.0.0
 _ZN10tensorflow14DeviceLocality32unsafe_arena_set_allocated_linksEPNS_10LocalLinksE@Base 2.0.0
 _ZN10tensorflow14DeviceLocality5ClearEv@Base 2.0.0
 _ZN10tensorflow14DeviceLocality8CopyFromERKN6google8protobuf7MessageE@Base 2.0.0
 _ZN10tensorflow14DeviceLocality8CopyFromERKS0_@Base 2.0.0
 _ZN10tensorflow14DeviceLocality9ArenaDtorEPv@Base 2.0.0
 _ZN10tensorflow14DeviceLocality9MergeFromERKN6google8protobuf7MessageE@Base 2.0.0
 _ZN10tensorflow14DeviceLocality9MergeFromERKS0_@Base 2.0.0
 _ZN10tensorflow14DeviceLocality9_Internal5linksEPKS0_@Base 2.0.0
 _ZN10tensorflow14DeviceLocalityC1EPN6google8protobuf5ArenaE@Base 2.0.0
 _ZN10tensorflow14DeviceLocalityC1ERKS0_@Base 2.0.0
 _ZN10tensorflow14DeviceLocalityC1Ev@Base 2.0.0
 _ZN10tensorflow14DeviceLocalityC2EPN6google8protobuf5ArenaE@Base 2.0.0
 _ZN10tensorflow14DeviceLocalityC2ERKS0_@Base 2.0.0
 _ZN10tensorflow14DeviceLocalityC2Ev@Base 2.0.0
 _ZN10tensorflow14DeviceLocalityD0Ev@Base 2.0.0
 _ZN10tensorflow14DeviceLocalityD1Ev@Base 2.0.0
 _ZN10tensorflow14DeviceLocalityD2Ev@Base 2.0.0
 _ZN10tensorflow14FileStatisticsD1Ev@Base 2.0.0
 _ZN10tensorflow14FileStatisticsD2Ev@Base 2.0.0
 _ZN10tensorflow14GetFeatureListERKNSt7__cxx1112basic_stringIcSt11char_traitsIcESaIcEEEPNS_15SequenceExampleE@Base 2.0.0
 _ZN10tensorflow14GetFeatureListERKNSt7__cxx1112basic_stringIcSt11char_traitsIcESaIcEEERKNS_15SequenceExampleE@Base 2.0.0
 _ZN10tensorflow14GraphDebugInfo12InternalSwapEPS0_@Base 2.0.0
 _ZN10tensorflow14GraphDebugInfo14_InternalParseEPKcPN6google8protobuf8internal12ParseContextE@Base 2.0.0
 _ZN10tensorflow14GraphDebugInfo16default_instanceEv@Base 2.0.0
 _ZN10tensorflow14GraphDebugInfo21InitAsDefaultInstanceEv@Base 2.0.0
 _ZN10tensorflow14GraphDebugInfo5ClearEv@Base 2.0.0
 _ZN10tensorflow14GraphDebugInfo8CopyFromERKN6google8protobuf7MessageE@Base 2.0.0
 _ZN10tensorflow14GraphDebugInfo8CopyFromERKS0_@Base 2.0.0
 _ZN10tensorflow14GraphDebugInfo9ArenaDtorEPv@Base 2.0.0
 _ZN10tensorflow14GraphDebugInfo9MergeFromERKN6google8protobuf7MessageE@Base 2.0.0
 _ZN10tensorflow14GraphDebugInfo9MergeFromERKS0_@Base 2.0.0
 _ZN10tensorflow14GraphDebugInfoC1EPN6google8protobuf5ArenaE@Base 2.0.0
 _ZN10tensorflow14GraphDebugInfoC1ERKS0_@Base 2.0.0
 _ZN10tensorflow14GraphDebugInfoC1Ev@Base 2.0.0
 _ZN10tensorflow14GraphDebugInfoC2EPN6google8protobuf5ArenaE@Base 2.0.0
 _ZN10tensorflow14GraphDebugInfoC2ERKS0_@Base 2.0.0
 _ZN10tensorflow14GraphDebugInfoC2Ev@Base 2.0.0
 _ZN10tensorflow14GraphDebugInfoD0Ev@Base 2.0.0
 _ZN10tensorflow14GraphDebugInfoD1Ev@Base 2.0.0
 _ZN10tensorflow14GraphDebugInfoD2Ev@Base 2.0.0
 _ZN10tensorflow14GraphOptimizer8OptimizeEPNS_22FunctionLibraryRuntimeEPNS_3EnvEPKNS_6DeviceEPSt10unique_ptrINS_5GraphESt14default_deleteIS9_EEPKSt13unordered_mapINSt7__cxx1112basic_stringIcSt11char_traitsIcESaIcEEESt6vectorINS_18PartialTensorShapeESaISM_EESt4hashISK_ESt8equal_toISK_ESaISt4pairIKSK_SO_EEERKSt8functionIFbPKNS_4NodeEEES17_bb@Base 2.0.0
 _ZN10tensorflow14GraphOptimizer8OptimizeEPNS_22FunctionLibraryRuntimeEPNS_3EnvEPKNS_6DeviceEPSt10unique_ptrINS_5GraphESt14default_deleteIS9_EERKNS0_7OptionsE@Base 2.0.0
 _ZN10tensorflow14GraphOptimizerC1ERKNS_16OptimizerOptionsE@Base 2.0.0
 _ZN10tensorflow14GraphOptimizerC2ERKNS_16OptimizerOptionsE@Base 2.0.0
 _ZN10tensorflow14GraphOptimizerD1Ev@Base 2.0.0
 _ZN10tensorflow14GraphOptimizerD2Ev@Base 2.0.0
 _ZN10tensorflow14HasFeatureListERKNSt7__cxx1112basic_stringIcSt11char_traitsIcESaIcEEERKNS_15SequenceExampleE@Base 2.0.0
 _ZN10tensorflow14HasPlaceHolderERKNS_9AttrValueE@Base 2.0.0
 _ZN10tensorflow14HistogramProto12InternalSwapEPS0_@Base 2.0.0
 _ZN10tensorflow14HistogramProto14_InternalParseEPKcPN6google8protobuf8internal12ParseContextE@Base 2.0.0
 _ZN10tensorflow14HistogramProto16default_instanceEv@Base 2.0.0
 _ZN10tensorflow14HistogramProto21InitAsDefaultInstanceEv@Base 2.0.0
 _ZN10tensorflow14HistogramProto5ClearEv@Base 2.0.0
 _ZN10tensorflow14HistogramProto8CopyFromERKN6google8protobuf7MessageE@Base 2.0.0
 _ZN10tensorflow14HistogramProto8CopyFromERKS0_@Base 2.0.0
 _ZN10tensorflow14HistogramProto9ArenaDtorEPv@Base 2.0.0
 _ZN10tensorflow14HistogramProto9MergeFromERKN6google8protobuf7MessageE@Base 2.0.0
 _ZN10tensorflow14HistogramProto9MergeFromERKS0_@Base 2.0.0
 _ZN10tensorflow14HistogramProtoC1EPN6google8protobuf5ArenaE@Base 2.0.0
 _ZN10tensorflow14HistogramProtoC1ERKS0_@Base 2.0.0
 _ZN10tensorflow14HistogramProtoC1Ev@Base 2.0.0
 _ZN10tensorflow14HistogramProtoC2EPN6google8protobuf5ArenaE@Base 2.0.0
 _ZN10tensorflow14HistogramProtoC2ERKS0_@Base 2.0.0
 _ZN10tensorflow14HistogramProtoC2Ev@Base 2.0.0
 _ZN10tensorflow14HistogramProtoD0Ev@Base 2.0.0
 _ZN10tensorflow14HistogramProtoD1Ev@Base 2.0.0
 _ZN10tensorflow14HistogramProtoD2Ev@Base 2.0.0
 _ZN10tensorflow14ImportGraphDefERKNS_21ImportGraphDefOptionsERKNS_8GraphDefEPNS_5GraphEPNS_12ShapeRefinerEPNS_21ImportGraphDefResultsE@Base 2.0.0
 _ZN10tensorflow14IsFunctionCallERKNS_25FunctionLibraryDefinitionERKNS_4NodeE@Base 2.0.0
 _ZN10tensorflow14LoadSavedModelERKNS_14SessionOptionsERKNS_10RunOptionsERKNSt7__cxx1112basic_stringIcSt11char_traitsIcESaIcEEERKSt13unordered_setISB_St4hashISB_ESt8equal_toISB_ESaISB_EEPNS_16SavedModelBundleE@Base 2.0.0
 _ZN10tensorflow14LookupResourceINS_6lookup15LookupInterfaceELb0EEENS_6StatusEPNS_15OpKernelContextERKNS_14ResourceHandleEPPT_@Base 2.0.0
 _ZN10tensorflow14MTypeFromDTypeENS_8DataTypeE@Base 2.0.0
 _ZN10tensorflow14MergeDebugInfoERKNS_13NodeDebugInfoEPNS_4NodeE@Base 2.0.0
 _ZN10tensorflow14MergeDebugInfoERKNS_13NodeDebugInfoEPNS_7NodeDefE@Base 2.0.0
 _ZN10tensorflow14MergeDebugInfoERKNS_7NodeDefEPS0_@Base 2.0.0
 _ZN10tensorflow14NodeDefBuilder10InitializeEv@Base 2.0.0
 _ZN10tensorflow14NodeDefBuilder10NextArgDefEv@Base 2.0.0
 _ZN10tensorflow14NodeDefBuilder11SingleInputEPKNS_12OpDef_ArgDefEN4absl11string_viewEiNS_8DataTypeE@Base 2.0.0
 _ZN10tensorflow14NodeDefBuilder12ControlInputEN4absl11string_viewE@Base 2.0.0
 _ZN10tensorflow14NodeDefBuilder14VerifyInputRefEPKNS_12OpDef_ArgDefENS_8DataTypeE@Base 2.0.0
 _ZN10tensorflow14NodeDefBuilder15VerifyInputTypeEPKNS_12OpDef_ArgDefENS_8DataTypeES4_@Base 2.0.0
 _ZN10tensorflow14NodeDefBuilder16NextArgAvailableEv@Base 2.0.0
 _ZN10tensorflow14NodeDefBuilder23AttrValueAlreadyPresentEN4absl11string_viewERKNS_9AttrValueE@Base 2.0.0
 _ZN10tensorflow14NodeDefBuilder4AttrEN4absl11string_viewENS1_4SpanIKNS_11TensorShapeEEE@Base 2.0.0
 _ZN10tensorflow14NodeDefBuilder4AttrEN4absl11string_viewENS1_4SpanIKNS_12NameAttrListEEE@Base 2.0.0
 _ZN10tensorflow14NodeDefBuilder4AttrEN4absl11string_viewENS1_4SpanIKNS_16TensorShapeProtoEEE@Base 2.0.0
 _ZN10tensorflow14NodeDefBuilder4AttrEN4absl11string_viewENS1_4SpanIKNS_18PartialTensorShapeEEE@Base 2.0.0
 _ZN10tensorflow14NodeDefBuilder4AttrEN4absl11string_viewENS1_4SpanIKNS_6TensorEEE@Base 2.0.0
 _ZN10tensorflow14NodeDefBuilder4AttrEN4absl11string_viewENS1_4SpanIKNS_8DataTypeEEE@Base 2.0.0
 _ZN10tensorflow14NodeDefBuilder4AttrEN4absl11string_viewENS1_4SpanIKNSt7__cxx1112basic_stringIcSt11char_traitsIcESaIcEEEEE@Base 2.0.0
 _ZN10tensorflow14NodeDefBuilder4AttrEN4absl11string_viewENS1_4SpanIKPKcEE@Base 2.0.0
 _ZN10tensorflow14NodeDefBuilder4AttrEN4absl11string_viewENS1_4SpanIKS2_EE@Base 2.0.0
 _ZN10tensorflow14NodeDefBuilder4AttrEN4absl11string_viewENS1_4SpanIKbEE@Base 2.0.0
 _ZN10tensorflow14NodeDefBuilder4AttrEN4absl11string_viewENS1_4SpanIKfEE@Base 2.0.0
 _ZN10tensorflow14NodeDefBuilder4AttrEN4absl11string_viewENS1_4SpanIKiEE@Base 2.0.0
 _ZN10tensorflow14NodeDefBuilder4AttrEN4absl11string_viewENS1_4SpanIKxEE@Base 2.0.0
 _ZN10tensorflow14NodeDefBuilder4AttrEN4absl11string_viewENS_8DataTypeE@Base 2.0.0
 _ZN10tensorflow14NodeDefBuilder4AttrEN4absl11string_viewEONS_9AttrValueE@Base 2.0.0
 _ZN10tensorflow14NodeDefBuilder4AttrEN4absl11string_viewEPKc@Base 2.0.0
 _ZN10tensorflow14NodeDefBuilder4AttrEN4absl11string_viewERKNS_11TensorProtoE@Base 2.0.0
 _ZN10tensorflow14NodeDefBuilder4AttrEN4absl11string_viewERKNS_12NameAttrListE@Base 2.0.0
 _ZN10tensorflow14NodeDefBuilder4AttrEN4absl11string_viewERKNS_18PartialTensorShapeE@Base 2.0.0
 _ZN10tensorflow14NodeDefBuilder4AttrEN4absl11string_viewERKNS_6TensorE@Base 2.0.0
 _ZN10tensorflow14NodeDefBuilder4AttrEN4absl11string_viewERKNS_9AttrValueE@Base 2.0.0
 _ZN10tensorflow14NodeDefBuilder4AttrEN4absl11string_viewERKSt6vectorIbSaIbEE@Base 2.0.0
 _ZN10tensorflow14NodeDefBuilder4AttrEN4absl11string_viewES2_@Base 2.0.0
 _ZN10tensorflow14NodeDefBuilder4AttrEN4absl11string_viewEb@Base 2.0.0
 _ZN10tensorflow14NodeDefBuilder4AttrEN4absl11string_viewEd@Base 2.0.0
 _ZN10tensorflow14NodeDefBuilder4AttrEN4absl11string_viewEf@Base 2.0.0
 _ZN10tensorflow14NodeDefBuilder4AttrEN4absl11string_viewEi@Base 2.0.0
 _ZN10tensorflow14NodeDefBuilder4AttrEN4absl11string_viewEx@Base 2.0.0
 _ZN10tensorflow14NodeDefBuilder5InputEN4absl11string_viewEiNS_8DataTypeE@Base 2.0.0
 _ZN10tensorflow14NodeDefBuilder5InputEN4absl4SpanIKNS0_7NodeOutEEE@Base 2.0.0
 _ZN10tensorflow14NodeDefBuilder5InputERKNS0_7NodeOutE@Base 2.0.0
 _ZN10tensorflow14NodeDefBuilder5InputESt8functionIFNS_6StatusERKNS_5OpDefEiRKNS_7NodeDefEPS0_EE@Base 2.0.0
 _ZN10tensorflow14NodeDefBuilder6DeviceEN4absl11string_viewE@Base 2.0.0
 _ZN10tensorflow14NodeDefBuilder7NodeOut5ResetEN4absl11string_viewEiNS_8DataTypeE@Base 2.0.0
 _ZN10tensorflow14NodeDefBuilder7NodeOutC1EN4absl11string_viewEiNS_8DataTypeE@Base 2.0.0
 _ZN10tensorflow14NodeDefBuilder7NodeOutC1Ev@Base 2.0.0
 _ZN10tensorflow14NodeDefBuilder7NodeOutC2EN4absl11string_viewEiNS_8DataTypeE@Base 2.0.0
 _ZN10tensorflow14NodeDefBuilder7NodeOutC2Ev@Base 2.0.0
 _ZN10tensorflow14NodeDefBuilder8AddInputEN4absl11string_viewEi@Base 2.0.0
 _ZN10tensorflow14NodeDefBuilder8FinalizeEPNS_7NodeDefEb@Base 2.0.0
 _ZN10tensorflow14NodeDefBuilder9ListInputEPKNS_12OpDef_ArgDefEN4absl4SpanIKNS0_7NodeOutEEE@Base 2.0.0
 _ZN10tensorflow14NodeDefBuilderC1EN4absl11string_viewEPKNS_5OpDefE@Base 2.0.0
 _ZN10tensorflow14NodeDefBuilderC1EN4absl11string_viewES2_PKNS_19OpRegistryInterfaceEPKNS_13NodeDebugInfoE@Base 2.0.0
 _ZN10tensorflow14NodeDefBuilderC1EN4absl11string_viewES2_RKNS_13NodeDebugInfoE@Base 2.0.0
 _ZN10tensorflow14NodeDefBuilderC2EN4absl11string_viewEPKNS_5OpDefE@Base 2.0.0
 _ZN10tensorflow14NodeDefBuilderC2EN4absl11string_viewES2_PKNS_19OpRegistryInterfaceEPKNS_13NodeDebugInfoE@Base 2.0.0
 _ZN10tensorflow14NodeDefBuilderC2EN4absl11string_viewES2_RKNS_13NodeDebugInfoE@Base 2.0.0
 _ZN10tensorflow14NodeDefBuilderD1Ev@Base 2.0.0
 _ZN10tensorflow14NodeDefBuilderD2Ev@Base 2.0.0
 _ZN10tensorflow14NodeNamePrefixERKN4absl11string_viewE@Base 2.0.0
 _ZN10tensorflow14OpsUsedByGraphERKNS_8GraphDefEPSt3setINSt7__cxx1112basic_stringIcSt11char_traitsIcESaIcEEESt4lessIS9_ESaIS9_EE@Base 2.0.0
 _ZN10tensorflow14ParseAttrValueEN4absl11string_viewES1_PNS_9AttrValueE@Base 2.0.0
 _ZN10tensorflow14QueueRunnerDef12InternalSwapEPS0_@Base 2.0.0
 _ZN10tensorflow14QueueRunnerDef14_InternalParseEPKcPN6google8protobuf8internal12ParseContextE@Base 2.0.0
 _ZN10tensorflow14QueueRunnerDef16default_instanceEv@Base 2.0.0
 _ZN10tensorflow14QueueRunnerDef21InitAsDefaultInstanceEv@Base 2.0.0
 _ZN10tensorflow14QueueRunnerDef5ClearEv@Base 2.0.0
 _ZN10tensorflow14QueueRunnerDef8CopyFromERKN6google8protobuf7MessageE@Base 2.0.0
 _ZN10tensorflow14QueueRunnerDef8CopyFromERKS0_@Base 2.0.0
 _ZN10tensorflow14QueueRunnerDef9ArenaDtorEPv@Base 2.0.0
 _ZN10tensorflow14QueueRunnerDef9MergeFromERKN6google8protobuf7MessageE@Base 2.0.0
 _ZN10tensorflow14QueueRunnerDef9MergeFromERKS0_@Base 2.0.0
 _ZN10tensorflow14QueueRunnerDefC1EPN6google8protobuf5ArenaE@Base 2.0.0
 _ZN10tensorflow14QueueRunnerDefC1ERKS0_@Base 2.0.0
 _ZN10tensorflow14QueueRunnerDefC1Ev@Base 2.0.0
 _ZN10tensorflow14QueueRunnerDefC2EPN6google8protobuf5ArenaE@Base 2.0.0
 _ZN10tensorflow14QueueRunnerDefC2ERKS0_@Base 2.0.0
 _ZN10tensorflow14QueueRunnerDefC2Ev@Base 2.0.0
 _ZN10tensorflow14QueueRunnerDefD0Ev@Base 2.0.0
 _ZN10tensorflow14QueueRunnerDefD1Ev@Base 2.0.0
 _ZN10tensorflow14QueueRunnerDefD2Ev@Base 2.0.0
 _ZN10tensorflow14ResourceHandle15ParseFromStringERKNSt7__cxx1112basic_stringIcSt11char_traitsIcESaIcEEE@Base 2.0.0
 _ZN10tensorflow14ResourceHandle9FromProtoERKNS_19ResourceHandleProtoE@Base 2.0.0
 _ZN10tensorflow14ResourceHandleC1ERKNS_19ResourceHandleProtoE@Base 2.0.0
 _ZN10tensorflow14ResourceHandleC1Ev@Base 2.0.0
 _ZN10tensorflow14ResourceHandleC2ERKNS_19ResourceHandleProtoE@Base 2.0.0
 _ZN10tensorflow14ResourceHandleC2Ev@Base 2.0.0
 _ZN10tensorflow14ResourceHandleD1Ev@Base 2.0.0
 _ZN10tensorflow14ResourceHandleD2Ev@Base 2.0.0
 _ZN10tensorflow14ReverseDFSFromERKNS_5GraphEN4absl4SpanIKPKNS_4NodeEEERKSt8functionIFvS7_EESE_RKSA_IFbS7_S7_EE@Base 2.0.0
 _ZN10tensorflow14ReverseDFSFromERKNS_5GraphEN4absl4SpanIKPNS_4NodeEEERKSt8functionIFvS6_EESD_RKS9_IFbPKS5_SF_EE@Base 2.0.0
 _ZN10tensorflow14RewriterConfig10AGGRESSIVEE@Base 2.0.0
 _ZN10tensorflow14RewriterConfig10HEURISTICSE@Base 2.0.0
 _ZN10tensorflow14RewriterConfig10NO_MEM_OPTE@Base 2.0.0
 _ZN10tensorflow14RewriterConfig10Toggle_MAXE@Base 2.0.0
 _ZN10tensorflow14RewriterConfig10Toggle_MINE@Base 2.0.0
 _ZN10tensorflow14RewriterConfig12InternalSwapEPS0_@Base 2.0.0
 _ZN10tensorflow14RewriterConfig14MemOptType_MAXE@Base 2.0.0
 _ZN10tensorflow14RewriterConfig14MemOptType_MINE@Base 2.0.0
 _ZN10tensorflow14RewriterConfig14_InternalParseEPKcPN6google8protobuf8internal12ParseContextE@Base 2.0.0
 _ZN10tensorflow14RewriterConfig15DEFAULT_MEM_OPTE@Base 2.0.0
 _ZN10tensorflow14RewriterConfig16Toggle_ARRAYSIZEE@Base 2.0.0
 _ZN10tensorflow14RewriterConfig16default_instanceEv@Base 2.0.0
 _ZN10tensorflow14RewriterConfig17DEFAULT_NUM_ITERSE@Base 2.0.0
 _ZN10tensorflow14RewriterConfig19SWAPPING_HEURISTICSE@Base 2.0.0
 _ZN10tensorflow14RewriterConfig20MemOptType_ARRAYSIZEE@Base 2.0.0
 _ZN10tensorflow14RewriterConfig21InitAsDefaultInstanceEv@Base 2.0.0
 _ZN10tensorflow14RewriterConfig21NumIterationsType_MAXE@Base 2.0.0
 _ZN10tensorflow14RewriterConfig21NumIterationsType_MINE@Base 2.0.0
 _ZN10tensorflow14RewriterConfig21SCHEDULING_HEURISTICSE@Base 2.0.0
 _ZN10tensorflow14RewriterConfig24RECOMPUTATION_HEURISTICSE@Base 2.0.0
 _ZN10tensorflow14RewriterConfig27NumIterationsType_ARRAYSIZEE@Base 2.0.0
 _ZN10tensorflow14RewriterConfig2ONE@Base 2.0.0
 _ZN10tensorflow14RewriterConfig37clear_inter_optimizer_verifier_configEv@Base 2.0.0
 _ZN10tensorflow14RewriterConfig39clear_post_optimization_verifier_configEv@Base 2.0.0
 _ZN10tensorflow14RewriterConfig3OFFE@Base 2.0.0
 _ZN10tensorflow14RewriterConfig3ONEE@Base 2.0.0
 _ZN10tensorflow14RewriterConfig3TWOE@Base 2.0.0
 _ZN10tensorflow14RewriterConfig40unsafe_arena_set_allocated_auto_parallelEPNS_19AutoParallelOptionsE@Base 2.0.0
 _ZN10tensorflow14RewriterConfig48unsafe_arena_set_allocated_scoped_allocator_optsEPNS_22ScopedAllocatorOptionsE@Base 2.0.0
 _ZN10tensorflow14RewriterConfig58unsafe_arena_set_allocated_inter_optimizer_verifier_configEPNS_14VerifierConfigE@Base 2.0.0
 _ZN10tensorflow14RewriterConfig5ClearEv@Base 2.0.0
 _ZN10tensorflow14RewriterConfig60unsafe_arena_set_allocated_post_optimization_verifier_configEPNS_14VerifierConfigE@Base 2.0.0
 _ZN10tensorflow14RewriterConfig6MANUALE@Base 2.0.0
 _ZN10tensorflow14RewriterConfig7DEFAULTE@Base 2.0.0
 _ZN10tensorflow14RewriterConfig8CopyFromERKN6google8protobuf7MessageE@Base 2.0.0
 _ZN10tensorflow14RewriterConfig8CopyFromERKS0_@Base 2.0.0
 _ZN10tensorflow14RewriterConfig9ArenaDtorEPv@Base 2.0.0
 _ZN10tensorflow14RewriterConfig9MergeFromERKN6google8protobuf7MessageE@Base 2.0.0
 _ZN10tensorflow14RewriterConfig9MergeFromERKS0_@Base 2.0.0
 _ZN10tensorflow14RewriterConfig9_Internal13auto_parallelEPKS0_@Base 2.0.0
 _ZN10tensorflow14RewriterConfig9_Internal21scoped_allocator_optsEPKS0_@Base 2.0.0
 _ZN10tensorflow14RewriterConfig9_Internal31inter_optimizer_verifier_configEPKS0_@Base 2.0.0
 _ZN10tensorflow14RewriterConfig9_Internal33post_optimization_verifier_configEPKS0_@Base 2.0.0
 _ZN10tensorflow14RewriterConfigC1EPN6google8protobuf5ArenaE@Base 2.0.0
 _ZN10tensorflow14RewriterConfigC1ERKS0_@Base 2.0.0
 _ZN10tensorflow14RewriterConfigC1Ev@Base 2.0.0
 _ZN10tensorflow14RewriterConfigC2EPN6google8protobuf5ArenaE@Base 2.0.0
 _ZN10tensorflow14RewriterConfigC2ERKS0_@Base 2.0.0
 _ZN10tensorflow14RewriterConfigC2Ev@Base 2.0.0
 _ZN10tensorflow14RewriterConfigD0Ev@Base 2.0.0
 _ZN10tensorflow14RewriterConfigD1Ev@Base 2.0.0
 _ZN10tensorflow14RewriterConfigD2Ev@Base 2.0.0
 _ZN10tensorflow14RunHandlerPool3GetEx@Base 2.0.0
 _ZN10tensorflow14RunHandlerPool4Impl14ReleaseHandlerEPNS_10RunHandler4ImplE@Base 2.0.0
 _ZN10tensorflow14RunHandlerPool4Impl24RecomputePoolStatsLockedEv@Base 2.0.0
 _ZN10tensorflow14RunHandlerPool4ImplC1Eii@Base 2.0.0
 _ZN10tensorflow14RunHandlerPool4ImplC2Eii@Base 2.0.0
 _ZN10tensorflow14RunHandlerPoolC1Ei@Base 2.0.0
 _ZN10tensorflow14RunHandlerPoolC1Eii@Base 2.0.0
 _ZN10tensorflow14RunHandlerPoolC2Ei@Base 2.0.0
 _ZN10tensorflow14RunHandlerPoolC2Eii@Base 2.0.0
 _ZN10tensorflow14RunHandlerPoolD1Ev@Base 2.0.0
 _ZN10tensorflow14RunHandlerPoolD2Ev@Base 2.0.0
 _ZN10tensorflow14SavedSliceMeta11clear_shapeEv@Base 2.0.0
 _ZN10tensorflow14SavedSliceMeta11clear_sliceEv@Base 2.0.0
 _ZN10tensorflow14SavedSliceMeta12InternalSwapEPS0_@Base 2.0.0
 _ZN10tensorflow14SavedSliceMeta14_InternalParseEPKcPN6google8protobuf8internal12ParseContextE@Base 2.0.0
 _ZN10tensorflow14SavedSliceMeta16default_instanceEv@Base 2.0.0
 _ZN10tensorflow14SavedSliceMeta21InitAsDefaultInstanceEv@Base 2.0.0
 _ZN10tensorflow14SavedSliceMeta32unsafe_arena_set_allocated_shapeEPNS_16TensorShapeProtoE@Base 2.0.0
 _ZN10tensorflow14SavedSliceMeta5ClearEv@Base 2.0.0
 _ZN10tensorflow14SavedSliceMeta8CopyFromERKN6google8protobuf7MessageE@Base 2.0.0
 _ZN10tensorflow14SavedSliceMeta8CopyFromERKS0_@Base 2.0.0
 _ZN10tensorflow14SavedSliceMeta9ArenaDtorEPv@Base 2.0.0
 _ZN10tensorflow14SavedSliceMeta9MergeFromERKN6google8protobuf7MessageE@Base 2.0.0
 _ZN10tensorflow14SavedSliceMeta9MergeFromERKS0_@Base 2.0.0
 _ZN10tensorflow14SavedSliceMeta9_Internal5shapeEPKS0_@Base 2.0.0
 _ZN10tensorflow14SavedSliceMetaC1EPN6google8protobuf5ArenaE@Base 2.0.0
 _ZN10tensorflow14SavedSliceMetaC1ERKS0_@Base 2.0.0
 _ZN10tensorflow14SavedSliceMetaC1Ev@Base 2.0.0
 _ZN10tensorflow14SavedSliceMetaC2EPN6google8protobuf5ArenaE@Base 2.0.0
 _ZN10tensorflow14SavedSliceMetaC2ERKS0_@Base 2.0.0
 _ZN10tensorflow14SavedSliceMetaC2Ev@Base 2.0.0
 _ZN10tensorflow14SavedSliceMetaD0Ev@Base 2.0.0
 _ZN10tensorflow14SavedSliceMetaD1Ev@Base 2.0.0
 _ZN10tensorflow14SavedSliceMetaD2Ev@Base 2.0.0
 _ZN10tensorflow14SessionFactory10GetFactoryERKNS_14SessionOptionsEPPS0_@Base 2.0.0
 _ZN10tensorflow14SessionFactory5ResetERKNS_14SessionOptionsERKSt6vectorINSt7__cxx1112basic_stringIcSt11char_traitsIcESaIcEEESaISA_EE@Base 2.0.0
 _ZN10tensorflow14SessionFactory8RegisterERKNSt7__cxx1112basic_stringIcSt11char_traitsIcESaIcEEEPS0_@Base 2.0.0
 _ZN10tensorflow14SessionOptionsC1Ev@Base 2.0.0
 _ZN10tensorflow14SessionOptionsC2Ev@Base 2.0.0
 _ZN10tensorflow14SetIncarnationERKNS_16PartitionOptionsEPNS_7NodeDefE@Base 2.0.0
 _ZN10tensorflow14SetIncarnationERKNS_16PartitionOptionsEPNS_8GraphDefE@Base 2.0.0
 _ZN10tensorflow14StatSummarizer16ProcessStepStatsERKNS_9StepStatsE@Base 2.0.0
 _ZN10tensorflow14StatSummarizerC1ERKNS_21StatSummarizerOptionsE@Base 2.0.0
 _ZN10tensorflow14StatSummarizerC1ERKNS_8GraphDefE@Base 2.0.0
 _ZN10tensorflow14StatSummarizerC2ERKNS_21StatSummarizerOptionsE@Base 2.0.0
 _ZN10tensorflow14StatSummarizerC2ERKNS_8GraphDefE@Base 2.0.0
 _ZN10tensorflow14StatSummarizerD1Ev@Base 2.0.0
 _ZN10tensorflow14StatSummarizerD2Ev@Base 2.0.0
 _ZN10tensorflow14SummarizeAttrsB5cxx11ERKNS_7NodeDefE@Base 2.0.0
 _ZN10tensorflow14SummarizeOpDefB5cxx11ERKNS_5OpDefE@Base 2.0.0
 _ZN10tensorflow14TensorShapeRep11DebugStringB5cxx11ERKNS_16TensorShapeProtoE@Base 2.0.0
 _ZN10tensorflow14TensorShapeRep12SlowCopyFromERKS0_@Base 2.0.0
 _ZN10tensorflow14TensorShapeRep19ClearAllButDataTypeEv@Base 2.0.0
 _ZN10tensorflow14TensorShapeRep19DestructorOutOfLineEv@Base 2.0.0
 _ZN10tensorflow14TensorShapeRep5ClearEv@Base 2.0.0
 _ZN10tensorflow14TypedAllocator14RunVariantCtorEPNS_7VariantEm@Base 2.0.0
 _ZN10tensorflow14TypedAllocator14RunVariantDtorEPNS_7VariantEm@Base 2.0.0
 _ZN10tensorflow14TypedAllocator8AllocateINS_14ResourceHandleEEEPT_PNS_9AllocatorEmRKNS_20AllocationAttributesE@Base 2.0.0
 _ZN10tensorflow14TypedAllocator8AllocateINS_7VariantEEEPT_PNS_9AllocatorEmRKNS_20AllocationAttributesE@Base 2.0.0
 _ZN10tensorflow14TypedAllocator8AllocateINSt7__cxx1112basic_stringIcSt11char_traitsIcESaIcEEEEEPT_PNS_9AllocatorEmRKNS_20AllocationAttributesE@Base 2.0.0
 _ZN10tensorflow14VerifierConfig10Toggle_MAXE@Base 2.0.0
 _ZN10tensorflow14VerifierConfig10Toggle_MINE@Base 2.0.0
 _ZN10tensorflow14VerifierConfig12InternalSwapEPS0_@Base 2.0.0
 _ZN10tensorflow14VerifierConfig14_InternalParseEPKcPN6google8protobuf8internal12ParseContextE@Base 2.0.0
 _ZN10tensorflow14VerifierConfig16Toggle_ARRAYSIZEE@Base 2.0.0
 _ZN10tensorflow14VerifierConfig16default_instanceEv@Base 2.0.0
 _ZN10tensorflow14VerifierConfig21InitAsDefaultInstanceEv@Base 2.0.0
 _ZN10tensorflow14VerifierConfig2ONE@Base 2.0.0
 _ZN10tensorflow14VerifierConfig3OFFE@Base 2.0.0
 _ZN10tensorflow14VerifierConfig5ClearEv@Base 2.0.0
 _ZN10tensorflow14VerifierConfig7DEFAULTE@Base 2.0.0
 _ZN10tensorflow14VerifierConfig8CopyFromERKN6google8protobuf7MessageE@Base 2.0.0
 _ZN10tensorflow14VerifierConfig8CopyFromERKS0_@Base 2.0.0
 _ZN10tensorflow14VerifierConfig9ArenaDtorEPv@Base 2.0.0
 _ZN10tensorflow14VerifierConfig9MergeFromERKN6google8protobuf7MessageE@Base 2.0.0
 _ZN10tensorflow14VerifierConfig9MergeFromERKS0_@Base 2.0.0
 _ZN10tensorflow14VerifierConfigC1EPN6google8protobuf5ArenaE@Base 2.0.0
 _ZN10tensorflow14VerifierConfigC1ERKS0_@Base 2.0.0
 _ZN10tensorflow14VerifierConfigC1Ev@Base 2.0.0
 _ZN10tensorflow14VerifierConfigC2EPN6google8protobuf5ArenaE@Base 2.0.0
 _ZN10tensorflow14VerifierConfigC2ERKS0_@Base 2.0.0
 _ZN10tensorflow14VerifierConfigC2Ev@Base 2.0.0
 _ZN10tensorflow14VerifierConfigD0Ev@Base 2.0.0
 _ZN10tensorflow14VerifierConfigD1Ev@Base 2.0.0
 _ZN10tensorflow14VerifierConfigD2Ev@Base 2.0.0
 _ZN10tensorflow14WatchdogConfig12InternalSwapEPS0_@Base 2.0.0
 _ZN10tensorflow14WatchdogConfig14_InternalParseEPKcPN6google8protobuf8internal12ParseContextE@Base 2.0.0
 _ZN10tensorflow14WatchdogConfig16default_instanceEv@Base 2.0.0
 _ZN10tensorflow14WatchdogConfig21InitAsDefaultInstanceEv@Base 2.0.0
 _ZN10tensorflow14WatchdogConfig5ClearEv@Base 2.0.0
 _ZN10tensorflow14WatchdogConfig8CopyFromERKN6google8protobuf7MessageE@Base 2.0.0
 _ZN10tensorflow14WatchdogConfig8CopyFromERKS0_@Base 2.0.0
 _ZN10tensorflow14WatchdogConfig9ArenaDtorEPv@Base 2.0.0
 _ZN10tensorflow14WatchdogConfig9MergeFromERKN6google8protobuf7MessageE@Base 2.0.0
 _ZN10tensorflow14WatchdogConfig9MergeFromERKS0_@Base 2.0.0
 _ZN10tensorflow14WatchdogConfigC1EPN6google8protobuf5ArenaE@Base 2.0.0
 _ZN10tensorflow14WatchdogConfigC1ERKS0_@Base 2.0.0
 _ZN10tensorflow14WatchdogConfigC1Ev@Base 2.0.0
 _ZN10tensorflow14WatchdogConfigC2EPN6google8protobuf5ArenaE@Base 2.0.0
 _ZN10tensorflow14WatchdogConfigC2ERKS0_@Base 2.0.0
 _ZN10tensorflow14WatchdogConfigC2Ev@Base 2.0.0
 _ZN10tensorflow14WatchdogConfigD0Ev@Base 2.0.0
 _ZN10tensorflow14WatchdogConfigD1Ev@Base 2.0.0
 _ZN10tensorflow14WatchdogConfigD2Ev@Base 2.0.0
 _ZN10tensorflow14WriteTextProtoEPNS_3EnvERKNSt7__cxx1112basic_stringIcSt11char_traitsIcESaIcEEERKN6google8protobuf7MessageE@Base 2.0.0
 _ZN10tensorflow14kernel_factory17OpKernelRegistrar12InitInternalEPKNS_9KernelDefEN4absl11string_viewESt10unique_ptrINS0_15OpKernelFactoryESt14default_deleteIS8_EE@Base 2.0.0
 _ZN10tensorflow14kernel_factory17OpKernelRegistrar18PtrOpKernelFactory6CreateEPNS_20OpKernelConstructionE@Base 2.0.0
 _ZN10tensorflow14kernel_factory17OpKernelRegistrar18PtrOpKernelFactoryD0Ev@Base 2.0.0
 _ZN10tensorflow14kernel_factory17OpKernelRegistrar18PtrOpKernelFactoryD1Ev@Base 2.0.0
 _ZN10tensorflow14kernel_factory17OpKernelRegistrar18PtrOpKernelFactoryD2Ev@Base 2.0.0
 _ZN10tensorflow14kernel_factory17OpKernelRegistrarC1EPKNS_9KernelDefEN4absl11string_viewEPFPNS_8OpKernelEPNS_20OpKernelConstructionEE@Base 2.0.0
 _ZN10tensorflow14kernel_factory17OpKernelRegistrarC2EPKNS_9KernelDefEN4absl11string_viewEPFPNS_8OpKernelEPNS_20OpKernelConstructionEE@Base 2.0.0
 _ZN10tensorflow15AddControlEdgesERKNS_16PartitionOptionsEPSt13unordered_mapINSt7__cxx1112basic_stringIcSt11char_traitsIcESaIcEEENS_8GraphDefESt4hashIS9_ESt8equal_toIS9_ESaISt4pairIKS9_SA_EEE@Base 2.0.0
 _ZN10tensorflow15ApiDef_Endpoint12InternalSwapEPS0_@Base 2.0.0
 _ZN10tensorflow15ApiDef_Endpoint14_InternalParseEPKcPN6google8protobuf8internal12ParseContextE@Base 2.0.0
 _ZN10tensorflow15ApiDef_Endpoint16default_instanceEv@Base 2.0.0
 _ZN10tensorflow15ApiDef_Endpoint21InitAsDefaultInstanceEv@Base 2.0.0
 _ZN10tensorflow15ApiDef_Endpoint5ClearEv@Base 2.0.0
 _ZN10tensorflow15ApiDef_Endpoint8CopyFromERKN6google8protobuf7MessageE@Base 2.0.0
 _ZN10tensorflow15ApiDef_Endpoint8CopyFromERKS0_@Base 2.0.0
 _ZN10tensorflow15ApiDef_Endpoint9ArenaDtorEPv@Base 2.0.0
 _ZN10tensorflow15ApiDef_Endpoint9MergeFromERKN6google8protobuf7MessageE@Base 2.0.0
 _ZN10tensorflow15ApiDef_Endpoint9MergeFromERKS0_@Base 2.0.0
 _ZN10tensorflow15ApiDef_EndpointC1EPN6google8protobuf5ArenaE@Base 2.0.0
 _ZN10tensorflow15ApiDef_EndpointC1ERKS0_@Base 2.0.0
 _ZN10tensorflow15ApiDef_EndpointC1Ev@Base 2.0.0
 _ZN10tensorflow15ApiDef_EndpointC2EPN6google8protobuf5ArenaE@Base 2.0.0
 _ZN10tensorflow15ApiDef_EndpointC2ERKS0_@Base 2.0.0
 _ZN10tensorflow15ApiDef_EndpointC2Ev@Base 2.0.0
 _ZN10tensorflow15ApiDef_EndpointD0Ev@Base 2.0.0
 _ZN10tensorflow15ApiDef_EndpointD1Ev@Base 2.0.0
 _ZN10tensorflow15ApiDef_EndpointD2Ev@Base 2.0.0
 _ZN10tensorflow15BFloat16ToFloatEPKNS_8bfloat16EPfx@Base 2.0.0
 _ZN10tensorflow15CallableOptions12InternalSwapEPS0_@Base 2.0.0
 _ZN10tensorflow15CallableOptions14_InternalParseEPKcPN6google8protobuf8internal12ParseContextE@Base 2.0.0
 _ZN10tensorflow15CallableOptions16default_instanceEv@Base 2.0.0
 _ZN10tensorflow15CallableOptions21InitAsDefaultInstanceEv@Base 2.0.0
 _ZN10tensorflow15CallableOptions38unsafe_arena_set_allocated_run_optionsEPNS_10RunOptionsE@Base 2.0.0
 _ZN10tensorflow15CallableOptions5ClearEv@Base 2.0.0
 _ZN10tensorflow15CallableOptions8CopyFromERKN6google8protobuf7MessageE@Base 2.0.0
 _ZN10tensorflow15CallableOptions8CopyFromERKS0_@Base 2.0.0
 _ZN10tensorflow15CallableOptions9ArenaDtorEPv@Base 2.0.0
 _ZN10tensorflow15CallableOptions9MergeFromERKN6google8protobuf7MessageE@Base 2.0.0
 _ZN10tensorflow15CallableOptions9MergeFromERKS0_@Base 2.0.0
 _ZN10tensorflow15CallableOptions9_Internal11run_optionsEPKS0_@Base 2.0.0
 _ZN10tensorflow15CallableOptionsC1EPN6google8protobuf5ArenaE@Base 2.0.0
 _ZN10tensorflow15CallableOptionsC1ERKS0_@Base 2.0.0
 _ZN10tensorflow15CallableOptionsC1Ev@Base 2.0.0
 _ZN10tensorflow15CallableOptionsC2EPN6google8protobuf5ArenaE@Base 2.0.0
 _ZN10tensorflow15CallableOptionsC2ERKS0_@Base 2.0.0
 _ZN10tensorflow15CallableOptionsC2Ev@Base 2.0.0
 _ZN10tensorflow15CallableOptionsD0Ev@Base 2.0.0
 _ZN10tensorflow15CallableOptionsD1Ev@Base 2.0.0
 _ZN10tensorflow15CallableOptionsD2Ev@Base 2.0.0
 _ZN10tensorflow15CheckTypesMatchERKNS_7FeatureERKNS_8DataTypeEPb@Base 2.0.0
 _ZN10tensorflow15CollGroupParamsD1Ev@Base 2.0.0
 _ZN10tensorflow15CollGroupParamsD2Ev@Base 2.0.0
 _ZN10tensorflow15ColocationGraph10InitializeEv@Base 2.0.0
 _ZN10tensorflow15ColocationGraph13ColocateNodesERKNS_4NodeES3_@Base 2.0.0
 _ZN10tensorflow15ColocationGraph13ColocateNodesERKNS_4NodeEiS3_i@Base 2.0.0
 _ZN10tensorflow15ColocationGraph16ColocateAllNodesEv@Base 2.0.0
 _ZN10tensorflow15ColocationGraph16InitializeMemberERKNS_4NodeEPNS_6MemberE@Base 2.0.0
 _ZN10tensorflow15ColocationGraph17GetDevicesForNodeEPNS_4NodeEPPKSt6vectorIPNS_6DeviceESaIS5_EE@Base 2.0.0
 _ZN10tensorflow15ColocationGraph17InitializeMembersEv@Base 2.0.0
 _ZN10tensorflow15ColocationGraph19ColocateNodeToGroupEPSt13unordered_mapIN4absl11string_viewEPKNS_4NodeENS_4hashIS3_vEESt8equal_toIS3_ESaISt4pairIKS3_S6_EEES6_S3_@Base 2.0.0
 _ZN10tensorflow15ColocationGraph21LimitToAssignedDeviceERKNS_4NodeE@Base 2.0.0
 _ZN10tensorflow15ColocationGraph22FilterSupportedDevicesERKSt6vectorIPNS_6DeviceESaIS3_EERKN4absl13InlinedVectorISt4pairINS_10DeviceTypeEiELm4ESaISC_EEEPKS2_@Base 2.0.0
 _ZN10tensorflow15ColocationGraph22LimitToPossibleDevicesERKNS_4NodeERKNS_15PossibleDevicesE@Base 2.0.0
 _ZN10tensorflow15ColocationGraph23ApplyIOColocationGroupsERKNS_18IOColocationGroupsERKNS_4NodeE@Base 2.0.0
 _ZN10tensorflow15ColocationGraph23GetSoftDeviceCandidatesERKNS_4NodeERKNS_6MemberEiPSt6vectorIPNS_6DeviceESaIS9_EE@Base 2.0.0
 _ZN10tensorflow15ColocationGraph24AddInspectionConstraintsERKSt13unordered_setIPNS_4NodeESt4hashIS3_ESt8equal_toIS3_ESaIS3_EE@Base 2.0.0
 _ZN10tensorflow15ColocationGraph25ColocateResourceOrRefEdgeEPKNS_4NodeES3_@Base 2.0.0
 _ZN10tensorflow15ColocationGraph27ColocateResourceAndRefEdgesEPSt13unordered_setIPNS_4NodeESt4hashIS3_ESt8equal_toIS3_ESaIS3_EE@Base 2.0.0
 _ZN10tensorflow15ColocationGraph34InitializeMemberWithAssignedDeviceERKNSt7__cxx1112basic_stringIcSt11char_traitsIcESaIcEEES8_PNS_6MemberE@Base 2.0.0
 _ZN10tensorflow15ColocationGraphC1EPKNS_5GraphERKNS_13FunctionStackEPKNS_25FunctionLibraryDefinitionEPKNS_9DeviceSetEPKNS_6DeviceEbb@Base 2.0.0
 _ZN10tensorflow15ColocationGraphC2EPKNS_5GraphERKNS_13FunctionStackEPKNS_25FunctionLibraryDefinitionEPKNS_9DeviceSetEPKNS_6DeviceEbb@Base 2.0.0
 _ZN10tensorflow15ColocationGraphD1Ev@Base 2.0.0
 _ZN10tensorflow15ColocationGraphD2Ev@Base 2.0.0
 _ZN10tensorflow15CurlHttpRequest11SetTimeoutsEjjj@Base 2.0.0
 _ZN10tensorflow15CurlHttpRequest12EscapeStringERKNSt7__cxx1112basic_stringIcSt11char_traitsIcESaIcEEE@Base 2.0.0
 _ZN10tensorflow15CurlHttpRequest12ReadCallbackEPvmmP8_IO_FILE@Base 2.0.0
 _ZN10tensorflow15CurlHttpRequest13WriteCallbackEPKvmmPv@Base 2.0.0
 _ZN10tensorflow15CurlHttpRequest14HeaderCallbackEPKvmmPv@Base 2.0.0
 _ZN10tensorflow15CurlHttpRequest14SetPutFromFileERKNSt7__cxx1112basic_stringIcSt11char_traitsIcESaIcEEEm@Base 2.0.0
 _ZN10tensorflow15CurlHttpRequest15SetPutEmptyBodyEv@Base 2.0.0
 _ZN10tensorflow15CurlHttpRequest15SetRequestStatsEPNS_11HttpRequest12RequestStatsE@Base 2.0.0
 _ZN10tensorflow15CurlHttpRequest15SetResultBufferEPSt6vectorIcSaIcEE@Base 2.0.0
 _ZN10tensorflow15CurlHttpRequest16CURLcodeToStatusE8CURLcodePKc@Base 2.0.0
 _ZN10tensorflow15CurlHttpRequest16ProgressCallbackEPvllll@Base 2.0.0
 _ZN10tensorflow15CurlHttpRequest16SetDeleteRequestEv@Base 2.0.0
 _ZN10tensorflow15CurlHttpRequest16SetPostEmptyBodyEv@Base 2.0.0
 _ZN10tensorflow15CurlHttpRequest17SetPostFromBufferEPKcm@Base 2.0.0
 _ZN10tensorflow15CurlHttpRequest18AddResolveOverrideERKNSt7__cxx1112basic_stringIcSt11char_traitsIcESaIcEEExS8_@Base 2.0.0
 _ZN10tensorflow15CurlHttpRequest19AddAuthBearerHeaderERKNSt7__cxx1112basic_stringIcSt11char_traitsIcESaIcEEE@Base 2.0.0
 _ZN10tensorflow15CurlHttpRequest19WriteCallbackDirectEPKvmmPv@Base 2.0.0
 _ZN10tensorflow15CurlHttpRequest21SetResultBufferDirectEPcm@Base 2.0.0
 _ZN10tensorflow15CurlHttpRequest37GetResultBufferDirectBytesTransferredEv@Base 2.0.0
 _ZN10tensorflow15CurlHttpRequest4SendEv@Base 2.0.0
 _ZN10tensorflow15CurlHttpRequest6SetUriERKNSt7__cxx1112basic_stringIcSt11char_traitsIcESaIcEEE@Base 2.0.0
 _ZN10tensorflow15CurlHttpRequest7Factory6CreateEv@Base 2.0.0
 _ZN10tensorflow15CurlHttpRequest7FactoryD0Ev@Base 2.0.0
 _ZN10tensorflow15CurlHttpRequest7FactoryD1Ev@Base 2.0.0
 _ZN10tensorflow15CurlHttpRequest7FactoryD2Ev@Base 2.0.0
 _ZN10tensorflow15CurlHttpRequest8SetRangeEyy@Base 2.0.0
 _ZN10tensorflow15CurlHttpRequest9AddHeaderERKNSt7__cxx1112basic_stringIcSt11char_traitsIcESaIcEEES8_@Base 2.0.0
 _ZN10tensorflow15CurlHttpRequestC1EPNS_7LibCurlEPNS_3EnvE@Base 2.0.0
 _ZN10tensorflow15CurlHttpRequestC1Ev@Base 2.0.0
 _ZN10tensorflow15CurlHttpRequestC2EPNS_7LibCurlEPNS_3EnvE@Base 2.0.0
 _ZN10tensorflow15CurlHttpRequestC2Ev@Base 2.0.0
 _ZN10tensorflow15CurlHttpRequestD0Ev@Base 2.0.0
 _ZN10tensorflow15CurlHttpRequestD1Ev@Base 2.0.0
 _ZN10tensorflow15CurlHttpRequestD2Ev@Base 2.0.0
 _ZN10tensorflow15DeviceNameUtils10ParsedNameD1Ev@Base 2.0.0
 _ZN10tensorflow15DeviceNameUtils10ParsedNameD2Ev@Base 2.0.0
 _ZN10tensorflow15DeviceNameUtils11GetTaskNameERKNS0_10ParsedNameEPNSt7__cxx1112basic_stringIcSt11char_traitsIcESaIcEEE@Base 2.0.0
 _ZN10tensorflow15DeviceNameUtils13MergeDevNamesEPNS0_10ParsedNameERKS1_b@Base 2.0.0
 _ZN10tensorflow15DeviceNameUtils13ParseFullNameEN4absl11string_viewEPNS0_10ParsedNameE@Base 2.0.0
 _ZN10tensorflow15DeviceNameUtils14ParseLocalNameEN4absl11string_viewEPNS0_10ParsedNameE@Base 2.0.0
 _ZN10tensorflow15DeviceNameUtils15IsSpecificationERKNS0_10ParsedNameES3_@Base 2.0.0
 _ZN10tensorflow15DeviceNameUtils15SplitDeviceNameEN4absl11string_viewEPNSt7__cxx1112basic_stringIcSt11char_traitsIcESaIcEEES9_@Base 2.0.0
 _ZN10tensorflow15DeviceNameUtils18IsSameAddressSpaceEN4absl11string_viewES2_@Base 2.0.0
 _ZN10tensorflow15DeviceNameUtils18IsSameAddressSpaceERKNS0_10ParsedNameES3_@Base 2.0.0
 _ZN10tensorflow15DeviceNameUtils18ParsedNameToStringB5cxx11ERKNS0_10ParsedNameE@Base 2.0.0
 _ZN10tensorflow15DeviceNameUtils19EnsureSpecificationEPNS0_10ParsedNameERKS1_@Base 2.0.0
 _ZN10tensorflow15DeviceNameUtils21MergeOverrideDevNamesEPNS0_10ParsedNameERKS1_@Base 2.0.0
 _ZN10tensorflow15DeviceNameUtils22CanonicalizeDeviceNameEN4absl11string_viewES2_PNSt7__cxx1112basic_stringIcSt11char_traitsIcESaIcEEE@Base 2.0.0
 _ZN10tensorflow15DeviceNameUtils23IsCompleteSpecificationERKNS0_10ParsedNameES3_@Base 2.0.0
 _ZN10tensorflow15DeviceNameUtils25DeviceNameToCpuDeviceNameERKNSt7__cxx1112basic_stringIcSt11char_traitsIcESaIcEEEPS6_@Base 2.0.0
 _ZN10tensorflow15DeviceNameUtils25GetNamesForDeviceMappingsB5cxx11ERKNS0_10ParsedNameE@Base 2.0.0
 _ZN10tensorflow15DeviceNameUtils30GetLocalNamesForDeviceMappingsB5cxx11ERKNS0_10ParsedNameE@Base 2.0.0
 _ZN10tensorflow15DeviceNameUtils8FullNameERKNSt7__cxx1112basic_stringIcSt11char_traitsIcESaIcEEEiiS8_i@Base 2.0.0
 _ZN10tensorflow15DeviceNameUtils9LocalNameB5cxx11EN4absl11string_viewE@Base 2.0.0
 _ZN10tensorflow15DeviceNameUtils9LocalNameB5cxx11EN4absl11string_viewEi@Base 2.0.0
 _ZN10tensorflow15DeviceStepStats12InternalSwapEPS0_@Base 2.0.0
 _ZN10tensorflow15DeviceStepStats14_InternalParseEPKcPN6google8protobuf8internal12ParseContextE@Base 2.0.0
 _ZN10tensorflow15DeviceStepStats16default_instanceEv@Base 2.0.0
 _ZN10tensorflow15DeviceStepStats21InitAsDefaultInstanceEv@Base 2.0.0
 _ZN10tensorflow15DeviceStepStats5ClearEv@Base 2.0.0
 _ZN10tensorflow15DeviceStepStats8CopyFromERKN6google8protobuf7MessageE@Base 2.0.0
 _ZN10tensorflow15DeviceStepStats8CopyFromERKS0_@Base 2.0.0
 _ZN10tensorflow15DeviceStepStats9ArenaDtorEPv@Base 2.0.0
 _ZN10tensorflow15DeviceStepStats9MergeFromERKN6google8protobuf7MessageE@Base 2.0.0
 _ZN10tensorflow15DeviceStepStats9MergeFromERKS0_@Base 2.0.0
 _ZN10tensorflow15DeviceStepStatsC1EPN6google8protobuf5ArenaE@Base 2.0.0
 _ZN10tensorflow15DeviceStepStatsC1ERKS0_@Base 2.0.0
 _ZN10tensorflow15DeviceStepStatsC1Ev@Base 2.0.0
 _ZN10tensorflow15DeviceStepStatsC2EPN6google8protobuf5ArenaE@Base 2.0.0
 _ZN10tensorflow15DeviceStepStatsC2ERKS0_@Base 2.0.0
 _ZN10tensorflow15DeviceStepStatsC2Ev@Base 2.0.0
 _ZN10tensorflow15DeviceStepStatsD0Ev@Base 2.0.0
 _ZN10tensorflow15DeviceStepStatsD1Ev@Base 2.0.0
 _ZN10tensorflow15DeviceStepStatsD2Ev@Base 2.0.0
 _ZN10tensorflow15DumpGraphToFileERKNSt7__cxx1112basic_stringIcSt11char_traitsIcESaIcEEERKNS_5GraphEPKNS_25FunctionLibraryDefinitionES7_@Base 2.0.0
 _ZN10tensorflow15EventMgrFactory11GetEventMgrEPN15stream_executor14StreamExecutorERKNS_10GPUOptionsE@Base 2.0.0
 _ZN10tensorflow15EventMgrFactory9SingletonEv@Base 2.0.0
 _ZN10tensorflow15ExecutorFactory10GetFactoryERKNSt7__cxx1112basic_stringIcSt11char_traitsIcESaIcEEEPPS0_@Base 2.0.0
 _ZN10tensorflow15ExecutorFactory8RegisterERKNSt7__cxx1112basic_stringIcSt11char_traitsIcESaIcEEEPS0_@Base 2.0.0
 _ZN10tensorflow15FindAttrMutableEN4absl11string_viewEPNS_5OpDefE@Base 2.0.0
 _ZN10tensorflow15FloatToBFloat16EPKfPNS_8bfloat16Ex@Base 2.0.0
 _ZN10tensorflow15FunctionDefHashERKNS_11FunctionDefE@Base 2.0.0
 _ZN10tensorflow15GPUBFCAllocator19GetAllowGrowthValueERKNS_10GPUOptionsE@Base 2.0.0
 _ZN10tensorflow15GPUBFCAllocator25GetGarbageCollectionValueEv@Base 2.0.0
 _ZN10tensorflow15GPUBFCAllocatorC1EPNS_15GPUMemAllocatorEmRKNS_10GPUOptionsERKNSt7__cxx1112basic_stringIcSt11char_traitsIcESaIcEEE@Base 2.0.0
 _ZN10tensorflow15GPUBFCAllocatorC1EPNS_15GPUMemAllocatorEmRKNSt7__cxx1112basic_stringIcSt11char_traitsIcESaIcEEE@Base 2.0.0
 _ZN10tensorflow15GPUBFCAllocatorC2EPNS_15GPUMemAllocatorEmRKNS_10GPUOptionsERKNSt7__cxx1112basic_stringIcSt11char_traitsIcESaIcEEE@Base 2.0.0
 _ZN10tensorflow15GPUBFCAllocatorC2EPNS_15GPUMemAllocatorEmRKNSt7__cxx1112basic_stringIcSt11char_traitsIcESaIcEEE@Base 2.0.0
 _ZN10tensorflow15GPUBFCAllocatorD0Ev@Base 2.0.0
 _ZN10tensorflow15GPUBFCAllocatorD1Ev@Base 2.0.0
 _ZN10tensorflow15GPUBFCAllocatorD2Ev@Base 2.0.0
 _ZN10tensorflow15GPUProcessState11BusIdForGPUENS_3gtl7IntTypeINS_12TfGpuId_tag_EiEE@Base 2.0.0
 _ZN10tensorflow15GPUProcessState13TestOnlyResetEv@Base 2.0.0
 _ZN10tensorflow15GPUProcessState15GetGPUAllocatorERKNS_10GPUOptionsENS_3gtl7IntTypeINS_12TfGpuId_tag_EiEEm@Base 2.0.0
 _ZN10tensorflow15GPUProcessState18AddGPUAllocVisitorEiRKSt8functionIFvPvimEE@Base 2.0.0
 _ZN10tensorflow15GPUProcessState19GPUAllocatorCounterENS_3gtl7IntTypeINS_12TfGpuId_tag_EiEE@Base 2.0.0
 _ZN10tensorflow15GPUProcessState19GetGpuHostAllocatorEi@Base 2.0.0
 _ZN10tensorflow15GPUProcessState21AddGpuHostFreeVisitorEiRKSt8functionIFvPvimEE@Base 2.0.0
 _ZN10tensorflow15GPUProcessState22AddGpuHostAllocVisitorEiRKSt8functionIFvPvimEE@Base 2.0.0
 _ZN10tensorflow15GPUProcessState9singletonEPS0_@Base 2.0.0
 _ZN10tensorflow15GPUProcessStateC1Ev@Base 2.0.0
 _ZN10tensorflow15GPUProcessStateC2Ev@Base 2.0.0
 _ZN10tensorflow15GPUProcessStateD0Ev@Base 2.0.0
 _ZN10tensorflow15GPUProcessStateD1Ev@Base 2.0.0
 _ZN10tensorflow15GPUProcessStateD2Ev@Base 2.0.0
 _ZN10tensorflow15Get3dOutputSizeERKSt5arrayIxLm3EES3_S3_NS_7PaddingEPS1_S5_@Base 2.0.0
 _ZN10tensorflow15GpuPlatformNameB5cxx11Ev@Base 2.0.0
 _ZN10tensorflow15GraphDefBuilder7Options12WithNameImplEN4absl11string_viewE@Base 2.0.0
 _ZN10tensorflow15GraphDefBuilder7Options14WithDeviceImplEN4absl11string_viewE@Base 2.0.0
 _ZN10tensorflow15GraphDefBuilder7Options20WithControlInputImplEPNS_4NodeE@Base 2.0.0
 _ZN10tensorflow15GraphDefBuilder7Options21WithControlInputsImplEN4absl4SpanIKPNS_4NodeEEE@Base 2.0.0
 _ZN10tensorflow15GraphDefBuilder7OptionsC1EPNS_5GraphEPNS_6StatusE@Base 2.0.0
 _ZN10tensorflow15GraphDefBuilder7OptionsC2EPNS_5GraphEPNS_6StatusE@Base 2.0.0
 _ZN10tensorflow15GraphDefBuilder7OptionsD1Ev@Base 2.0.0
 _ZN10tensorflow15GraphDefBuilder7OptionsD2Ev@Base 2.0.0
 _ZN10tensorflow15HandleFromInputEPNS_15OpKernelContextEN4absl11string_viewEPNS_14ResourceHandleE@Base 2.0.0
 _ZN10tensorflow15HandleFromInputEPNS_15OpKernelContextEi@Base 2.0.0
 _ZN10tensorflow15IsBuiltWithROCmEv@Base 2.0.0
 _ZN10tensorflow15MakeShapeHelperIiNS_11TensorShapeEEENS_6StatusEPKT_xPT0_@Base 2.0.0
 _ZN10tensorflow15MakeShapeHelperIiNS_18PartialTensorShapeEEENS_6StatusEPKT_xPT0_@Base 2.0.0
 _ZN10tensorflow15MakeShapeHelperIxNS_11TensorShapeEEENS_6StatusEPKT_xPT0_@Base 2.0.0
 _ZN10tensorflow15MakeShapeHelperIxNS_18PartialTensorShapeEEENS_6StatusEPKT_xPT0_@Base 2.0.0
 _ZN10tensorflow15NamedTupleValue12InternalSwapEPS0_@Base 2.0.0
 _ZN10tensorflow15NamedTupleValue14_InternalParseEPKcPN6google8protobuf8internal12ParseContextE@Base 2.0.0
 _ZN10tensorflow15NamedTupleValue16default_instanceEv@Base 2.0.0
 _ZN10tensorflow15NamedTupleValue21InitAsDefaultInstanceEv@Base 2.0.0
 _ZN10tensorflow15NamedTupleValue5ClearEv@Base 2.0.0
 _ZN10tensorflow15NamedTupleValue8CopyFromERKN6google8protobuf7MessageE@Base 2.0.0
 _ZN10tensorflow15NamedTupleValue8CopyFromERKS0_@Base 2.0.0
 _ZN10tensorflow15NamedTupleValue9MergeFromERKN6google8protobuf7MessageE@Base 2.0.0
 _ZN10tensorflow15NamedTupleValue9MergeFromERKS0_@Base 2.0.0
 _ZN10tensorflow15NamedTupleValueC1ERKS0_@Base 2.0.0
 _ZN10tensorflow15NamedTupleValueC1Ev@Base 2.0.0
 _ZN10tensorflow15NamedTupleValueC2ERKS0_@Base 2.0.0
 _ZN10tensorflow15NamedTupleValueC2Ev@Base 2.0.0
 _ZN10tensorflow15NamedTupleValueD0Ev@Base 2.0.0
 _ZN10tensorflow15NamedTupleValueD1Ev@Base 2.0.0
 _ZN10tensorflow15NamedTupleValueD2Ev@Base 2.0.0
 _ZN10tensorflow15OpDefCompatibleERKNS_5OpDefES2_@Base 2.0.0
 _ZN10tensorflow15OpKernelContext10CtxFailureEPKciRKNS_6StatusE@Base 2.0.0
 _ZN10tensorflow15OpKernelContext10CtxFailureERKNS_6StatusE@Base 2.0.0
 _ZN10tensorflow15OpKernelContext10input_listEN4absl11string_viewEPNS_11OpInputListE@Base 2.0.0
 _ZN10tensorflow15OpKernelContext10set_outputEN4absl11string_viewERKNS_6TensorE@Base 2.0.0
 _ZN10tensorflow15OpKernelContext10set_outputEiRKNS_6TensorE@Base 2.0.0
 _ZN10tensorflow15OpKernelContext11output_listEN4absl11string_viewEPNS_12OpOutputListE@Base 2.0.0
 _ZN10tensorflow15OpKernelContext13allocate_tempENS_8DataTypeERKNS_11TensorShapeEPNS_6TensorENS_19AllocatorAttributesERKNS_20AllocationAttributesE@Base 2.0.0
 _ZN10tensorflow15OpKernelContext13forward_inputEiiNS_8DataTypeERKNS_11TensorShapeENS_10MemoryTypeERKNS_19AllocatorAttributesE@Base 2.0.0
 _ZN10tensorflow15OpKernelContext13get_allocatorENS_19AllocatorAttributesE@Base 2.0.0
 _ZN10tensorflow15OpKernelContext13mutable_inputEN4absl11string_viewEPNS_6TensorEb@Base 2.0.0
 _ZN10tensorflow15OpKernelContext13mutable_inputEib@Base 2.0.0
 _ZN10tensorflow15OpKernelContext14MatchSignatureEN4absl4SpanIKNS_8DataTypeEEES5_@Base 2.0.0
 _ZN10tensorflow15OpKernelContext14mutable_outputEN4absl11string_viewEPPNS_6TensorE@Base 2.0.0
 _ZN10tensorflow15OpKernelContext14set_output_refEN4absl11string_viewEPNS_5mutexEPNS_6TensorE@Base 2.0.0
 _ZN10tensorflow15OpKernelContext14set_output_refEiPNS_5mutexEPNS_6TensorE@Base 2.0.0
 _ZN10tensorflow15OpKernelContext15allocate_outputEN4absl11string_viewERKNS_11TensorShapeEPPNS_6TensorE@Base 2.0.0
 _ZN10tensorflow15OpKernelContext15allocate_outputEN4absl11string_viewERKNS_11TensorShapeEPPNS_6TensorENS_19AllocatorAttributesE@Base 2.0.0
 _ZN10tensorflow15OpKernelContext15allocate_outputEiRKNS_11TensorShapeEPPNS_6TensorE@Base 2.0.0
 _ZN10tensorflow15OpKernelContext15allocate_outputEiRKNS_11TensorShapeEPPNS_6TensorENS_19AllocatorAttributesE@Base 2.0.0
 _ZN10tensorflow15OpKernelContext15allocate_tensorENS_8DataTypeERKNS_11TensorShapeEPNS_6TensorENS_19AllocatorAttributesERKNS_20AllocationAttributesE@Base 2.0.0
 _ZN10tensorflow15OpKernelContext15input_ref_mutexEN4absl11string_viewEPPNS_5mutexE@Base 2.0.0
 _ZN10tensorflow15OpKernelContext16delete_ref_inputEib@Base 2.0.0
 _ZN10tensorflow15OpKernelContext17replace_ref_inputEN4absl11string_viewERKNS_6TensorEb@Base 2.0.0
 _ZN10tensorflow15OpKernelContext17replace_ref_inputEiRKNS_6TensorEb@Base 2.0.0
 _ZN10tensorflow15OpKernelContext18mutable_input_listEN4absl11string_viewEPNS_18OpMutableInputListE@Base 2.0.0
 _ZN10tensorflow15OpKernelContext19allocate_persistentENS_8DataTypeERKNS_11TensorShapeEPNS_16PersistentTensorEPPNS_6TensorENS_19AllocatorAttributesE@Base 2.0.0
 _ZN10tensorflow15OpKernelContext21CtxFailureWithWarningEPKciRKNS_6StatusE@Base 2.0.0
 _ZN10tensorflow15OpKernelContext21CtxFailureWithWarningERKNS_6StatusE@Base 2.0.0
 _ZN10tensorflow15OpKernelContext21clear_recorded_memoryEv@Base 2.0.0
 _ZN10tensorflow15OpKernelContext26ValidateInputsAreSameShapeEPNS_8OpKernelE@Base 2.0.0
 _ZN10tensorflow15OpKernelContext29maybe_initialize_scope_id_setEv@Base 2.0.0
 _ZN10tensorflow15OpKernelContext29record_temp_memory_allocationExRKNS_6TensorE@Base 2.0.0
 _ZN10tensorflow15OpKernelContext30forward_input_or_allocate_tempEN4absl4SpanIKiEENS_8DataTypeERKNS_11TensorShapeERKNS_19AllocatorAttributesEPNS_6TensorE@Base 2.0.0
 _ZN10tensorflow15OpKernelContext30really_record_tensor_referenceERKNS_6TensorE@Base 2.0.0
 _ZN10tensorflow15OpKernelContext31forward_ref_input_to_ref_outputEii@Base 2.0.0
 _ZN10tensorflow15OpKernelContext34forward_input_to_output_with_shapeEN4absl11string_viewES2_RKNS_11TensorShapeEPPNS_6TensorE@Base 2.0.0
 _ZN10tensorflow15OpKernelContext34forward_input_to_output_with_shapeEiiRKNS_11TensorShapeEPPNS_6TensorE@Base 2.0.0
 _ZN10tensorflow15OpKernelContext35record_persistent_memory_allocationExx@Base 2.0.0
 _ZN10tensorflow15OpKernelContext5inputEN4absl11string_viewEPPKNS_6TensorE@Base 2.0.0
 _ZN10tensorflow15OpKernelContext5inputEi@Base 2.0.0
 _ZN10tensorflow15OpKernelContext6Params13kNeverForwardE@Base 2.0.0
 _ZN10tensorflow15OpKernelContext6Params14kNoReservationE@Base 2.0.0
 _ZN10tensorflow15OpKernelContext6ParamsD1Ev@Base 2.0.0
 _ZN10tensorflow15OpKernelContext6ParamsD2Ev@Base 2.0.0
 _ZN10tensorflow15OpKernelContext9SetStatusERKNS_6StatusE@Base 2.0.0
 _ZN10tensorflow15OpKernelContextC1EPNS0_6ParamsE@Base 2.0.0
 _ZN10tensorflow15OpKernelContextC1EPNS0_6ParamsEi@Base 2.0.0
 _ZN10tensorflow15OpKernelContextC2EPNS0_6ParamsE@Base 2.0.0
 _ZN10tensorflow15OpKernelContextC2EPNS0_6ParamsEi@Base 2.0.0
 _ZN10tensorflow15OpKernelContextD1Ev@Base 2.0.0
 _ZN10tensorflow15OpKernelContextD2Ev@Base 2.0.0
 _ZN10tensorflow15ParseTensorNameEN4absl11string_viewE@Base 2.0.0
 _ZN10tensorflow15ParseTensorNameERKNSt7__cxx1112basic_stringIcSt11char_traitsIcESaIcEEE@Base 2.0.0
 _ZN10tensorflow15PosixFileSystem10DeleteFileERKNSt7__cxx1112basic_stringIcSt11char_traitsIcESaIcEEE@Base 2.0.0
 _ZN10tensorflow15PosixFileSystem10FileExistsERKNSt7__cxx1112basic_stringIcSt11char_traitsIcESaIcEEE@Base 2.0.0
 _ZN10tensorflow15PosixFileSystem10RenameFileERKNSt7__cxx1112basic_stringIcSt11char_traitsIcESaIcEEES8_@Base 2.0.0
 _ZN10tensorflow15PosixFileSystem11GetChildrenERKNSt7__cxx1112basic_stringIcSt11char_traitsIcESaIcEEEPSt6vectorIS6_SaIS6_EE@Base 2.0.0
 _ZN10tensorflow15PosixFileSystem11GetFileSizeERKNSt7__cxx1112basic_stringIcSt11char_traitsIcESaIcEEEPy@Base 2.0.0
 _ZN10tensorflow15PosixFileSystem15NewWritableFileERKNSt7__cxx1112basic_stringIcSt11char_traitsIcESaIcEEEPSt10unique_ptrINS_12WritableFileESt14default_deleteISA_EE@Base 2.0.0
 _ZN10tensorflow15PosixFileSystem16GetMatchingPathsERKNSt7__cxx1112basic_stringIcSt11char_traitsIcESaIcEEEPSt6vectorIS6_SaIS6_EE@Base 2.0.0
 _ZN10tensorflow15PosixFileSystem17NewAppendableFileERKNSt7__cxx1112basic_stringIcSt11char_traitsIcESaIcEEEPSt10unique_ptrINS_12WritableFileESt14default_deleteISA_EE@Base 2.0.0
 _ZN10tensorflow15PosixFileSystem19NewRandomAccessFileERKNSt7__cxx1112basic_stringIcSt11char_traitsIcESaIcEEEPSt10unique_ptrINS_16RandomAccessFileESt14default_deleteISA_EE@Base 2.0.0
 _ZN10tensorflow15PosixFileSystem31NewReadOnlyMemoryRegionFromFileERKNSt7__cxx1112basic_stringIcSt11char_traitsIcESaIcEEEPSt10unique_ptrINS_20ReadOnlyMemoryRegionESt14default_deleteISA_EE@Base 2.0.0
 _ZN10tensorflow15PosixFileSystem4StatERKNSt7__cxx1112basic_stringIcSt11char_traitsIcESaIcEEEPNS_14FileStatisticsE@Base 2.0.0
 _ZN10tensorflow15PosixFileSystem8CopyFileERKNSt7__cxx1112basic_stringIcSt11char_traitsIcESaIcEEES8_@Base 2.0.0
 _ZN10tensorflow15PosixFileSystem9CreateDirERKNSt7__cxx1112basic_stringIcSt11char_traitsIcESaIcEEE@Base 2.0.0
 _ZN10tensorflow15PosixFileSystem9DeleteDirERKNSt7__cxx1112basic_stringIcSt11char_traitsIcESaIcEEE@Base 2.0.0
 _ZN10tensorflow15PosixFileSystemD0Ev@Base 2.0.0
 _ZN10tensorflow15PosixFileSystemD1Ev@Base 2.0.0
 _ZN10tensorflow15PosixFileSystemD2Ev@Base 2.0.0
 _ZN10tensorflow15ReadBinaryProtoEPNS_3EnvERKNSt7__cxx1112basic_stringIcSt11char_traitsIcESaIcEEEPN6google8protobuf11MessageLiteE@Base 2.0.0
 _ZN10tensorflow15ReaderBaseState12InternalSwapEPS0_@Base 2.0.0
 _ZN10tensorflow15ReaderBaseState14_InternalParseEPKcPN6google8protobuf8internal12ParseContextE@Base 2.0.0
 _ZN10tensorflow15ReaderBaseState16default_instanceEv@Base 2.0.0
 _ZN10tensorflow15ReaderBaseState21InitAsDefaultInstanceEv@Base 2.0.0
 _ZN10tensorflow15ReaderBaseState5ClearEv@Base 2.0.0
 _ZN10tensorflow15ReaderBaseState8CopyFromERKN6google8protobuf7MessageE@Base 2.0.0
 _ZN10tensorflow15ReaderBaseState8CopyFromERKS0_@Base 2.0.0
 _ZN10tensorflow15ReaderBaseState9ArenaDtorEPv@Base 2.0.0
 _ZN10tensorflow15ReaderBaseState9MergeFromERKN6google8protobuf7MessageE@Base 2.0.0
 _ZN10tensorflow15ReaderBaseState9MergeFromERKS0_@Base 2.0.0
 _ZN10tensorflow15ReaderBaseStateC1EPN6google8protobuf5ArenaE@Base 2.0.0
 _ZN10tensorflow15ReaderBaseStateC1ERKS0_@Base 2.0.0
 _ZN10tensorflow15ReaderBaseStateC1Ev@Base 2.0.0
 _ZN10tensorflow15ReaderBaseStateC2EPN6google8protobuf5ArenaE@Base 2.0.0
 _ZN10tensorflow15ReaderBaseStateC2ERKS0_@Base 2.0.0
 _ZN10tensorflow15ReaderBaseStateC2Ev@Base 2.0.0
 _ZN10tensorflow15ReaderBaseStateD0Ev@Base 2.0.0
 _ZN10tensorflow15ReaderBaseStateD1Ev@Base 2.0.0
 _ZN10tensorflow15ReaderBaseStateD2Ev@Base 2.0.0
 _ZN10tensorflow15RemoveDeadNodesEPNS_5GraphE@Base 2.0.0
 _ZN10tensorflow15RewriteCaseNodeEPNS_4NodeEPNS_5GraphEb@Base 2.0.0
 _ZN10tensorflow15SavedUserObject12InternalSwapEPS0_@Base 2.0.0
 _ZN10tensorflow15SavedUserObject13clear_versionEv@Base 2.0.0
 _ZN10tensorflow15SavedUserObject14_InternalParseEPKcPN6google8protobuf8internal12ParseContextE@Base 2.0.0
 _ZN10tensorflow15SavedUserObject16default_instanceEv@Base 2.0.0
 _ZN10tensorflow15SavedUserObject21InitAsDefaultInstanceEv@Base 2.0.0
 _ZN10tensorflow15SavedUserObject34unsafe_arena_set_allocated_versionEPNS_10VersionDefE@Base 2.0.0
 _ZN10tensorflow15SavedUserObject5ClearEv@Base 2.0.0
 _ZN10tensorflow15SavedUserObject8CopyFromERKN6google8protobuf7MessageE@Base 2.0.0
 _ZN10tensorflow15SavedUserObject8CopyFromERKS0_@Base 2.0.0
 _ZN10tensorflow15SavedUserObject9ArenaDtorEPv@Base 2.0.0
 _ZN10tensorflow15SavedUserObject9MergeFromERKN6google8protobuf7MessageE@Base 2.0.0
 _ZN10tensorflow15SavedUserObject9MergeFromERKS0_@Base 2.0.0
 _ZN10tensorflow15SavedUserObject9_Internal7versionEPKS0_@Base 2.0.0
 _ZN10tensorflow15SavedUserObjectC1EPN6google8protobuf5ArenaE@Base 2.0.0
 _ZN10tensorflow15SavedUserObjectC1ERKS0_@Base 2.0.0
 _ZN10tensorflow15SavedUserObjectC1Ev@Base 2.0.0
 _ZN10tensorflow15SavedUserObjectC2EPN6google8protobuf5ArenaE@Base 2.0.0
 _ZN10tensorflow15SavedUserObjectC2ERKS0_@Base 2.0.0
 _ZN10tensorflow15SavedUserObjectC2Ev@Base 2.0.0
 _ZN10tensorflow15SavedUserObjectD0Ev@Base 2.0.0
 _ZN10tensorflow15SavedUserObjectD1Ev@Base 2.0.0
 _ZN10tensorflow15SavedUserObjectD2Ev@Base 2.0.0
 _ZN10tensorflow15ScopedAllocator11AllocateRawEim@Base 2.0.0
 _ZN10tensorflow15ScopedAllocator12VerifyTensorEPKNS_6TensorE@Base 2.0.0
 _ZN10tensorflow15ScopedAllocator13DeallocateRawEPv@Base 2.0.0
 _ZN10tensorflow15ScopedAllocator13VerifyPointerEPKv@Base 2.0.0
 _ZN10tensorflow15ScopedAllocatorC1ERKNS_6TensorEiRKNSt7__cxx1112basic_stringIcSt11char_traitsIcESaIcEEEN4absl4SpanIKNS0_5FieldEEEiPNS_24ScopedAllocatorContainerE@Base 2.0.0
 _ZN10tensorflow15ScopedAllocatorC2ERKNS_6TensorEiRKNSt7__cxx1112basic_stringIcSt11char_traitsIcESaIcEEEN4absl4SpanIKNS0_5FieldEEEiPNS_24ScopedAllocatorContainerE@Base 2.0.0
 _ZN10tensorflow15ScopedAllocatorD1Ev@Base 2.0.0
 _ZN10tensorflow15ScopedAllocatorD2Ev@Base 2.0.0
 _ZN10tensorflow15SequenceExample12InternalSwapEPS0_@Base 2.0.0
 _ZN10tensorflow15SequenceExample13clear_contextEv@Base 2.0.0
 _ZN10tensorflow15SequenceExample14_InternalParseEPKcPN6google8protobuf8internal12ParseContextE@Base 2.0.0
 _ZN10tensorflow15SequenceExample16default_instanceEv@Base 2.0.0
 _ZN10tensorflow15SequenceExample19clear_feature_listsEv@Base 2.0.0
 _ZN10tensorflow15SequenceExample21InitAsDefaultInstanceEv@Base 2.0.0
 _ZN10tensorflow15SequenceExample34unsafe_arena_set_allocated_contextEPNS_8FeaturesE@Base 2.0.0
 _ZN10tensorflow15SequenceExample40unsafe_arena_set_allocated_feature_listsEPNS_12FeatureListsE@Base 2.0.0
 _ZN10tensorflow15SequenceExample5ClearEv@Base 2.0.0
 _ZN10tensorflow15SequenceExample8CopyFromERKN6google8protobuf7MessageE@Base 2.0.0
 _ZN10tensorflow15SequenceExample8CopyFromERKS0_@Base 2.0.0
 _ZN10tensorflow15SequenceExample9ArenaDtorEPv@Base 2.0.0
 _ZN10tensorflow15SequenceExample9MergeFromERKN6google8protobuf7MessageE@Base 2.0.0
 _ZN10tensorflow15SequenceExample9MergeFromERKS0_@Base 2.0.0
 _ZN10tensorflow15SequenceExample9_Internal13feature_listsEPKS0_@Base 2.0.0
 _ZN10tensorflow15SequenceExample9_Internal7contextEPKS0_@Base 2.0.0
 _ZN10tensorflow15SequenceExampleC1EPN6google8protobuf5ArenaE@Base 2.0.0
 _ZN10tensorflow15SequenceExampleC1ERKS0_@Base 2.0.0
 _ZN10tensorflow15SequenceExampleC1Ev@Base 2.0.0
 _ZN10tensorflow15SequenceExampleC2EPN6google8protobuf5ArenaE@Base 2.0.0
 _ZN10tensorflow15SequenceExampleC2ERKS0_@Base 2.0.0
 _ZN10tensorflow15SequenceExampleC2Ev@Base 2.0.0
 _ZN10tensorflow15SequenceExampleD0Ev@Base 2.0.0
 _ZN10tensorflow15SequenceExampleD1Ev@Base 2.0.0
 _ZN10tensorflow15SequenceExampleD2Ev@Base 2.0.0
 _ZN10tensorflow15SessionMetadata12InternalSwapEPS0_@Base 2.0.0
 _ZN10tensorflow15SessionMetadata14_InternalParseEPKcPN6google8protobuf8internal12ParseContextE@Base 2.0.0
 _ZN10tensorflow15SessionMetadata16default_instanceEv@Base 2.0.0
 _ZN10tensorflow15SessionMetadata21InitAsDefaultInstanceEv@Base 2.0.0
 _ZN10tensorflow15SessionMetadata5ClearEv@Base 2.0.0
 _ZN10tensorflow15SessionMetadata8CopyFromERKN6google8protobuf7MessageE@Base 2.0.0
 _ZN10tensorflow15SessionMetadata8CopyFromERKS0_@Base 2.0.0
 _ZN10tensorflow15SessionMetadata9ArenaDtorEPv@Base 2.0.0
 _ZN10tensorflow15SessionMetadata9MergeFromERKN6google8protobuf7MessageE@Base 2.0.0
 _ZN10tensorflow15SessionMetadata9MergeFromERKS0_@Base 2.0.0
 _ZN10tensorflow15SessionMetadataC1EPN6google8protobuf5ArenaE@Base 2.0.0
 _ZN10tensorflow15SessionMetadataC1ERKS0_@Base 2.0.0
 _ZN10tensorflow15SessionMetadataC1Ev@Base 2.0.0
 _ZN10tensorflow15SessionMetadataC2EPN6google8protobuf5ArenaE@Base 2.0.0
 _ZN10tensorflow15SessionMetadataC2ERKS0_@Base 2.0.0
 _ZN10tensorflow15SessionMetadataC2Ev@Base 2.0.0
 _ZN10tensorflow15SessionMetadataD0Ev@Base 2.0.0
 _ZN10tensorflow15SessionMetadataD1Ev@Base 2.0.0
 _ZN10tensorflow15SessionMetadataD2Ev@Base 2.0.0
 _ZN10tensorflow15StatsCalculator12AddNodeStatsERKNSt7__cxx1112basic_stringIcSt11char_traitsIcESaIcEEES8_llll@Base 2.0.0
 _ZN10tensorflow15StatsCalculatorC1ERKNS_21StatSummarizerOptionsE@Base 2.0.0
 _ZN10tensorflow15StatsCalculatorC2ERKNS_21StatSummarizerOptionsE@Base 2.0.0
 _ZN10tensorflow15StructuredValue10clear_kindEv@Base 2.0.0
 _ZN10tensorflow15StructuredValue12InternalSwapEPS0_@Base 2.0.0
 _ZN10tensorflow15StructuredValue14_InternalParseEPKcPN6google8protobuf8internal12ParseContextE@Base 2.0.0
 _ZN10tensorflow15StructuredValue16default_instanceEv@Base 2.0.0
 _ZN10tensorflow15StructuredValue21InitAsDefaultInstanceEv@Base 2.0.0
 _ZN10tensorflow15StructuredValue24clear_tensor_shape_valueEv@Base 2.0.0
 _ZN10tensorflow15StructuredValue24set_allocated_dict_valueEPNS_9DictValueE@Base 2.0.0
 _ZN10tensorflow15StructuredValue24set_allocated_list_valueEPNS_9ListValueE@Base 2.0.0
 _ZN10tensorflow15StructuredValue24set_allocated_none_valueEPNS_9NoneValueE@Base 2.0.0
 _ZN10tensorflow15StructuredValue25set_allocated_tuple_valueEPNS_10TupleValueE@Base 2.0.0
 _ZN10tensorflow15StructuredValue29set_allocated_type_spec_valueEPNS_13TypeSpecProtoE@Base 2.0.0
 _ZN10tensorflow15StructuredValue31set_allocated_named_tuple_valueEPNS_15NamedTupleValueE@Base 2.0.0
 _ZN10tensorflow15StructuredValue31set_allocated_tensor_spec_valueEPNS_15TensorSpecProtoE@Base 2.0.0
 _ZN10tensorflow15StructuredValue32set_allocated_tensor_shape_valueEPNS_16TensorShapeProtoE@Base 2.0.0
 _ZN10tensorflow15StructuredValue5ClearEv@Base 2.0.0
 _ZN10tensorflow15StructuredValue8CopyFromERKN6google8protobuf7MessageE@Base 2.0.0
 _ZN10tensorflow15StructuredValue8CopyFromERKS0_@Base 2.0.0
 _ZN10tensorflow15StructuredValue9MergeFromERKN6google8protobuf7MessageE@Base 2.0.0
 _ZN10tensorflow15StructuredValue9MergeFromERKS0_@Base 2.0.0
 _ZN10tensorflow15StructuredValue9_Internal10dict_valueEPKS0_@Base 2.0.0
 _ZN10tensorflow15StructuredValue9_Internal10list_valueEPKS0_@Base 2.0.0
 _ZN10tensorflow15StructuredValue9_Internal10none_valueEPKS0_@Base 2.0.0
 _ZN10tensorflow15StructuredValue9_Internal11tuple_valueEPKS0_@Base 2.0.0
 _ZN10tensorflow15StructuredValue9_Internal15type_spec_valueEPKS0_@Base 2.0.0
 _ZN10tensorflow15StructuredValue9_Internal17named_tuple_valueEPKS0_@Base 2.0.0
 _ZN10tensorflow15StructuredValue9_Internal17tensor_spec_valueEPKS0_@Base 2.0.0
 _ZN10tensorflow15StructuredValue9_Internal18tensor_shape_valueEPKS0_@Base 2.0.0
 _ZN10tensorflow15StructuredValueC1ERKS0_@Base 2.0.0
 _ZN10tensorflow15StructuredValueC1Ev@Base 2.0.0
 _ZN10tensorflow15StructuredValueC2ERKS0_@Base 2.0.0
 _ZN10tensorflow15StructuredValueC2Ev@Base 2.0.0
 _ZN10tensorflow15StructuredValueD0Ev@Base 2.0.0
 _ZN10tensorflow15StructuredValueD1Ev@Base 2.0.0
 _ZN10tensorflow15StructuredValueD2Ev@Base 2.0.0
 _ZN10tensorflow15SummaryMetadata12InternalSwapEPS0_@Base 2.0.0
 _ZN10tensorflow15SummaryMetadata14_InternalParseEPKcPN6google8protobuf8internal12ParseContextE@Base 2.0.0
 _ZN10tensorflow15SummaryMetadata16default_instanceEv@Base 2.0.0
 _ZN10tensorflow15SummaryMetadata21InitAsDefaultInstanceEv@Base 2.0.0
 _ZN10tensorflow15SummaryMetadata38unsafe_arena_set_allocated_plugin_dataEPNS_26SummaryMetadata_PluginDataE@Base 2.0.0
 _ZN10tensorflow15SummaryMetadata5ClearEv@Base 2.0.0
 _ZN10tensorflow15SummaryMetadata8CopyFromERKN6google8protobuf7MessageE@Base 2.0.0
 _ZN10tensorflow15SummaryMetadata8CopyFromERKS0_@Base 2.0.0
 _ZN10tensorflow15SummaryMetadata9ArenaDtorEPv@Base 2.0.0
 _ZN10tensorflow15SummaryMetadata9MergeFromERKN6google8protobuf7MessageE@Base 2.0.0
 _ZN10tensorflow15SummaryMetadata9MergeFromERKS0_@Base 2.0.0
 _ZN10tensorflow15SummaryMetadata9_Internal11plugin_dataEPKS0_@Base 2.0.0
 _ZN10tensorflow15SummaryMetadataC1EPN6google8protobuf5ArenaE@Base 2.0.0
 _ZN10tensorflow15SummaryMetadataC1ERKS0_@Base 2.0.0
 _ZN10tensorflow15SummaryMetadataC1Ev@Base 2.0.0
 _ZN10tensorflow15SummaryMetadataC2EPN6google8protobuf5ArenaE@Base 2.0.0
 _ZN10tensorflow15SummaryMetadataC2ERKS0_@Base 2.0.0
 _ZN10tensorflow15SummaryMetadataC2Ev@Base 2.0.0
 _ZN10tensorflow15SummaryMetadataD0Ev@Base 2.0.0
 _ZN10tensorflow15SummaryMetadataD1Ev@Base 2.0.0
 _ZN10tensorflow15SummaryMetadataD2Ev@Base 2.0.0
 _ZN10tensorflow15TFRemoveLogSinkEPNS_9TFLogSinkE@Base 2.0.0
 _ZN10tensorflow15TensorReferenceC1ERKNS_6TensorE@Base 2.0.0
 _ZN10tensorflow15TensorReferenceC2ERKNS_6TensorE@Base 2.0.0
 _ZN10tensorflow15TensorShapeBaseINS_11TensorShapeEE11AppendShapeERKS2_@Base 2.0.0
 _ZN10tensorflow15TensorShapeBaseINS_11TensorShapeEE12IsValidShapeERKNS_16TensorShapeProtoE@Base 2.0.0
 _ZN10tensorflow15TensorShapeBaseINS_11TensorShapeEE12UnsafeAddDimExx@Base 2.0.0
 _ZN10tensorflow15TensorShapeBaseINS_11TensorShapeEE14RemoveDimRangeEii@Base 2.0.0
 _ZN10tensorflow15TensorShapeBaseINS_11TensorShapeEE14RemoveLastDimsEi@Base 2.0.0
 _ZN10tensorflow15TensorShapeBaseINS_11TensorShapeEE20RecomputeNumElementsEv@Base 2.0.0
 _ZN10tensorflow15TensorShapeBaseINS_11TensorShapeEE6AddDimEx@Base 2.0.0
 _ZN10tensorflow15TensorShapeBaseINS_11TensorShapeEE7IsValidERKNS_16TensorShapeProtoE@Base 2.0.0
 _ZN10tensorflow15TensorShapeBaseINS_11TensorShapeEE7set_dimEix@Base 2.0.0
 _ZN10tensorflow15TensorShapeBaseINS_11TensorShapeEE8InitDimsEN4absl4SpanIKxEE@Base 2.0.0
 _ZN10tensorflow15TensorShapeBaseINS_11TensorShapeEE9InsertDimEix@Base 2.0.0
 _ZN10tensorflow15TensorShapeBaseINS_11TensorShapeEE9RemoveDimEi@Base 2.0.0
 _ZN10tensorflow15TensorShapeBaseINS_11TensorShapeEEC1EN4absl4SpanIKxEE@Base 2.0.0
 _ZN10tensorflow15TensorShapeBaseINS_11TensorShapeEEC1ERKNS_16TensorShapeProtoE@Base 2.0.0
 _ZN10tensorflow15TensorShapeBaseINS_11TensorShapeEEC1ESt16initializer_listIxE@Base 2.0.0
 _ZN10tensorflow15TensorShapeBaseINS_11TensorShapeEEC1Ev@Base 2.0.0
 _ZN10tensorflow15TensorShapeBaseINS_11TensorShapeEEC2EN4absl4SpanIKxEE@Base 2.0.0
 _ZN10tensorflow15TensorShapeBaseINS_11TensorShapeEEC2ERKNS_16TensorShapeProtoE@Base 2.0.0
 _ZN10tensorflow15TensorShapeBaseINS_11TensorShapeEEC2ESt16initializer_listIxE@Base 2.0.0
 _ZN10tensorflow15TensorShapeBaseINS_11TensorShapeEEC2Ev@Base 2.0.0
 _ZN10tensorflow15TensorShapeBaseINS_18PartialTensorShapeEE11AppendShapeERKS2_@Base 2.0.0
 _ZN10tensorflow15TensorShapeBaseINS_18PartialTensorShapeEE12IsValidShapeERKNS_16TensorShapeProtoE@Base 2.0.0
 _ZN10tensorflow15TensorShapeBaseINS_18PartialTensorShapeEE12UnsafeAddDimExx@Base 2.0.0
 _ZN10tensorflow15TensorShapeBaseINS_18PartialTensorShapeEE14RemoveDimRangeEii@Base 2.0.0
 _ZN10tensorflow15TensorShapeBaseINS_18PartialTensorShapeEE14RemoveLastDimsEi@Base 2.0.0
 _ZN10tensorflow15TensorShapeBaseINS_18PartialTensorShapeEE20RecomputeNumElementsEv@Base 2.0.0
 _ZN10tensorflow15TensorShapeBaseINS_18PartialTensorShapeEE6AddDimEx@Base 2.0.0
 _ZN10tensorflow15TensorShapeBaseINS_18PartialTensorShapeEE7IsValidERKNS_16TensorShapeProtoE@Base 2.0.0
 _ZN10tensorflow15TensorShapeBaseINS_18PartialTensorShapeEE7set_dimEix@Base 2.0.0
 _ZN10tensorflow15TensorShapeBaseINS_18PartialTensorShapeEE8InitDimsEN4absl4SpanIKxEE@Base 2.0.0
 _ZN10tensorflow15TensorShapeBaseINS_18PartialTensorShapeEE9InsertDimEix@Base 2.0.0
 _ZN10tensorflow15TensorShapeBaseINS_18PartialTensorShapeEE9RemoveDimEi@Base 2.0.0
 _ZN10tensorflow15TensorShapeBaseINS_18PartialTensorShapeEEC1EN4absl4SpanIKxEE@Base 2.0.0
 _ZN10tensorflow15TensorShapeBaseINS_18PartialTensorShapeEEC1ERKNS_16TensorShapeProtoE@Base 2.0.0
 _ZN10tensorflow15TensorShapeBaseINS_18PartialTensorShapeEEC1ESt16initializer_listIxE@Base 2.0.0
 _ZN10tensorflow15TensorShapeBaseINS_18PartialTensorShapeEEC1Ev@Base 2.0.0
 _ZN10tensorflow15TensorShapeBaseINS_18PartialTensorShapeEEC2EN4absl4SpanIKxEE@Base 2.0.0
 _ZN10tensorflow15TensorShapeBaseINS_18PartialTensorShapeEEC2ERKNS_16TensorShapeProtoE@Base 2.0.0
 _ZN10tensorflow15TensorShapeBaseINS_18PartialTensorShapeEEC2ESt16initializer_listIxE@Base 2.0.0
 _ZN10tensorflow15TensorShapeBaseINS_18PartialTensorShapeEEC2Ev@Base 2.0.0
 _ZN10tensorflow15TensorSpecProto11clear_shapeEv@Base 2.0.0
 _ZN10tensorflow15TensorSpecProto12InternalSwapEPS0_@Base 2.0.0
 _ZN10tensorflow15TensorSpecProto14_InternalParseEPKcPN6google8protobuf8internal12ParseContextE@Base 2.0.0
 _ZN10tensorflow15TensorSpecProto16default_instanceEv@Base 2.0.0
 _ZN10tensorflow15TensorSpecProto21InitAsDefaultInstanceEv@Base 2.0.0
 _ZN10tensorflow15TensorSpecProto5ClearEv@Base 2.0.0
 _ZN10tensorflow15TensorSpecProto8CopyFromERKN6google8protobuf7MessageE@Base 2.0.0
 _ZN10tensorflow15TensorSpecProto8CopyFromERKS0_@Base 2.0.0
 _ZN10tensorflow15TensorSpecProto9MergeFromERKN6google8protobuf7MessageE@Base 2.0.0
 _ZN10tensorflow15TensorSpecProto9MergeFromERKS0_@Base 2.0.0
 _ZN10tensorflow15TensorSpecProto9_Internal5shapeEPKS0_@Base 2.0.0
 _ZN10tensorflow15TensorSpecProtoC1ERKS0_@Base 2.0.0
 _ZN10tensorflow15TensorSpecProtoC1Ev@Base 2.0.0
 _ZN10tensorflow15TensorSpecProtoC2ERKS0_@Base 2.0.0
 _ZN10tensorflow15TensorSpecProtoC2Ev@Base 2.0.0
 _ZN10tensorflow15TensorSpecProtoD0Ev@Base 2.0.0
 _ZN10tensorflow15TensorSpecProtoD1Ev@Base 2.0.0
 _ZN10tensorflow15TensorSpecProtoD2Ev@Base 2.0.0
 _ZN10tensorflow15TypeNameVariantINS_22VariantTensorDataProtoEEENSt7__cxx1112basic_stringIcSt11char_traitsIcESaIcEEERKT_@Base 2.0.0
 _ZN10tensorflow15ValidateNodeDefERKNS_7NodeDefERKNS_5OpDefE@Base 2.0.0
 _ZN10tensorflow15ValidateOpInputERKNSt7__cxx1112basic_stringIcSt11char_traitsIcESaIcEEEPb@Base 2.0.0
 _ZN10tensorflow15WhileContextDef12InternalSwapEPS0_@Base 2.0.0
 _ZN10tensorflow15WhileContextDef14_InternalParseEPKcPN6google8protobuf8internal12ParseContextE@Base 2.0.0
 _ZN10tensorflow15WhileContextDef16default_instanceEv@Base 2.0.0
 _ZN10tensorflow15WhileContextDef21InitAsDefaultInstanceEv@Base 2.0.0
 _ZN10tensorflow15WhileContextDef37unsafe_arena_set_allocated_values_defEPNS_9ValuesDefE@Base 2.0.0
 _ZN10tensorflow15WhileContextDef5ClearEv@Base 2.0.0
 _ZN10tensorflow15WhileContextDef8CopyFromERKN6google8protobuf7MessageE@Base 2.0.0
 _ZN10tensorflow15WhileContextDef8CopyFromERKS0_@Base 2.0.0
 _ZN10tensorflow15WhileContextDef9ArenaDtorEPv@Base 2.0.0
 _ZN10tensorflow15WhileContextDef9MergeFromERKN6google8protobuf7MessageE@Base 2.0.0
 _ZN10tensorflow15WhileContextDef9MergeFromERKS0_@Base 2.0.0
 _ZN10tensorflow15WhileContextDef9_Internal10values_defEPKS0_@Base 2.0.0
 _ZN10tensorflow15WhileContextDefC1EPN6google8protobuf5ArenaE@Base 2.0.0
 _ZN10tensorflow15WhileContextDefC1ERKS0_@Base 2.0.0
 _ZN10tensorflow15WhileContextDefC1Ev@Base 2.0.0
 _ZN10tensorflow15WhileContextDefC2EPN6google8protobuf5ArenaE@Base 2.0.0
 _ZN10tensorflow15WhileContextDefC2ERKS0_@Base 2.0.0
 _ZN10tensorflow15WhileContextDefC2Ev@Base 2.0.0
 _ZN10tensorflow15WhileContextDefD0Ev@Base 2.0.0
 _ZN10tensorflow15WhileContextDefD1Ev@Base 2.0.0
 _ZN10tensorflow15WhileContextDefD2Ev@Base 2.0.0
 _ZN10tensorflow15collective_util10SubContextC1EPNS_15OpKernelContextEPNS2_6ParamsEPNS_8OpKernelEPNS_6TensorES9_@Base 2.0.0
 _ZN10tensorflow15collective_util10SubContextC2EPNS_15OpKernelContextEPNS2_6ParamsEPNS_8OpKernelEPNS_6TensorES9_@Base 2.0.0
 _ZN10tensorflow15collective_util12ComputeBinOpEPNS_15OpKernelContextEPNS1_6ParamsEPNS_6DeviceEPNS_8OpKernelEPNS_6TensorESA_@Base 2.0.0
 _ZN10tensorflow15collective_util21SubdivPermDebugStringB5cxx11ERKNS_16CollectiveParamsE@Base 2.0.0
 _ZN10tensorflow15collective_util27InitializeDeviceAndLocalityEPKNS_9DeviceMgrERKNSt7__cxx1112basic_stringIcSt11char_traitsIcESaIcEEEPPNS_6DeviceEPNS_14DeviceLocalityE@Base 2.0.0
 _ZN10tensorflow15gpu_stream_util13AssignStreamsEPKNS_5GraphERKNS0_17AssignStreamsOptsEPSt13unordered_mapIiiSt4hashIiESt8equal_toIiESaISt4pairIKiiEEE@Base 2.0.0
 _ZN10tensorflow15kHeaderEntryKeyE@Base 2.0.0
 _ZN10tensorflow15shape_inference10SliceShapeEPNS0_16InferenceContextE@Base 2.0.0
 _ZN10tensorflow15shape_inference11ConcatShapeEPNS0_16InferenceContextEi@Base 2.0.0
 _ZN10tensorflow15shape_inference11Conv2DShapeEPNS0_16InferenceContextE@Base 2.0.0
 _ZN10tensorflow15shape_inference11Conv3DShapeEPNS0_16InferenceContextE@Base 2.0.0
 _ZN10tensorflow15shape_inference11EinsumShapeEPNS0_16InferenceContextE@Base 2.0.0
 _ZN10tensorflow15shape_inference11MatMulShapeEPNS0_16InferenceContextE@Base 2.0.0
 _ZN10tensorflow15shape_inference11Pool3DShapeEPNS0_16InferenceContextE@Base 2.0.0
 _ZN10tensorflow15shape_inference11RandomShapeEPNS0_16InferenceContextE@Base 2.0.0
 _ZN10tensorflow15shape_inference12AvgPoolShapeEPNS0_16InferenceContextE@Base 2.0.0
 _ZN10tensorflow15shape_inference12BiasAddShapeEPNS0_16InferenceContextE@Base 2.0.0
 _ZN10tensorflow15shape_inference12MaxPoolShapeEPNS0_16InferenceContextE@Base 2.0.0
 _ZN10tensorflow15shape_inference12UnknownShapeEPNS0_16InferenceContextE@Base 2.0.0
 _ZN10tensorflow15shape_inference13ConcatV2ShapeEPNS0_16InferenceContextE@Base 2.0.0
 _ZN10tensorflow15shape_inference13ExplicitShapeEPNS0_16InferenceContextE@Base 2.0.0
 _ZN10tensorflow15shape_inference13GatherNdShapeEPNS0_16InferenceContextE@Base 2.0.0
 _ZN10tensorflow15shape_inference14ExplicitShapesEPNS0_16InferenceContextE@Base 2.0.0
 _ZN10tensorflow15shape_inference14MaxPoolV2ShapeEPNS0_16InferenceContextEi@Base 2.0.0
 _ZN10tensorflow15shape_inference14ReductionShapeEPNS0_16InferenceContextE@Base 2.0.0
 _ZN10tensorflow15shape_inference14UnchangedShapeEPNS0_16InferenceContextE@Base 2.0.0
 _ZN10tensorflow15shape_inference16BatchMatMulShapeEPNS0_16InferenceContextE@Base 2.0.0
 _ZN10tensorflow15shape_inference16BiasAddGradShapeEPNS0_16InferenceContextE@Base 2.0.0
 _ZN10tensorflow15shape_inference16InferenceContext10ReplaceDimENS0_11ShapeHandleExNS0_15DimensionHandleEPS2_@Base 2.0.0
 _ZN10tensorflow15shape_inference16InferenceContext10set_outputEN4absl11string_viewERKSt6vectorINS0_11ShapeHandleESaIS5_EE@Base 2.0.0
 _ZN10tensorflow15shape_inference16InferenceContext10set_outputEiNS0_11ShapeHandleE@Base 2.0.0
 _ZN10tensorflow15shape_inference16InferenceContext11ConcatenateENS0_11ShapeHandleES2_PS2_@Base 2.0.0
 _ZN10tensorflow15shape_inference16InferenceContext11DebugStringB5cxx11EN4absl4SpanIKNS0_12ShapeAndTypeEEE@Base 2.0.0
 _ZN10tensorflow15shape_inference16InferenceContext11DebugStringB5cxx11ENS0_11ShapeHandleE@Base 2.0.0
 _ZN10tensorflow15shape_inference16InferenceContext11DebugStringB5cxx11ENS0_15DimensionHandleE@Base 2.0.0
 _ZN10tensorflow15shape_inference16InferenceContext11DebugStringB5cxx11ERKNS0_12ShapeAndTypeE@Base 2.0.0
 _ZN10tensorflow15shape_inference16InferenceContext11MergePrefixENS0_11ShapeHandleES2_PS2_S3_@Base 2.0.0
 _ZN10tensorflow15shape_inference16InferenceContext11NumElementsENS0_11ShapeHandleE@Base 2.0.0
 _ZN10tensorflow15shape_inference16InferenceContext11kUnknownDimE@Base 2.0.0
 _ZN10tensorflow15shape_inference16InferenceContext12DimKnownRankENS0_11ShapeHandleEx@Base 2.0.0
 _ZN10tensorflow15shape_inference16InferenceContext12FullyDefinedENS0_11ShapeHandleE@Base 2.0.0
 _ZN10tensorflow15shape_inference16InferenceContext12PreInputInitERKNS_5OpDefERKSt6vectorIPKNS_6TensorESaIS8_EERKS5_INS0_11ShapeHandleESaISD_EE@Base 2.0.0
 _ZN10tensorflow15shape_inference16InferenceContext12ShapeManager12UnknownShapeEv@Base 2.0.0
 _ZN10tensorflow15shape_inference16InferenceContext12ShapeManager9MakeShapeERKSt6vectorINS0_15DimensionHandleESaIS4_EE@Base 2.0.0
 _ZN10tensorflow15shape_inference16InferenceContext12ShapeManagerC1Ev@Base 2.0.0
 _ZN10tensorflow15shape_inference16InferenceContext12ShapeManagerC2Ev@Base 2.0.0
 _ZN10tensorflow15shape_inference16InferenceContext12ShapeManagerD1Ev@Base 2.0.0
 _ZN10tensorflow15shape_inference16InferenceContext12ShapeManagerD2Ev@Base 2.0.0
 _ZN10tensorflow15shape_inference16InferenceContext12UnknownShapeEv@Base 2.0.0
 _ZN10tensorflow15shape_inference16InferenceContext12kUnknownRankE@Base 2.0.0
 _ZN10tensorflow15shape_inference16InferenceContext13AttachContextERKNS_6StatusE@Base 2.0.0
 _ZN10tensorflow15shape_inference16InferenceContext13ExpandOutputsEi@Base 2.0.0
 _ZN10tensorflow15shape_inference16InferenceContext13PostInputInitESt6vectorISt10unique_ptrIS2_INS0_12ShapeAndTypeESaIS4_EESt14default_deleteIS6_EESaIS9_EE@Base 2.0.0
 _ZN10tensorflow15shape_inference16InferenceContext14WithRankAtMostENS0_11ShapeHandleExPS2_@Base 2.0.0
 _ZN10tensorflow15shape_inference16InferenceContext15WithRankAtLeastENS0_11ShapeHandleExPS2_@Base 2.0.0
 _ZN10tensorflow15shape_inference16InferenceContext18ShapeHandleToProtoENS0_11ShapeHandleEPNS_16TensorShapeProtoE@Base 2.0.0
 _ZN10tensorflow15shape_inference16InferenceContext18UnknownShapeOfRankEx@Base 2.0.0
 _ZN10tensorflow15shape_inference16InferenceContext19GetScalarFromTensorEPKNS_6TensorEPx@Base 2.0.0
 _ZN10tensorflow15shape_inference16InferenceContext19MakeShapeFromTensorEPKNS_6TensorENS0_11ShapeHandleEPS5_@Base 2.0.0
 _ZN10tensorflow15shape_inference16InferenceContext21MakeDimForScalarInputEiPNS0_15DimensionHandleE@Base 2.0.0
 _ZN10tensorflow15shape_inference16InferenceContext23MakeShapeFromShapeProtoERKNS_16TensorShapeProtoEPNS0_11ShapeHandleE@Base 2.0.0
 _ZN10tensorflow15shape_inference16InferenceContext24MakeShapeFromShapeTensorEiPNS0_11ShapeHandleE@Base 2.0.0
 _ZN10tensorflow15shape_inference16InferenceContext24MakeShapeFromTensorShapeERKNS_11TensorShapeEPNS0_11ShapeHandleE@Base 2.0.0
 _ZN10tensorflow15shape_inference16InferenceContext25MergeHandleShapesAndTypesERKSt6vectorINS0_12ShapeAndTypeESaIS3_EEPS5_@Base 2.0.0
 _ZN10tensorflow15shape_inference16InferenceContext27InternalMakeShapeFromTensorEbPKNS_6TensorENS0_11ShapeHandleEPS5_@Base 2.0.0
 _ZN10tensorflow15shape_inference16InferenceContext30MergeInputHandleShapesAndTypesEiRKSt6vectorINS0_12ShapeAndTypeESaIS3_EE@Base 2.0.0
 _ZN10tensorflow15shape_inference16InferenceContext30RelaxHandleShapesAndMergeTypesERKSt6vectorINS0_12ShapeAndTypeESaIS3_EEPS5_@Base 2.0.0
 _ZN10tensorflow15shape_inference16InferenceContext31MakeShapeFromPartialTensorShapeERKNS_18PartialTensorShapeEPNS0_11ShapeHandleE@Base 2.0.0
 _ZN10tensorflow15shape_inference16InferenceContext31MergeOutputHandleShapesAndTypesEiRKSt6vectorINS0_12ShapeAndTypeESaIS3_EE@Base 2.0.0
 _ZN10tensorflow15shape_inference16InferenceContext35RelaxInputHandleShapesAndMergeTypesEiRKSt6vectorINS0_12ShapeAndTypeESaIS3_EE@Base 2.0.0
 _ZN10tensorflow15shape_inference16InferenceContext36RelaxOutputHandleShapesAndMergeTypesEiRKSt6vectorINS0_12ShapeAndTypeESaIS3_EE@Base 2.0.0
 _ZN10tensorflow15shape_inference16InferenceContext3AddENS0_15DimensionHandleENS0_19DimensionOrConstantEPS2_@Base 2.0.0
 _ZN10tensorflow15shape_inference16InferenceContext3DimENS0_11ShapeHandleEx@Base 2.0.0
 _ZN10tensorflow15shape_inference16InferenceContext3MaxENS0_15DimensionHandleENS0_19DimensionOrConstantEPS2_@Base 2.0.0
 _ZN10tensorflow15shape_inference16InferenceContext3MinENS0_15DimensionHandleENS0_19DimensionOrConstantEPS2_@Base 2.0.0
 _ZN10tensorflow15shape_inference16InferenceContext3RunERKSt8functionIFNS_6StatusEPS1_EE@Base 2.0.0
 _ZN10tensorflow15shape_inference16InferenceContext41MakeDimForScalarInputWithNegativeIndexingEiiPNS0_15DimensionHandleE@Base 2.0.0
 _ZN10tensorflow15shape_inference16InferenceContext49MakeShapeFromShapeTensorTreatScalarAsUnknownShapeEiPNS0_11ShapeHandleE@Base 2.0.0
 _ZN10tensorflow15shape_inference16InferenceContext5MergeENS0_11ShapeHandleES2_PS2_@Base 2.0.0
 _ZN10tensorflow15shape_inference16InferenceContext5MergeENS0_15DimensionHandleES2_PS2_@Base 2.0.0
 _ZN10tensorflow15shape_inference16InferenceContext5RelaxENS0_11ShapeHandleES2_PS2_@Base 2.0.0
 _ZN10tensorflow15shape_inference16InferenceContext5RelaxENS0_15DimensionHandleES2_PS2_@Base 2.0.0
 _ZN10tensorflow15shape_inference16InferenceContext6DivideENS0_15DimensionHandleENS0_19DimensionOrConstantEbPS2_@Base 2.0.0
 _ZN10tensorflow15shape_inference16InferenceContext6MatrixENS0_19DimensionOrConstantES2_@Base 2.0.0
 _ZN10tensorflow15shape_inference16InferenceContext6ScalarEv@Base 2.0.0
 _ZN10tensorflow15shape_inference16InferenceContext6VectorENS0_19DimensionOrConstantE@Base 2.0.0
 _ZN10tensorflow15shape_inference16InferenceContext8MultiplyENS0_15DimensionHandleENS0_19DimensionOrConstantEPS2_@Base 2.0.0
 _ZN10tensorflow15shape_inference16InferenceContext8SubshapeENS0_11ShapeHandleExPS2_@Base 2.0.0
 _ZN10tensorflow15shape_inference16InferenceContext8SubshapeENS0_11ShapeHandleExxPS2_@Base 2.0.0
 _ZN10tensorflow15shape_inference16InferenceContext8SubshapeENS0_11ShapeHandleExxxPS2_@Base 2.0.0
 _ZN10tensorflow15shape_inference16InferenceContext8SubtractENS0_15DimensionHandleENS0_19DimensionOrConstantEPS2_@Base 2.0.0
 _ZN10tensorflow15shape_inference16InferenceContext8WithRankENS0_11ShapeHandleExPS2_@Base 2.0.0
 _ZN10tensorflow15shape_inference16InferenceContext9MakeShapeERKSt6vectorINS0_15DimensionHandleESaIS3_EE@Base 2.0.0
 _ZN10tensorflow15shape_inference16InferenceContext9MakeShapeESt16initializer_listINS0_19DimensionOrConstantEE@Base 2.0.0
 _ZN10tensorflow15shape_inference16InferenceContext9WithValueENS0_15DimensionHandleExPS2_@Base 2.0.0
 _ZN10tensorflow15shape_inference16InferenceContextC1EiPKNS_7NodeDefERKNS_5OpDefERKSt6vectorINS0_11ShapeHandleESaIS9_EERKS8_IPKNS_6TensorESaISG_EESD_S8_ISt10unique_ptrIS8_INS0_12ShapeAndTypeESaISM_EESt14default_deleteISO_EESaISR_EE@Base 2.0.0
 _ZN10tensorflow15shape_inference16InferenceContextC1EiPKNS_7NodeDefERKNS_5OpDefERKSt6vectorINS_16TensorShapeProtoESaIS9_EERKS8_IPKNS_6TensorESaISG_EESD_RKS8_ISt10unique_ptrIS8_ISt4pairIS9_NS_8DataTypeEESaISO_EESt14default_deleteISQ_EESaIST_EE@Base 2.0.0
 _ZN10tensorflow15shape_inference16InferenceContextC1EiPKNS_7NodeDefERKNS_5OpDefERKSt6vectorINS_18PartialTensorShapeESaIS9_EERKS8_IPKNS_6TensorESaISG_EESD_RKS8_ISt10unique_ptrIS8_ISt4pairIS9_NS_8DataTypeEESaISO_EESt14default_deleteISQ_EESaIST_EE@Base 2.0.0
 _ZN10tensorflow15shape_inference16InferenceContextC2EiPKNS_7NodeDefERKNS_5OpDefERKSt6vectorINS0_11ShapeHandleESaIS9_EERKS8_IPKNS_6TensorESaISG_EESD_S8_ISt10unique_ptrIS8_INS0_12ShapeAndTypeESaISM_EESt14default_deleteISO_EESaISR_EE@Base 2.0.0
 _ZN10tensorflow15shape_inference16InferenceContextC2EiPKNS_7NodeDefERKNS_5OpDefERKSt6vectorINS_16TensorShapeProtoESaIS9_EERKS8_IPKNS_6TensorESaISG_EESD_RKS8_ISt10unique_ptrIS8_ISt4pairIS9_NS_8DataTypeEESaISO_EESt14default_deleteISQ_EESaIST_EE@Base 2.0.0
 _ZN10tensorflow15shape_inference16InferenceContextC2EiPKNS_7NodeDefERKNS_5OpDefERKSt6vectorINS_18PartialTensorShapeESaIS9_EERKS8_IPKNS_6TensorESaISG_EESD_RKS8_ISt10unique_ptrIS8_ISt4pairIS9_NS_8DataTypeEESaISO_EESt14default_deleteISQ_EESaIST_EE@Base 2.0.0
 _ZN10tensorflow15shape_inference16InferenceContextD1Ev@Base 2.0.0
 _ZN10tensorflow15shape_inference16InferenceContextD2Ev@Base 2.0.0
 _ZN10tensorflow15shape_inference17ConcatShapeHelperEPNS0_16InferenceContextEiii@Base 2.0.0
 _ZN10tensorflow15shape_inference18BatchMatMulV2ShapeEPNS0_16InferenceContextE@Base 2.0.0
 _ZN10tensorflow15shape_inference19DimensionsFromShapeENS0_11ShapeHandleENS_12TensorFormatEPNS0_15DimensionHandleEN4absl4SpanIS3_EES4_PNS0_16InferenceContextE@Base 2.0.0
 _ZN10tensorflow15shape_inference19FusedBatchNormShapeEPNS0_16InferenceContextE@Base 2.0.0
 _ZN10tensorflow15shape_inference19MakeShapeFromFormatENS_12TensorFormatENS0_19DimensionOrConstantERKSt6vectorIS2_SaIS2_EES2_PNS0_11ShapeHandleEPNS0_16InferenceContextE@Base 2.0.0
 _ZN10tensorflow15shape_inference19ShapeFromDimensionsENS0_15DimensionHandleEN4absl4SpanIKS1_EES1_NS_12TensorFormatEPNS0_16InferenceContextEPNS0_11ShapeHandleE@Base 2.0.0
 _ZN10tensorflow15shape_inference19SparseReduceShapeFnEPNS0_16InferenceContextE@Base 2.0.0
 _ZN10tensorflow15shape_inference20ReductionShapeHelperIiEENS_6StatusEPKNS_6TensorEiPSt3setIxSt4lessIxESaIxEE@Base 2.0.0
 _ZN10tensorflow15shape_inference20ReductionShapeHelperIxEENS_6StatusEPKNS_6TensorEiPSt3setIxSt4lessIxESaIxEE@Base 2.0.0
 _ZN10tensorflow15shape_inference20ScatterNdUpdateShapeEPNS0_16InferenceContextE@Base 2.0.0
 _ZN10tensorflow15shape_inference20ValidateSparseTensorEPNS0_16InferenceContextENS0_11ShapeHandleES3_S3_@Base 2.0.0
 _ZN10tensorflow15shape_inference21FusedBatchNormExShapeEPNS0_16InferenceContextE@Base 2.0.0
 _ZN10tensorflow15shape_inference21FusedBatchNormV3ShapeEPNS0_16InferenceContextE@Base 2.0.0
 _ZN10tensorflow15shape_inference22QuantizedConcatV2ShapeEPNS0_16InferenceContextEi@Base 2.0.0
 _ZN10tensorflow15shape_inference23FusedBatchNormGradShapeEPNS0_16InferenceContextE@Base 2.0.0
 _ZN10tensorflow15shape_inference26DepthwiseConv2DNativeShapeEPNS0_16InferenceContextE@Base 2.0.0
 _ZN10tensorflow15shape_inference29CheckFormatConstraintsOnShapeENS_12TensorFormatENS0_11ShapeHandleERKNSt7__cxx1112basic_stringIcSt11char_traitsIcESaIcEEEPNS0_16InferenceContextE@Base 2.0.0
 _ZN10tensorflow15shape_inference29GetWindowedOutputSizeFromDimsEPNS0_16InferenceContextENS0_15DimensionHandleENS0_19DimensionOrConstantExNS_7PaddingEPS3_@Base 2.0.0
 _ZN10tensorflow15shape_inference30Conv2DShapeWithExplicitPaddingEPNS0_16InferenceContextE@Base 2.0.0
 _ZN10tensorflow15shape_inference30ValidateVariableResourceHandleEPNS0_16InferenceContextEPSt6vectorINS0_12ShapeAndTypeESaIS4_EE@Base 2.0.0
 _ZN10tensorflow15shape_inference31GetWindowedOutputSizeFromDimsV2EPNS0_16InferenceContextENS0_15DimensionHandleENS0_19DimensionOrConstantExxNS_7PaddingExxPS3_@Base 2.0.0
 _ZN10tensorflow15shape_inference31UnsortedSegmentReductionShapeFnEPNS0_16InferenceContextE@Base 2.0.0
 _ZN10tensorflow15shape_inference36BroadcastBinaryOpOutputShapeFnHelperEPNS0_16InferenceContextENS0_11ShapeHandleES3_bPS3_@Base 2.0.0
 _ZN10tensorflow16AllocationRecord12InternalSwapEPS0_@Base 2.0.0
 _ZN10tensorflow16AllocationRecord14_InternalParseEPKcPN6google8protobuf8internal12ParseContextE@Base 2.0.0
 _ZN10tensorflow16AllocationRecord16default_instanceEv@Base 2.0.0
 _ZN10tensorflow16AllocationRecord21InitAsDefaultInstanceEv@Base 2.0.0
 _ZN10tensorflow16AllocationRecord5ClearEv@Base 2.0.0
 _ZN10tensorflow16AllocationRecord8CopyFromERKN6google8protobuf7MessageE@Base 2.0.0
 _ZN10tensorflow16AllocationRecord8CopyFromERKS0_@Base 2.0.0
 _ZN10tensorflow16AllocationRecord9ArenaDtorEPv@Base 2.0.0
 _ZN10tensorflow16AllocationRecord9MergeFromERKN6google8protobuf7MessageE@Base 2.0.0
 _ZN10tensorflow16AllocationRecord9MergeFromERKS0_@Base 2.0.0
 _ZN10tensorflow16AllocationRecordC1EPN6google8protobuf5ArenaE@Base 2.0.0
 _ZN10tensorflow16AllocationRecordC1ERKS0_@Base 2.0.0
 _ZN10tensorflow16AllocationRecordC1Ev@Base 2.0.0
 _ZN10tensorflow16AllocationRecordC2EPN6google8protobuf5ArenaE@Base 2.0.0
 _ZN10tensorflow16AllocationRecordC2ERKS0_@Base 2.0.0
 _ZN10tensorflow16AllocationRecordC2Ev@Base 2.0.0
 _ZN10tensorflow16AllocationRecordD0Ev@Base 2.0.0
 _ZN10tensorflow16AllocationRecordD1Ev@Base 2.0.0
 _ZN10tensorflow16AllocationRecordD2Ev@Base 2.0.0
 _ZN10tensorflow16AllocatorFactory11NumaEnabledEv@Base 2.0.0
 _ZN10tensorflow16AllocatorWrapper11AllocateRawEmm@Base 2.0.0
 _ZN10tensorflow16AllocatorWrapper11AllocateRawEmmRKNS_20AllocationAttributesE@Base 2.0.0
 _ZN10tensorflow16AllocatorWrapper13DeallocateRawEPv@Base 2.0.0
 _ZN10tensorflow16AllocatorWrapper4NameB5cxx11Ev@Base 2.0.0
 _ZN10tensorflow16AllocatorWrapperD0Ev@Base 2.0.0
 _ZN10tensorflow16AllocatorWrapperD1Ev@Base 2.0.0
 _ZN10tensorflow16AllocatorWrapperD2Ev@Base 2.0.0
 _ZN10tensorflow16AttrValueHasTypeERKNS_9AttrValueEN4absl11string_viewE@Base 2.0.0
 _ZN10tensorflow16BenchmarkEntries12InternalSwapEPS0_@Base 2.0.0
 _ZN10tensorflow16BenchmarkEntries14_InternalParseEPKcPN6google8protobuf8internal12ParseContextE@Base 2.0.0
 _ZN10tensorflow16BenchmarkEntries16default_instanceEv@Base 2.0.0
 _ZN10tensorflow16BenchmarkEntries21InitAsDefaultInstanceEv@Base 2.0.0
 _ZN10tensorflow16BenchmarkEntries5ClearEv@Base 2.0.0
 _ZN10tensorflow16BenchmarkEntries8CopyFromERKN6google8protobuf7MessageE@Base 2.0.0
 _ZN10tensorflow16BenchmarkEntries8CopyFromERKS0_@Base 2.0.0
 _ZN10tensorflow16BenchmarkEntries9ArenaDtorEPv@Base 2.0.0
 _ZN10tensorflow16BenchmarkEntries9MergeFromERKN6google8protobuf7MessageE@Base 2.0.0
 _ZN10tensorflow16BenchmarkEntries9MergeFromERKS0_@Base 2.0.0
 _ZN10tensorflow16BenchmarkEntriesC1EPN6google8protobuf5ArenaE@Base 2.0.0
 _ZN10tensorflow16BenchmarkEntriesC1ERKS0_@Base 2.0.0
 _ZN10tensorflow16BenchmarkEntriesC1Ev@Base 2.0.0
 _ZN10tensorflow16BenchmarkEntriesC2EPN6google8protobuf5ArenaE@Base 2.0.0
 _ZN10tensorflow16BenchmarkEntriesC2ERKS0_@Base 2.0.0
 _ZN10tensorflow16BenchmarkEntriesC2Ev@Base 2.0.0
 _ZN10tensorflow16BenchmarkEntriesD0Ev@Base 2.0.0
 _ZN10tensorflow16BenchmarkEntriesD1Ev@Base 2.0.0
 _ZN10tensorflow16BenchmarkEntriesD2Ev@Base 2.0.0
 _ZN10tensorflow16BundleEntryProto11clear_shapeEv@Base 2.0.0
 _ZN10tensorflow16BundleEntryProto12InternalSwapEPS0_@Base 2.0.0
 _ZN10tensorflow16BundleEntryProto12clear_slicesEv@Base 2.0.0
 _ZN10tensorflow16BundleEntryProto14_InternalParseEPKcPN6google8protobuf8internal12ParseContextE@Base 2.0.0
 _ZN10tensorflow16BundleEntryProto16default_instanceEv@Base 2.0.0
 _ZN10tensorflow16BundleEntryProto21InitAsDefaultInstanceEv@Base 2.0.0
 _ZN10tensorflow16BundleEntryProto32unsafe_arena_set_allocated_shapeEPNS_16TensorShapeProtoE@Base 2.0.0
 _ZN10tensorflow16BundleEntryProto5ClearEv@Base 2.0.0
 _ZN10tensorflow16BundleEntryProto8CopyFromERKN6google8protobuf7MessageE@Base 2.0.0
 _ZN10tensorflow16BundleEntryProto8CopyFromERKS0_@Base 2.0.0
 _ZN10tensorflow16BundleEntryProto9ArenaDtorEPv@Base 2.0.0
 _ZN10tensorflow16BundleEntryProto9MergeFromERKN6google8protobuf7MessageE@Base 2.0.0
 _ZN10tensorflow16BundleEntryProto9MergeFromERKS0_@Base 2.0.0
 _ZN10tensorflow16BundleEntryProto9_Internal5shapeEPKS0_@Base 2.0.0
 _ZN10tensorflow16BundleEntryProtoC1EPN6google8protobuf5ArenaE@Base 2.0.0
 _ZN10tensorflow16BundleEntryProtoC1ERKS0_@Base 2.0.0
 _ZN10tensorflow16BundleEntryProtoC1Ev@Base 2.0.0
 _ZN10tensorflow16BundleEntryProtoC2EPN6google8protobuf5ArenaE@Base 2.0.0
 _ZN10tensorflow16BundleEntryProtoC2ERKS0_@Base 2.0.0
 _ZN10tensorflow16BundleEntryProtoC2Ev@Base 2.0.0
 _ZN10tensorflow16BundleEntryProtoD0Ev@Base 2.0.0
 _ZN10tensorflow16BundleEntryProtoD1Ev@Base 2.0.0
 _ZN10tensorflow16BundleEntryProtoD2Ev@Base 2.0.0
 _ZN10tensorflow16ConvolutionProto11clear_inputEv@Base 2.0.0
 _ZN10tensorflow16ConvolutionProto12InternalSwapEPS0_@Base 2.0.0
 _ZN10tensorflow16ConvolutionProto12clear_filterEv@Base 2.0.0
 _ZN10tensorflow16ConvolutionProto12clear_outputEv@Base 2.0.0
 _ZN10tensorflow16ConvolutionProto14_InternalParseEPKcPN6google8protobuf8internal12ParseContextE@Base 2.0.0
 _ZN10tensorflow16ConvolutionProto15clear_conv_descEv@Base 2.0.0
 _ZN10tensorflow16ConvolutionProto16default_instanceEv@Base 2.0.0
 _ZN10tensorflow16ConvolutionProto21InitAsDefaultInstanceEv@Base 2.0.0
 _ZN10tensorflow16ConvolutionProto5ClearEv@Base 2.0.0
 _ZN10tensorflow16ConvolutionProto8CopyFromERKN6google8protobuf7MessageE@Base 2.0.0
 _ZN10tensorflow16ConvolutionProto8CopyFromERKS0_@Base 2.0.0
 _ZN10tensorflow16ConvolutionProto9MergeFromERKN6google8protobuf7MessageE@Base 2.0.0
 _ZN10tensorflow16ConvolutionProto9MergeFromERKS0_@Base 2.0.0
 _ZN10tensorflow16ConvolutionProto9_Internal5inputEPKS0_@Base 2.0.0
 _ZN10tensorflow16ConvolutionProto9_Internal6filterEPKS0_@Base 2.0.0
 _ZN10tensorflow16ConvolutionProto9_Internal6outputEPKS0_@Base 2.0.0
 _ZN10tensorflow16ConvolutionProto9_Internal9conv_descEPKS0_@Base 2.0.0
 _ZN10tensorflow16ConvolutionProtoC1ERKS0_@Base 2.0.0
 _ZN10tensorflow16ConvolutionProtoC1Ev@Base 2.0.0
 _ZN10tensorflow16ConvolutionProtoC2ERKS0_@Base 2.0.0
 _ZN10tensorflow16ConvolutionProtoC2Ev@Base 2.0.0
 _ZN10tensorflow16ConvolutionProtoD0Ev@Base 2.0.0
 _ZN10tensorflow16ConvolutionProtoD1Ev@Base 2.0.0
 _ZN10tensorflow16ConvolutionProtoD2Ev@Base 2.0.0
 _ZN10tensorflow16CopyDeviceToHostEPKNS_6TensorEPNS_9AllocatorES4_N4absl11string_viewEPNS_6DeviceEPS0_PNS_13DeviceContextESt8functionIFvRKNS_6StatusEEE@Base 2.0.0
 _ZN10tensorflow16CostModelManager17AddToCostGraphDefEPKNS_5GraphEPNS_12CostGraphDefE@Base 2.0.0
 _ZN10tensorflow16CostModelManager21FindOrCreateCostModelEPKNS_5GraphE@Base 2.0.0
 _ZN10tensorflow16CostModelManager23RemoveCostModelForGraphEPKNS_5GraphE@Base 2.0.0
 _ZN10tensorflow16CostModelManagerD1Ev@Base 2.0.0
 _ZN10tensorflow16CostModelManagerD2Ev@Base 2.0.0
 _ZN10tensorflow16CreateSubProcessERKSt6vectorINSt7__cxx1112basic_stringIcSt11char_traitsIcESaIcEEESaIS6_EE@Base 2.0.0
 _ZN10tensorflow16CudnnUseAutotuneEv@Base 2.0.0
 _ZN10tensorflow16DataType_IsValidEi@Base 2.0.0
 _ZN10tensorflow16DebugStringWholeB5cxx11ERKNS_8GraphDefE@Base 2.0.0
 _ZN10tensorflow16DebugTensorWatch12InternalSwapEPS0_@Base 2.0.0
 _ZN10tensorflow16DebugTensorWatch14_InternalParseEPKcPN6google8protobuf8internal12ParseContextE@Base 2.0.0
 _ZN10tensorflow16DebugTensorWatch16default_instanceEv@Base 2.0.0
 _ZN10tensorflow16DebugTensorWatch21InitAsDefaultInstanceEv@Base 2.0.0
 _ZN10tensorflow16DebugTensorWatch5ClearEv@Base 2.0.0
 _ZN10tensorflow16DebugTensorWatch8CopyFromERKN6google8protobuf7MessageE@Base 2.0.0
 _ZN10tensorflow16DebugTensorWatch8CopyFromERKS0_@Base 2.0.0
 _ZN10tensorflow16DebugTensorWatch9ArenaDtorEPv@Base 2.0.0
 _ZN10tensorflow16DebugTensorWatch9MergeFromERKN6google8protobuf7MessageE@Base 2.0.0
 _ZN10tensorflow16DebugTensorWatch9MergeFromERKS0_@Base 2.0.0
 _ZN10tensorflow16DebugTensorWatchC1EPN6google8protobuf5ArenaE@Base 2.0.0
 _ZN10tensorflow16DebugTensorWatchC1ERKS0_@Base 2.0.0
 _ZN10tensorflow16DebugTensorWatchC1Ev@Base 2.0.0
 _ZN10tensorflow16DebugTensorWatchC2EPN6google8protobuf5ArenaE@Base 2.0.0
 _ZN10tensorflow16DebugTensorWatchC2ERKS0_@Base 2.0.0
 _ZN10tensorflow16DebugTensorWatchC2Ev@Base 2.0.0
 _ZN10tensorflow16DebugTensorWatchD0Ev@Base 2.0.0
 _ZN10tensorflow16DebugTensorWatchD1Ev@Base 2.0.0
 _ZN10tensorflow16DebugTensorWatchD2Ev@Base 2.0.0
 _ZN10tensorflow16DeviceAttributes12InternalSwapEPS0_@Base 2.0.0
 _ZN10tensorflow16DeviceAttributes14_InternalParseEPKcPN6google8protobuf8internal12ParseContextE@Base 2.0.0
 _ZN10tensorflow16DeviceAttributes16default_instanceEv@Base 2.0.0
 _ZN10tensorflow16DeviceAttributes21InitAsDefaultInstanceEv@Base 2.0.0
 _ZN10tensorflow16DeviceAttributes35unsafe_arena_set_allocated_localityEPNS_14DeviceLocalityE@Base 2.0.0
 _ZN10tensorflow16DeviceAttributes5ClearEv@Base 2.0.0
 _ZN10tensorflow16DeviceAttributes8CopyFromERKN6google8protobuf7MessageE@Base 2.0.0
 _ZN10tensorflow16DeviceAttributes8CopyFromERKS0_@Base 2.0.0
 _ZN10tensorflow16DeviceAttributes9ArenaDtorEPv@Base 2.0.0
 _ZN10tensorflow16DeviceAttributes9MergeFromERKN6google8protobuf7MessageE@Base 2.0.0
 _ZN10tensorflow16DeviceAttributes9MergeFromERKS0_@Base 2.0.0
 _ZN10tensorflow16DeviceAttributes9_Internal8localityEPKS0_@Base 2.0.0
 _ZN10tensorflow16DeviceAttributesC1EPN6google8protobuf5ArenaE@Base 2.0.0
 _ZN10tensorflow16DeviceAttributesC1ERKS0_@Base 2.0.0
 _ZN10tensorflow16DeviceAttributesC1Ev@Base 2.0.0
 _ZN10tensorflow16DeviceAttributesC2EPN6google8protobuf5ArenaE@Base 2.0.0
 _ZN10tensorflow16DeviceAttributesC2ERKS0_@Base 2.0.0
 _ZN10tensorflow16DeviceAttributesC2Ev@Base 2.0.0
 _ZN10tensorflow16DeviceAttributesD0Ev@Base 2.0.0
 _ZN10tensorflow16DeviceAttributesD1Ev@Base 2.0.0
 _ZN10tensorflow16DeviceAttributesD2Ev@Base 2.0.0
 _ZN10tensorflow16DeviceProperties12InternalSwapEPS0_@Base 2.0.0
 _ZN10tensorflow16DeviceProperties14_InternalParseEPKcPN6google8protobuf8internal12ParseContextE@Base 2.0.0
 _ZN10tensorflow16DeviceProperties16default_instanceEv@Base 2.0.0
 _ZN10tensorflow16DeviceProperties21InitAsDefaultInstanceEv@Base 2.0.0
 _ZN10tensorflow16DeviceProperties5ClearEv@Base 2.0.0
 _ZN10tensorflow16DeviceProperties8CopyFromERKN6google8protobuf7MessageE@Base 2.0.0
 _ZN10tensorflow16DeviceProperties8CopyFromERKS0_@Base 2.0.0
 _ZN10tensorflow16DeviceProperties9ArenaDtorEPv@Base 2.0.0
 _ZN10tensorflow16DeviceProperties9MergeFromERKN6google8protobuf7MessageE@Base 2.0.0
 _ZN10tensorflow16DeviceProperties9MergeFromERKS0_@Base 2.0.0
 _ZN10tensorflow16DevicePropertiesC1EPN6google8protobuf5ArenaE@Base 2.0.0
 _ZN10tensorflow16DevicePropertiesC1ERKS0_@Base 2.0.0
 _ZN10tensorflow16DevicePropertiesC1Ev@Base 2.0.0
 _ZN10tensorflow16DevicePropertiesC2EPN6google8protobuf5ArenaE@Base 2.0.0
 _ZN10tensorflow16DevicePropertiesC2ERKS0_@Base 2.0.0
 _ZN10tensorflow16DevicePropertiesC2Ev@Base 2.0.0
 _ZN10tensorflow16DevicePropertiesD0Ev@Base 2.0.0
 _ZN10tensorflow16DevicePropertiesD1Ev@Base 2.0.0
 _ZN10tensorflow16DevicePropertiesD2Ev@Base 2.0.0
 _ZN10tensorflow16DeviceTypeStringB5cxx11ERKNS_10DeviceTypeE@Base 2.0.0
 _ZN10tensorflow16ExpiringLRUCacheINS_13GcsFileSystem11GcsFileStatEE15LookupOrComputeERKNSt7__cxx1112basic_stringIcSt11char_traitsIcESaIcEEEPS2_RKSt8functionIFNS_6StatusESB_SC_EE@Base 2.0.0
 _ZN10tensorflow16ExpiringLRUCacheISt6vectorINSt7__cxx1112basic_stringIcSt11char_traitsIcESaIcEEESaIS7_EEE12InsertLockedERKS7_RKS9_@Base 2.0.0
 _ZN10tensorflow16FeatureDenseCopyEmRKNSt7__cxx1112basic_stringIcSt11char_traitsIcESaIcEEES7_RKNS_8DataTypeERKNS_11TensorShapeERKNS_7FeatureEPNS_6TensorE@Base 2.0.0
 _ZN10tensorflow16FileOutputBuffer11FlushBufferEv@Base 2.0.0
 _ZN10tensorflow16FileOutputBuffer5CloseEv@Base 2.0.0
 _ZN10tensorflow16FileOutputBuffer6AppendEN4absl11string_viewE@Base 2.0.0
 _ZN10tensorflow16FileOutputBufferD1Ev@Base 2.0.0
 _ZN10tensorflow16FileOutputBufferD2Ev@Base 2.0.0
 _ZN10tensorflow16FormatFromStringERKNSt7__cxx1112basic_stringIcSt11char_traitsIcESaIcEEEPNS_12TensorFormatE@Base 2.0.0
 _ZN10tensorflow16GPUDeviceContext11ThenExecuteEPNS_6DeviceEPN15stream_executor6StreamESt8functionIFvvEE@Base 2.0.0
 _ZN10tensorflow16GPUDeviceContext21CopyDeviceTensorToCPUEPKNS_6TensorEN4absl11string_viewEPNS_6DeviceEPS1_St8functionIFvRKNS_6StatusEEE@Base 2.0.0
 _ZN10tensorflow16GPUDeviceContextD0Ev@Base 2.0.0
 _ZN10tensorflow16GPUDeviceContextD1Ev@Base 2.0.0
 _ZN10tensorflow16GPUDeviceContextD2Ev@Base 2.0.0
 _ZN10tensorflow16GetBroadcastSizeEiiiiiPiS0_@Base 2.0.0
 _ZN10tensorflow16GetFeatureValuesINSt7__cxx1112basic_stringIcSt11char_traitsIcESaIcEEEEEPNS_8internal18RepeatedFieldTraitIT_E4TypeEPNS_7FeatureE@Base 2.0.0
 _ZN10tensorflow16GetFeatureValuesINSt7__cxx1112basic_stringIcSt11char_traitsIcESaIcEEEEERKNS_8internal18RepeatedFieldTraitIT_E4TypeERKNS_7FeatureE@Base 2.0.0
 _ZN10tensorflow16GetFeatureValuesIfEEPNS_8internal18RepeatedFieldTraitIT_E4TypeEPNS_7FeatureE@Base 2.0.0
 _ZN10tensorflow16GetFeatureValuesIfEERKNS_8internal18RepeatedFieldTraitIT_E4TypeERKNS_7FeatureE@Base 2.0.0
 _ZN10tensorflow16GetFeatureValuesIlEEPNS_8internal18RepeatedFieldTraitIT_E4TypeEPNS_7FeatureE@Base 2.0.0
 _ZN10tensorflow16GetFeatureValuesIlEERKNS_8internal18RepeatedFieldTraitIT_E4TypeERKNS_7FeatureE@Base 2.0.0
 _ZN10tensorflow16GpuHostAllocator4FreeEPvm@Base 2.0.0
 _ZN10tensorflow16GpuHostAllocator5AllocEmm@Base 2.0.0
 _ZN10tensorflow16GpuHostAllocatorD0Ev@Base 2.0.0
 _ZN10tensorflow16GpuHostAllocatorD1Ev@Base 2.0.0
 _ZN10tensorflow16GpuHostAllocatorD2Ev@Base 2.0.0
 _ZN10tensorflow16HDFSWritableFile4SyncEv@Base 2.0.0
 _ZN10tensorflow16HDFSWritableFile4TellEPx@Base 2.0.0
 _ZN10tensorflow16HDFSWritableFile5CloseEv@Base 2.0.0
 _ZN10tensorflow16HDFSWritableFile5FlushEv@Base 2.0.0
 _ZN10tensorflow16HDFSWritableFile6AppendEN4absl11string_viewE@Base 2.0.0
 _ZN10tensorflow16HDFSWritableFileD0Ev@Base 2.0.0
 _ZN10tensorflow16HDFSWritableFileD1Ev@Base 2.0.0
 _ZN10tensorflow16HDFSWritableFileD2Ev@Base 2.0.0
 _ZN10tensorflow16HadoopFileSystem10DeleteFileERKNSt7__cxx1112basic_stringIcSt11char_traitsIcESaIcEEE@Base 2.0.0
 _ZN10tensorflow16HadoopFileSystem10FileExistsERKNSt7__cxx1112basic_stringIcSt11char_traitsIcESaIcEEE@Base 2.0.0
 _ZN10tensorflow16HadoopFileSystem10RenameFileERKNSt7__cxx1112basic_stringIcSt11char_traitsIcESaIcEEES8_@Base 2.0.0
 _ZN10tensorflow16HadoopFileSystem11GetChildrenERKNSt7__cxx1112basic_stringIcSt11char_traitsIcESaIcEEEPSt6vectorIS6_SaIS6_EE@Base 2.0.0
 _ZN10tensorflow16HadoopFileSystem11GetFileSizeERKNSt7__cxx1112basic_stringIcSt11char_traitsIcESaIcEEEPy@Base 2.0.0
 _ZN10tensorflow16HadoopFileSystem15NewWritableFileERKNSt7__cxx1112basic_stringIcSt11char_traitsIcESaIcEEEPSt10unique_ptrINS_12WritableFileESt14default_deleteISA_EE@Base 2.0.0
 _ZN10tensorflow16HadoopFileSystem16GetMatchingPathsERKNSt7__cxx1112basic_stringIcSt11char_traitsIcESaIcEEEPSt6vectorIS6_SaIS6_EE@Base 2.0.0
 _ZN10tensorflow16HadoopFileSystem17NewAppendableFileERKNSt7__cxx1112basic_stringIcSt11char_traitsIcESaIcEEEPSt10unique_ptrINS_12WritableFileESt14default_deleteISA_EE@Base 2.0.0
 _ZN10tensorflow16HadoopFileSystem19NewRandomAccessFileERKNSt7__cxx1112basic_stringIcSt11char_traitsIcESaIcEEEPSt10unique_ptrINS_16RandomAccessFileESt14default_deleteISA_EE@Base 2.0.0
 _ZN10tensorflow16HadoopFileSystem31NewReadOnlyMemoryRegionFromFileERKNSt7__cxx1112basic_stringIcSt11char_traitsIcESaIcEEEPSt10unique_ptrINS_20ReadOnlyMemoryRegionESt14default_deleteISA_EE@Base 2.0.0
 _ZN10tensorflow16HadoopFileSystem4StatERKNSt7__cxx1112basic_stringIcSt11char_traitsIcESaIcEEEPNS_14FileStatisticsE@Base 2.0.0
 _ZN10tensorflow16HadoopFileSystem7ConnectEN4absl11string_viewEPP13hdfs_internal@Base 2.0.0
 _ZN10tensorflow16HadoopFileSystem9CreateDirERKNSt7__cxx1112basic_stringIcSt11char_traitsIcESaIcEEE@Base 2.0.0
 _ZN10tensorflow16HadoopFileSystem9DeleteDirERKNSt7__cxx1112basic_stringIcSt11char_traitsIcESaIcEEE@Base 2.0.0
 _ZN10tensorflow16HadoopFileSystemC1Ev@Base 2.0.0
 _ZN10tensorflow16HadoopFileSystemC2Ev@Base 2.0.0
 _ZN10tensorflow16HadoopFileSystemD0Ev@Base 2.0.0
 _ZN10tensorflow16HadoopFileSystemD1Ev@Base 2.0.0
 _ZN10tensorflow16HadoopFileSystemD2Ev@Base 2.0.0
 _ZN10tensorflow16InputTypeForNodeERKNS_7NodeDefERKNS_5OpDefEiPNS_8DataTypeE@Base 2.0.0
 _ZN10tensorflow16InspectingPlacer25ComputeIOColocationGroupsERKNS_4NodeEPNS_18IOColocationGroupsE@Base 2.0.0
 _ZN10tensorflow16InspectingPlacerC1ERKNS_13FunctionStackEPKNS_25FunctionLibraryDefinitionEPKNS_9DeviceSetEPKNS_6DeviceEbb@Base 2.0.0
 _ZN10tensorflow16InspectingPlacerC2ERKNS_13FunctionStackEPKNS_25FunctionLibraryDefinitionEPKNS_9DeviceSetEPKNS_6DeviceEbb@Base 2.0.0
 _ZN10tensorflow16InterconnectLink12InternalSwapEPS0_@Base 2.0.0
 _ZN10tensorflow16InterconnectLink14_InternalParseEPKcPN6google8protobuf8internal12ParseContextE@Base 2.0.0
 _ZN10tensorflow16InterconnectLink16default_instanceEv@Base 2.0.0
 _ZN10tensorflow16InterconnectLink21InitAsDefaultInstanceEv@Base 2.0.0
 _ZN10tensorflow16InterconnectLink5ClearEv@Base 2.0.0
 _ZN10tensorflow16InterconnectLink8CopyFromERKN6google8protobuf7MessageE@Base 2.0.0
 _ZN10tensorflow16InterconnectLink8CopyFromERKS0_@Base 2.0.0
 _ZN10tensorflow16InterconnectLink9ArenaDtorEPv@Base 2.0.0
 _ZN10tensorflow16InterconnectLink9MergeFromERKN6google8protobuf7MessageE@Base 2.0.0
 _ZN10tensorflow16InterconnectLink9MergeFromERKS0_@Base 2.0.0
 _ZN10tensorflow16InterconnectLinkC1EPN6google8protobuf5ArenaE@Base 2.0.0
 _ZN10tensorflow16InterconnectLinkC1ERKS0_@Base 2.0.0
 _ZN10tensorflow16InterconnectLinkC1Ev@Base 2.0.0
 _ZN10tensorflow16InterconnectLinkC2EPN6google8protobuf5ArenaE@Base 2.0.0
 _ZN10tensorflow16InterconnectLinkC2ERKS0_@Base 2.0.0
 _ZN10tensorflow16InterconnectLinkC2Ev@Base 2.0.0
 _ZN10tensorflow16InterconnectLinkD0Ev@Base 2.0.0
 _ZN10tensorflow16InterconnectLinkD1Ev@Base 2.0.0
 _ZN10tensorflow16InterconnectLinkD2Ev@Base 2.0.0
 _ZN10tensorflow16KernelAttrsMatchERKNS_9KernelDefENS_9AttrSliceEPb@Base 2.0.0
 _ZN10tensorflow16KernelDefBuilder10HostMemoryEPKc@Base 2.0.0
 _ZN10tensorflow16KernelDefBuilder14AttrConstraintINSt7__cxx1112basic_stringIcSt11char_traitsIcESaIcEEEEERS0_PKcN4absl4SpanIKT_EE@Base 2.0.0
 _ZN10tensorflow16KernelDefBuilder14AttrConstraintINSt7__cxx1112basic_stringIcSt11char_traitsIcESaIcEEEEERS0_PKcT_@Base 2.0.0
 _ZN10tensorflow16KernelDefBuilder14AttrConstraintIPKcEERS0_S3_N4absl4SpanIKT_EE@Base 2.0.0
 _ZN10tensorflow16KernelDefBuilder14AttrConstraintIPKcEERS0_S3_T_@Base 2.0.0
 _ZN10tensorflow16KernelDefBuilder14AttrConstraintIbEERS0_PKcT_@Base 2.0.0
 _ZN10tensorflow16KernelDefBuilder14AttrConstraintIxEERS0_PKcN4absl4SpanIKT_EE@Base 2.0.0
 _ZN10tensorflow16KernelDefBuilder14AttrConstraintIxEERS0_PKcT_@Base 2.0.0
 _ZN10tensorflow16KernelDefBuilder14TypeConstraintEPKcN4absl4SpanIKNS_8DataTypeEEE@Base 2.0.0
 _ZN10tensorflow16KernelDefBuilder14TypeConstraintEPKcNS_8DataTypeE@Base 2.0.0
 _ZN10tensorflow16KernelDefBuilder5BuildEv@Base 2.0.0
 _ZN10tensorflow16KernelDefBuilder5LabelEPKc@Base 2.0.0
 _ZN10tensorflow16KernelDefBuilder6DeviceEPKc@Base 2.0.0
 _ZN10tensorflow16KernelDefBuilder8PriorityEi@Base 2.0.0
 _ZN10tensorflow16KernelDefBuilderC1EPKc@Base 2.0.0
 _ZN10tensorflow16KernelDefBuilderC2EPKc@Base 2.0.0
 _ZN10tensorflow16KernelDefBuilderD1Ev@Base 2.0.0
 _ZN10tensorflow16KernelDefBuilderD2Ev@Base 2.0.0
 _ZN10tensorflow16NamedTensorProto12InternalSwapEPS0_@Base 2.0.0
 _ZN10tensorflow16NamedTensorProto12clear_tensorEv@Base 2.0.0
 _ZN10tensorflow16NamedTensorProto14_InternalParseEPKcPN6google8protobuf8internal12ParseContextE@Base 2.0.0
 _ZN10tensorflow16NamedTensorProto16default_instanceEv@Base 2.0.0
 _ZN10tensorflow16NamedTensorProto21InitAsDefaultInstanceEv@Base 2.0.0
 _ZN10tensorflow16NamedTensorProto33unsafe_arena_set_allocated_tensorEPNS_11TensorProtoE@Base 2.0.0
 _ZN10tensorflow16NamedTensorProto5ClearEv@Base 2.0.0
 _ZN10tensorflow16NamedTensorProto8CopyFromERKN6google8protobuf7MessageE@Base 2.0.0
 _ZN10tensorflow16NamedTensorProto8CopyFromERKS0_@Base 2.0.0
 _ZN10tensorflow16NamedTensorProto9ArenaDtorEPv@Base 2.0.0
 _ZN10tensorflow16NamedTensorProto9MergeFromERKN6google8protobuf7MessageE@Base 2.0.0
 _ZN10tensorflow16NamedTensorProto9MergeFromERKS0_@Base 2.0.0
 _ZN10tensorflow16NamedTensorProto9_Internal6tensorEPKS0_@Base 2.0.0
 _ZN10tensorflow16NamedTensorProtoC1EPN6google8protobuf5ArenaE@Base 2.0.0
 _ZN10tensorflow16NamedTensorProtoC1ERKS0_@Base 2.0.0
 _ZN10tensorflow16NamedTensorProtoC1Ev@Base 2.0.0
 _ZN10tensorflow16NamedTensorProtoC2EPN6google8protobuf5ArenaE@Base 2.0.0
 _ZN10tensorflow16NamedTensorProtoC2ERKS0_@Base 2.0.0
 _ZN10tensorflow16NamedTensorProtoC2Ev@Base 2.0.0
 _ZN10tensorflow16NamedTensorProtoD0Ev@Base 2.0.0
 _ZN10tensorflow16NamedTensorProtoD1Ev@Base 2.0.0
 _ZN10tensorflow16NamedTensorProtoD2Ev@Base 2.0.0
 _ZN10tensorflow16NewLocalExecutorERKNS_19LocalExecutorParamsESt10unique_ptrIKNS_5GraphESt14default_deleteIS5_EEPPNS_8ExecutorE@Base 2.0.0
 _ZN10tensorflow16OpListOpRegistryC1EPKNS_6OpListE@Base 2.0.0
 _ZN10tensorflow16OpListOpRegistryC2EPKNS_6OpListE@Base 2.0.0
 _ZN10tensorflow16OpListOpRegistryD0Ev@Base 2.0.0
 _ZN10tensorflow16OpListOpRegistryD1Ev@Base 2.0.0
 _ZN10tensorflow16OpListOpRegistryD2Ev@Base 2.0.0
 _ZN10tensorflow16OptimizerOptions12InternalSwapEPS0_@Base 2.0.0
 _ZN10tensorflow16OptimizerOptions14_InternalParseEPKcPN6google8protobuf8internal12ParseContextE@Base 2.0.0
 _ZN10tensorflow16OptimizerOptions15Level_ARRAYSIZEE@Base 2.0.0
 _ZN10tensorflow16OptimizerOptions16default_instanceEv@Base 2.0.0
 _ZN10tensorflow16OptimizerOptions18GlobalJitLevel_MAXE@Base 2.0.0
 _ZN10tensorflow16OptimizerOptions18GlobalJitLevel_MINE@Base 2.0.0
 _ZN10tensorflow16OptimizerOptions21InitAsDefaultInstanceEv@Base 2.0.0
 _ZN10tensorflow16OptimizerOptions24GlobalJitLevel_ARRAYSIZEE@Base 2.0.0
 _ZN10tensorflow16OptimizerOptions2L0E@Base 2.0.0
 _ZN10tensorflow16OptimizerOptions2L1E@Base 2.0.0
 _ZN10tensorflow16OptimizerOptions3OFFE@Base 2.0.0
 _ZN10tensorflow16OptimizerOptions4ON_1E@Base 2.0.0
 _ZN10tensorflow16OptimizerOptions4ON_2E@Base 2.0.0
 _ZN10tensorflow16OptimizerOptions5ClearEv@Base 2.0.0
 _ZN10tensorflow16OptimizerOptions7DEFAULTE@Base 2.0.0
 _ZN10tensorflow16OptimizerOptions8CopyFromERKN6google8protobuf7MessageE@Base 2.0.0
 _ZN10tensorflow16OptimizerOptions8CopyFromERKS0_@Base 2.0.0
 _ZN10tensorflow16OptimizerOptions9ArenaDtorEPv@Base 2.0.0
 _ZN10tensorflow16OptimizerOptions9Level_MAXE@Base 2.0.0
 _ZN10tensorflow16OptimizerOptions9Level_MINE@Base 2.0.0
 _ZN10tensorflow16OptimizerOptions9MergeFromERKN6google8protobuf7MessageE@Base 2.0.0
 _ZN10tensorflow16OptimizerOptions9MergeFromERKS0_@Base 2.0.0
 _ZN10tensorflow16OptimizerOptionsC1EPN6google8protobuf5ArenaE@Base 2.0.0
 _ZN10tensorflow16OptimizerOptionsC1ERKS0_@Base 2.0.0
 _ZN10tensorflow16OptimizerOptionsC1Ev@Base 2.0.0
 _ZN10tensorflow16OptimizerOptionsC2EPN6google8protobuf5ArenaE@Base 2.0.0
 _ZN10tensorflow16OptimizerOptionsC2ERKS0_@Base 2.0.0
 _ZN10tensorflow16OptimizerOptionsC2Ev@Base 2.0.0
 _ZN10tensorflow16OptimizerOptionsD0Ev@Base 2.0.0
 _ZN10tensorflow16OptimizerOptionsD1Ev@Base 2.0.0
 _ZN10tensorflow16OptimizerOptionsD2Ev@Base 2.0.0
 _ZN10tensorflow16OrderCollectivesEPNS_5GraphENS_20GraphCollectiveOrderE@Base 2.0.0
 _ZN10tensorflow16ParseRfc3339TimeERKNSt7__cxx1112basic_stringIcSt11char_traitsIcESaIcEEEPx@Base 2.0.0
 _ZN10tensorflow16PartitionOptionsD1Ev@Base 2.0.0
 _ZN10tensorflow16PartitionOptionsD2Ev@Base 2.0.0
 _ZN10tensorflow16PersistentTensor12AccessTensorEPNS_15OpKernelContextE@Base 2.0.0
 _ZN10tensorflow16PersistentTensor12AccessTensorEPNS_20OpKernelConstructionE@Base 2.0.0
 _ZN10tensorflow16ProtoDebugStringB5cxx11ERKNS_10ApiDef_ArgE@Base 2.0.0
 _ZN10tensorflow16ProtoDebugStringB5cxx11ERKNS_10ClusterDefE@Base 2.0.0
 _ZN10tensorflow16ProtoDebugStringB5cxx11ERKNS_10GPUOptionsE@Base 2.0.0
 _ZN10tensorflow16ProtoDebugStringB5cxx11ERKNS_10KernelListE@Base 2.0.0
 _ZN10tensorflow16ProtoDebugStringB5cxx11ERKNS_10LocalLinksE@Base 2.0.0
 _ZN10tensorflow16ProtoDebugStringB5cxx11ERKNS_10LogMessageE@Base 2.0.0
 _ZN10tensorflow16ProtoDebugStringB5cxx11ERKNS_10NodeOutputE@Base 2.0.0
 _ZN10tensorflow16ProtoDebugStringB5cxx11ERKNS_10RPCOptionsE@Base 2.0.0
 _ZN10tensorflow16ProtoDebugStringB5cxx11ERKNS_10RunOptionsE@Base 2.0.0
 _ZN10tensorflow16ProtoDebugStringB5cxx11ERKNS_10SavedSliceE@Base 2.0.0
 _ZN10tensorflow16ProtoDebugStringB5cxx11ERKNS_10SessionLogE@Base 2.0.0
 _ZN10tensorflow16ProtoDebugStringB5cxx11ERKNS_10VersionDefE@Base 2.0.0
 _ZN10tensorflow16ProtoDebugStringB5cxx11ERKNS_11ApiDef_AttrE@Base 2.0.0
 _ZN10tensorflow16ProtoDebugStringB5cxx11ERKNS_11ConfigProtoE@Base 2.0.0
 _ZN10tensorflow16ProtoDebugStringB5cxx11ERKNS_11FeatureListE@Base 2.0.0
 _ZN10tensorflow16ProtoDebugStringB5cxx11ERKNS_11FunctionDefE@Base 2.0.0
 _ZN10tensorflow16ProtoDebugStringB5cxx11ERKNS_11GradientDefE@Base 2.0.0
 _ZN10tensorflow16ProtoDebugStringB5cxx11ERKNS_11MemoryStatsE@Base 2.0.0
 _ZN10tensorflow16ProtoDebugStringB5cxx11ERKNS_11NamedDeviceE@Base 2.0.0
 _ZN10tensorflow16ProtoDebugStringB5cxx11ERKNS_11RunMetadataE@Base 2.0.0
 _ZN10tensorflow16ProtoDebugStringB5cxx11ERKNS_11TensorProtoE@Base 2.0.0
 _ZN10tensorflow16ProtoDebugStringB5cxx11ERKNS_11VariableDefE@Base 2.0.0
 _ZN10tensorflow16ProtoDebugStringB5cxx11ERKNS_12CostGraphDefE@Base 2.0.0
 _ZN10tensorflow16ProtoDebugStringB5cxx11ERKNS_12DebugOptionsE@Base 2.0.0
 _ZN10tensorflow16ProtoDebugStringB5cxx11ERKNS_12FeatureListsE@Base 2.0.0
 _ZN10tensorflow16ProtoDebugStringB5cxx11ERKNS_12GraphOptionsE@Base 2.0.0
 _ZN10tensorflow16ProtoDebugStringB5cxx11ERKNS_12NameAttrListE@Base 2.0.0
 _ZN10tensorflow16ProtoDebugStringB5cxx11ERKNS_12OpDef_ArgDefE@Base 2.0.0
 _ZN10tensorflow16ProtoDebugStringB5cxx11ERKNS_13MemoryLogStepE@Base 2.0.0
 _ZN10tensorflow16ProtoDebugStringB5cxx11ERKNS_13NodeExecStatsE@Base 2.0.0
 _ZN10tensorflow16ProtoDebugStringB5cxx11ERKNS_13OpDef_AttrDefE@Base 2.0.0
 _ZN10tensorflow16ProtoDebugStringB5cxx11ERKNS_13OpDeprecationE@Base 2.0.0
 _ZN10tensorflow16ProtoDebugStringB5cxx11ERKNS_13Summary_AudioE@Base 2.0.0
 _ZN10tensorflow16ProtoDebugStringB5cxx11ERKNS_13Summary_ImageE@Base 2.0.0
 _ZN10tensorflow16ProtoDebugStringB5cxx11ERKNS_13Summary_ValueE@Base 2.0.0
 _ZN10tensorflow16ProtoDebugStringB5cxx11ERKNS_14DeviceLocalityE@Base 2.0.0
 _ZN10tensorflow16ProtoDebugStringB5cxx11ERKNS_14GraphDebugInfoE@Base 2.0.0
 _ZN10tensorflow16ProtoDebugStringB5cxx11ERKNS_14HistogramProtoE@Base 2.0.0
 _ZN10tensorflow16ProtoDebugStringB5cxx11ERKNS_14QueueRunnerDefE@Base 2.0.0
 _ZN10tensorflow16ProtoDebugStringB5cxx11ERKNS_14ResourceHandleE@Base 2.0.0
 _ZN10tensorflow16ProtoDebugStringB5cxx11ERKNS_14RewriterConfigE@Base 2.0.0
 _ZN10tensorflow16ProtoDebugStringB5cxx11ERKNS_14SavedSliceMetaE@Base 2.0.0
 _ZN10tensorflow16ProtoDebugStringB5cxx11ERKNS_14VerifierConfigE@Base 2.0.0
 _ZN10tensorflow16ProtoDebugStringB5cxx11ERKNS_14WatchdogConfigE@Base 2.0.0
 _ZN10tensorflow16ProtoDebugStringB5cxx11ERKNS_15ApiDef_EndpointE@Base 2.0.0
 _ZN10tensorflow16ProtoDebugStringB5cxx11ERKNS_15CallableOptionsE@Base 2.0.0
 _ZN10tensorflow16ProtoDebugStringB5cxx11ERKNS_15DeviceStepStatsE@Base 2.0.0
 _ZN10tensorflow16ProtoDebugStringB5cxx11ERKNS_15ReaderBaseStateE@Base 2.0.0
 _ZN10tensorflow16ProtoDebugStringB5cxx11ERKNS_15SequenceExampleE@Base 2.0.0
 _ZN10tensorflow16ProtoDebugStringB5cxx11ERKNS_15SessionMetadataE@Base 2.0.0
 _ZN10tensorflow16ProtoDebugStringB5cxx11ERKNS_15SummaryMetadataE@Base 2.0.0
 _ZN10tensorflow16ProtoDebugStringB5cxx11ERKNS_16AllocationRecordE@Base 2.0.0
 _ZN10tensorflow16ProtoDebugStringB5cxx11ERKNS_16BundleEntryProtoE@Base 2.0.0
 _ZN10tensorflow16ProtoDebugStringB5cxx11ERKNS_16DebugTensorWatchE@Base 2.0.0
 _ZN10tensorflow16ProtoDebugStringB5cxx11ERKNS_16DeviceAttributesE@Base 2.0.0
 _ZN10tensorflow16ProtoDebugStringB5cxx11ERKNS_16DevicePropertiesE@Base 2.0.0
 _ZN10tensorflow16ProtoDebugStringB5cxx11ERKNS_16InterconnectLinkE@Base 2.0.0
 _ZN10tensorflow16ProtoDebugStringB5cxx11ERKNS_16OptimizerOptionsE@Base 2.0.0
 _ZN10tensorflow16ProtoDebugStringB5cxx11ERKNS_16SaveSliceInfoDefE@Base 2.0.0
 _ZN10tensorflow16ProtoDebugStringB5cxx11ERKNS_16TensorConnectionE@Base 2.0.0
 _ZN10tensorflow16ProtoDebugStringB5cxx11ERKNS_16TensorShapeProtoE@Base 2.0.0
 _ZN10tensorflow16ProtoDebugStringB5cxx11ERKNS_16TensorSliceProtoE@Base 2.0.0
 _ZN10tensorflow16ProtoDebugStringB5cxx11ERKNS_17BundleHeaderProtoE@Base 2.0.0
 _ZN10tensorflow16ProtoDebugStringB5cxx11ERKNS_17CostGraphDef_NodeE@Base 2.0.0
 _ZN10tensorflow16ProtoDebugStringB5cxx11ERKNS_17GraphTransferInfoE@Base 2.0.0
 _ZN10tensorflow16ProtoDebugStringB5cxx11ERKNS_17SavedTensorSlicesE@Base 2.0.0
 _ZN10tensorflow16ProtoDebugStringB5cxx11ERKNS_17TaggedRunMetadataE@Base 2.0.0
 _ZN10tensorflow16ProtoDebugStringB5cxx11ERKNS_17TensorDescriptionE@Base 2.0.0
 _ZN10tensorflow16ProtoDebugStringB5cxx11ERKNS_17VariantTensorDataE@Base 2.0.0
 _ZN10tensorflow16ProtoDebugStringB5cxx11ERKNS_18DebuggedSourceFileE@Base 2.0.0
 _ZN10tensorflow16ProtoDebugStringB5cxx11ERKNS_18FunctionDefLibraryE@Base 2.0.0
 _ZN10tensorflow16ProtoDebugStringB5cxx11ERKNS_18SummaryDescriptionE@Base 2.0.0
 _ZN10tensorflow16ProtoDebugStringB5cxx11ERKNS_19AllocatorMemoryUsedE@Base 2.0.0
 _ZN10tensorflow16ProtoDebugStringB5cxx11ERKNS_19AttrValue_ListValueE@Base 2.0.0
 _ZN10tensorflow16ProtoDebugStringB5cxx11ERKNS_19AutoParallelOptionsE@Base 2.0.0
 _ZN10tensorflow16ProtoDebugStringB5cxx11ERKNS_19DebuggedSourceFilesE@Base 2.0.0
 _ZN10tensorflow16ProtoDebugStringB5cxx11ERKNS_19ResourceHandleProtoE@Base 2.0.0
 _ZN10tensorflow16ProtoDebugStringB5cxx11ERKNS_20FunctionDef_ArgAttrsE@Base 2.0.0
 _ZN10tensorflow16ProtoDebugStringB5cxx11ERKNS_20SavedTensorSliceMetaE@Base 2.0.0
 _ZN10tensorflow16ProtoDebugStringB5cxx11ERKNS_20TensorShapeProto_DimE@Base 2.0.0
 _ZN10tensorflow16ProtoDebugStringB5cxx11ERKNS_21AllocationDescriptionE@Base 2.0.0
 _ZN10tensorflow16ProtoDebugStringB5cxx11ERKNS_21GraphTransferNodeInfoE@Base 2.0.0
 _ZN10tensorflow16ProtoDebugStringB5cxx11ERKNS_21MemoryLogTensorOutputE@Base 2.0.0
 _ZN10tensorflow16ProtoDebugStringB5cxx11ERKNS_21ThreadPoolOptionProtoE@Base 2.0.0
 _ZN10tensorflow16ProtoDebugStringB5cxx11ERKNS_22GraphTransferNodeInputE@Base 2.0.0
 _ZN10tensorflow16ProtoDebugStringB5cxx11ERKNS_22MemoryLogRawAllocationE@Base 2.0.0
 _ZN10tensorflow16ProtoDebugStringB5cxx11ERKNS_22ScopedAllocatorOptionsE@Base 2.0.0
 _ZN10tensorflow16ProtoDebugStringB5cxx11ERKNS_22VariantTensorDataProtoE@Base 2.0.0
 _ZN10tensorflow16ProtoDebugStringB5cxx11ERKNS_22WorkerHeartbeatRequestE@Base 2.0.0
 _ZN10tensorflow16ProtoDebugStringB5cxx11ERKNS_23GPUOptions_ExperimentalE@Base 2.0.0
 _ZN10tensorflow16ProtoDebugStringB5cxx11ERKNS_23RunOptions_ExperimentalE@Base 2.0.0
 _ZN10tensorflow16ProtoDebugStringB5cxx11ERKNS_23TensorSliceProto_ExtentE@Base 2.0.0
 _ZN10tensorflow16ProtoDebugStringB5cxx11ERKNS_23WorkerHeartbeatResponseE@Base 2.0.0
 _ZN10tensorflow16ProtoDebugStringB5cxx11ERKNS_24ConfigProto_ExperimentalE@Base 2.0.0
 _ZN10tensorflow16ProtoDebugStringB5cxx11ERKNS_24KernelDef_AttrConstraintE@Base 2.0.0
 _ZN10tensorflow16ProtoDebugStringB5cxx11ERKNS_24MemoryLogRawDeallocationE@Base 2.0.0
 _ZN10tensorflow16ProtoDebugStringB5cxx11ERKNS_25GraphDebugInfo_StackTraceE@Base 2.0.0
 _ZN10tensorflow16ProtoDebugStringB5cxx11ERKNS_25MemoryLogTensorAllocationE@Base 2.0.0
 _ZN10tensorflow16ProtoDebugStringB5cxx11ERKNS_26GraphDebugInfo_FileLineColE@Base 2.0.0
 _ZN10tensorflow16ProtoDebugStringB5cxx11ERKNS_26GraphTransferConstNodeInfoE@Base 2.0.0
 _ZN10tensorflow16ProtoDebugStringB5cxx11ERKNS_26GraphTransferNodeInputInfoE@Base 2.0.0
 _ZN10tensorflow16ProtoDebugStringB5cxx11ERKNS_26RunMetadata_FunctionGraphsE@Base 2.0.0
 _ZN10tensorflow16ProtoDebugStringB5cxx11ERKNS_26SummaryMetadata_PluginDataE@Base 2.0.0
 _ZN10tensorflow16ProtoDebugStringB5cxx11ERKNS_27CostGraphDef_Node_InputInfoE@Base 2.0.0
 _ZN10tensorflow16ProtoDebugStringB5cxx11ERKNS_27GraphTransferNodeOutputInfoE@Base 2.0.0
 _ZN10tensorflow16ProtoDebugStringB5cxx11ERKNS_27MemoryLogTensorDeallocationE@Base 2.0.0
 _ZN10tensorflow16ProtoDebugStringB5cxx11ERKNS_27RemoteFusedGraphExecuteInfoE@Base 2.0.0
 _ZN10tensorflow16ProtoDebugStringB5cxx11ERKNS_28CostGraphDef_Node_OutputInfoE@Base 2.0.0
 _ZN10tensorflow16ProtoDebugStringB5cxx11ERKNS_28MemmappedFileSystemDirectoryE@Base 2.0.0
 _ZN10tensorflow16ProtoDebugStringB5cxx11ERKNS_29NodeDef_ExperimentalDebugInfoE@Base 2.0.0
 _ZN10tensorflow16ProtoDebugStringB5cxx11ERKNS_31GraphTransferGraphInputNodeInfoE@Base 2.0.0
 _ZN10tensorflow16ProtoDebugStringB5cxx11ERKNS_32GraphTransferGraphOutputNodeInfoE@Base 2.0.0
 _ZN10tensorflow16ProtoDebugStringB5cxx11ERKNS_33ResourceHandleProto_DtypeAndShapeE@Base 2.0.0
 _ZN10tensorflow16ProtoDebugStringB5cxx11ERKNS_35MemmappedFileSystemDirectoryElementE@Base 2.0.0
 _ZN10tensorflow16ProtoDebugStringB5cxx11ERKNS_35RewriterConfig_CustomGraphOptimizerE@Base 2.0.0
 _ZN10tensorflow16ProtoDebugStringB5cxx11ERKNS_38GPUOptions_Experimental_VirtualDevicesE@Base 2.0.0
 _ZN10tensorflow16ProtoDebugStringB5cxx11ERKNS_48RemoteFusedGraphExecuteInfo_TensorShapeTypeProtoE@Base 2.0.0
 _ZN10tensorflow16ProtoDebugStringB5cxx11ERKNS_5EventE@Base 2.0.0
 _ZN10tensorflow16ProtoDebugStringB5cxx11ERKNS_5OpDefE@Base 2.0.0
 _ZN10tensorflow16ProtoDebugStringB5cxx11ERKNS_6ApiDefE@Base 2.0.0
 _ZN10tensorflow16ProtoDebugStringB5cxx11ERKNS_6JobDefE@Base 2.0.0
 _ZN10tensorflow16ProtoDebugStringB5cxx11ERKNS_6OpListE@Base 2.0.0
 _ZN10tensorflow16ProtoDebugStringB5cxx11ERKNS_7ApiDefsE@Base 2.0.0
 _ZN10tensorflow16ProtoDebugStringB5cxx11ERKNS_7ExampleE@Base 2.0.0
 _ZN10tensorflow16ProtoDebugStringB5cxx11ERKNS_7FeatureE@Base 2.0.0
 _ZN10tensorflow16ProtoDebugStringB5cxx11ERKNS_7NodeDefE@Base 2.0.0
 _ZN10tensorflow16ProtoDebugStringB5cxx11ERKNS_7SummaryE@Base 2.0.0
 _ZN10tensorflow16ProtoDebugStringB5cxx11ERKNS_8FeaturesE@Base 2.0.0
 _ZN10tensorflow16ProtoDebugStringB5cxx11ERKNS_8GraphDefE@Base 2.0.0
 _ZN10tensorflow16ProtoDebugStringB5cxx11ERKNS_8SaverDefE@Base 2.0.0
 _ZN10tensorflow16ProtoDebugStringB5cxx11ERKNS_9AttrValueE@Base 2.0.0
 _ZN10tensorflow16ProtoDebugStringB5cxx11ERKNS_9BytesListE@Base 2.0.0
 _ZN10tensorflow16ProtoDebugStringB5cxx11ERKNS_9FloatListE@Base 2.0.0
 _ZN10tensorflow16ProtoDebugStringB5cxx11ERKNS_9Int64ListE@Base 2.0.0
 _ZN10tensorflow16ProtoDebugStringB5cxx11ERKNS_9KernelDefE@Base 2.0.0
 _ZN10tensorflow16ProtoDebugStringB5cxx11ERKNS_9StepStatsE@Base 2.0.0
 _ZN10tensorflow16RandomAccessFileD0Ev@Base 2.0.0
 _ZN10tensorflow16RandomAccessFileD1Ev@Base 2.0.0
 _ZN10tensorflow16RandomAccessFileD2Ev@Base 2.0.0
 _ZN10tensorflow16ReadFileToStringEPNS_3EnvERKNSt7__cxx1112basic_stringIcSt11char_traitsIcESaIcEEEPS7_@Base 2.0.0
 _ZN10tensorflow16RecvBufRespExtra12InternalSwapEPS0_@Base 2.0.0
 _ZN10tensorflow16RecvBufRespExtra14_InternalParseEPKcPN6google8protobuf8internal12ParseContextE@Base 2.0.0
 _ZN10tensorflow16RecvBufRespExtra16default_instanceEv@Base 2.0.0
 _ZN10tensorflow16RecvBufRespExtra21InitAsDefaultInstanceEv@Base 2.0.0
 _ZN10tensorflow16RecvBufRespExtra5ClearEv@Base 2.0.0
 _ZN10tensorflow16RecvBufRespExtra8CopyFromERKN6google8protobuf7MessageE@Base 2.0.0
 _ZN10tensorflow16RecvBufRespExtra8CopyFromERKS0_@Base 2.0.0
 _ZN10tensorflow16RecvBufRespExtra9MergeFromERKN6google8protobuf7MessageE@Base 2.0.0
 _ZN10tensorflow16RecvBufRespExtra9MergeFromERKS0_@Base 2.0.0
 _ZN10tensorflow16RecvBufRespExtraC1ERKS0_@Base 2.0.0
 _ZN10tensorflow16RecvBufRespExtraC1Ev@Base 2.0.0
 _ZN10tensorflow16RecvBufRespExtraC2ERKS0_@Base 2.0.0
 _ZN10tensorflow16RecvBufRespExtraC2Ev@Base 2.0.0
 _ZN10tensorflow16RecvBufRespExtraD0Ev@Base 2.0.0
 _ZN10tensorflow16RecvBufRespExtraD1Ev@Base 2.0.0
 _ZN10tensorflow16RecvBufRespExtraD2Ev@Base 2.0.0
 _ZN10tensorflow16RewriteWhileNodeEPNS_4NodeEPNS_5GraphEb@Base 2.0.0
 _ZN10tensorflow16RunConfiguration12InternalSwapEPS0_@Base 2.0.0
 _ZN10tensorflow16RunConfiguration14_InternalParseEPKcPN6google8protobuf8internal12ParseContextE@Base 2.0.0
 _ZN10tensorflow16RunConfiguration16default_instanceEv@Base 2.0.0
 _ZN10tensorflow16RunConfiguration21InitAsDefaultInstanceEv@Base 2.0.0
 _ZN10tensorflow16RunConfiguration5ClearEv@Base 2.0.0
 _ZN10tensorflow16RunConfiguration8CopyFromERKN6google8protobuf7MessageE@Base 2.0.0
 _ZN10tensorflow16RunConfiguration8CopyFromERKS0_@Base 2.0.0
 _ZN10tensorflow16RunConfiguration9ArenaDtorEPv@Base 2.0.0
 _ZN10tensorflow16RunConfiguration9MergeFromERKN6google8protobuf7MessageE@Base 2.0.0
 _ZN10tensorflow16RunConfiguration9MergeFromERKS0_@Base 2.0.0
 _ZN10tensorflow16RunConfigurationC1EPN6google8protobuf5ArenaE@Base 2.0.0
 _ZN10tensorflow16RunConfigurationC1ERKS0_@Base 2.0.0
 _ZN10tensorflow16RunConfigurationC1Ev@Base 2.0.0
 _ZN10tensorflow16RunConfigurationC2EPN6google8protobuf5ArenaE@Base 2.0.0
 _ZN10tensorflow16RunConfigurationC2ERKS0_@Base 2.0.0
 _ZN10tensorflow16RunConfigurationC2Ev@Base 2.0.0
 _ZN10tensorflow16RunConfigurationD0Ev@Base 2.0.0
 _ZN10tensorflow16RunConfigurationD1Ev@Base 2.0.0
 _ZN10tensorflow16RunConfigurationD2Ev@Base 2.0.0
 _ZN10tensorflow16SaveSliceInfoDef12InternalSwapEPS0_@Base 2.0.0
 _ZN10tensorflow16SaveSliceInfoDef14_InternalParseEPKcPN6google8protobuf8internal12ParseContextE@Base 2.0.0
 _ZN10tensorflow16SaveSliceInfoDef16default_instanceEv@Base 2.0.0
 _ZN10tensorflow16SaveSliceInfoDef21InitAsDefaultInstanceEv@Base 2.0.0
 _ZN10tensorflow16SaveSliceInfoDef5ClearEv@Base 2.0.0
 _ZN10tensorflow16SaveSliceInfoDef8CopyFromERKN6google8protobuf7MessageE@Base 2.0.0
 _ZN10tensorflow16SaveSliceInfoDef8CopyFromERKS0_@Base 2.0.0
 _ZN10tensorflow16SaveSliceInfoDef9ArenaDtorEPv@Base 2.0.0
 _ZN10tensorflow16SaveSliceInfoDef9MergeFromERKN6google8protobuf7MessageE@Base 2.0.0
 _ZN10tensorflow16SaveSliceInfoDef9MergeFromERKS0_@Base 2.0.0
 _ZN10tensorflow16SaveSliceInfoDefC1EPN6google8protobuf5ArenaE@Base 2.0.0
 _ZN10tensorflow16SaveSliceInfoDefC1ERKS0_@Base 2.0.0
 _ZN10tensorflow16SaveSliceInfoDefC1Ev@Base 2.0.0
 _ZN10tensorflow16SaveSliceInfoDefC2EPN6google8protobuf5ArenaE@Base 2.0.0
 _ZN10tensorflow16SaveSliceInfoDefC2ERKS0_@Base 2.0.0
 _ZN10tensorflow16SaveSliceInfoDefC2Ev@Base 2.0.0
 _ZN10tensorflow16SaveSliceInfoDefD0Ev@Base 2.0.0
 _ZN10tensorflow16SaveSliceInfoDefD1Ev@Base 2.0.0
 _ZN10tensorflow16SaveSliceInfoDefD2Ev@Base 2.0.0
 _ZN10tensorflow16SavedObjectGraph12InternalSwapEPS0_@Base 2.0.0
 _ZN10tensorflow16SavedObjectGraph14_InternalParseEPKcPN6google8protobuf8internal12ParseContextE@Base 2.0.0
 _ZN10tensorflow16SavedObjectGraph16default_instanceEv@Base 2.0.0
 _ZN10tensorflow16SavedObjectGraph21InitAsDefaultInstanceEv@Base 2.0.0
 _ZN10tensorflow16SavedObjectGraph5ClearEv@Base 2.0.0
 _ZN10tensorflow16SavedObjectGraph8CopyFromERKN6google8protobuf7MessageE@Base 2.0.0
 _ZN10tensorflow16SavedObjectGraph8CopyFromERKS0_@Base 2.0.0
 _ZN10tensorflow16SavedObjectGraph9ArenaDtorEPv@Base 2.0.0
 _ZN10tensorflow16SavedObjectGraph9MergeFromERKN6google8protobuf7MessageE@Base 2.0.0
 _ZN10tensorflow16SavedObjectGraph9MergeFromERKS0_@Base 2.0.0
 _ZN10tensorflow16SavedObjectGraphC1EPN6google8protobuf5ArenaE@Base 2.0.0
 _ZN10tensorflow16SavedObjectGraphC1ERKS0_@Base 2.0.0
 _ZN10tensorflow16SavedObjectGraphC1Ev@Base 2.0.0
 _ZN10tensorflow16SavedObjectGraphC2EPN6google8protobuf5ArenaE@Base 2.0.0
 _ZN10tensorflow16SavedObjectGraphC2ERKS0_@Base 2.0.0
 _ZN10tensorflow16SavedObjectGraphC2Ev@Base 2.0.0
 _ZN10tensorflow16SavedObjectGraphD0Ev@Base 2.0.0
 _ZN10tensorflow16SavedObjectGraphD1Ev@Base 2.0.0
 _ZN10tensorflow16SavedObjectGraphD2Ev@Base 2.0.0
 _ZN10tensorflow16SliceDebugStringB5cxx11ERKNS_11TensorShapeEx@Base 2.0.0
 _ZN10tensorflow16SummarizeNodeDefB5cxx11ERKNS_7NodeDefE@Base 2.0.0
 _ZN10tensorflow16SymbolicGradientERKNS_12FunctionBodyE@Base 2.0.0
 _ZN10tensorflow16TensorConnection12InternalSwapEPS0_@Base 2.0.0
 _ZN10tensorflow16TensorConnection14_InternalParseEPKcPN6google8protobuf8internal12ParseContextE@Base 2.0.0
 _ZN10tensorflow16TensorConnection16default_instanceEv@Base 2.0.0
 _ZN10tensorflow16TensorConnection21InitAsDefaultInstanceEv@Base 2.0.0
 _ZN10tensorflow16TensorConnection5ClearEv@Base 2.0.0
 _ZN10tensorflow16TensorConnection8CopyFromERKN6google8protobuf7MessageE@Base 2.0.0
 _ZN10tensorflow16TensorConnection8CopyFromERKS0_@Base 2.0.0
 _ZN10tensorflow16TensorConnection9ArenaDtorEPv@Base 2.0.0
 _ZN10tensorflow16TensorConnection9MergeFromERKN6google8protobuf7MessageE@Base 2.0.0
 _ZN10tensorflow16TensorConnection9MergeFromERKS0_@Base 2.0.0
 _ZN10tensorflow16TensorConnectionC1EPN6google8protobuf5ArenaE@Base 2.0.0
 _ZN10tensorflow16TensorConnectionC1ERKS0_@Base 2.0.0
 _ZN10tensorflow16TensorConnectionC1Ev@Base 2.0.0
 _ZN10tensorflow16TensorConnectionC2EPN6google8protobuf5ArenaE@Base 2.0.0
 _ZN10tensorflow16TensorConnectionC2ERKS0_@Base 2.0.0
 _ZN10tensorflow16TensorConnectionC2Ev@Base 2.0.0
 _ZN10tensorflow16TensorConnectionD0Ev@Base 2.0.0
 _ZN10tensorflow16TensorConnectionD1Ev@Base 2.0.0
 _ZN10tensorflow16TensorConnectionD2Ev@Base 2.0.0
 _ZN10tensorflow16TensorShapeProto12InternalSwapEPS0_@Base 2.0.0
 _ZN10tensorflow16TensorShapeProto14_InternalParseEPKcPN6google8protobuf8internal12ParseContextE@Base 2.0.0
 _ZN10tensorflow16TensorShapeProto16default_instanceEv@Base 2.0.0
 _ZN10tensorflow16TensorShapeProto21InitAsDefaultInstanceEv@Base 2.0.0
 _ZN10tensorflow16TensorShapeProto5ClearEv@Base 2.0.0
 _ZN10tensorflow16TensorShapeProto8CopyFromERKN6google8protobuf7MessageE@Base 2.0.0
 _ZN10tensorflow16TensorShapeProto8CopyFromERKS0_@Base 2.0.0
 _ZN10tensorflow16TensorShapeProto9ArenaDtorEPv@Base 2.0.0
 _ZN10tensorflow16TensorShapeProto9MergeFromERKN6google8protobuf7MessageE@Base 2.0.0
 _ZN10tensorflow16TensorShapeProto9MergeFromERKS0_@Base 2.0.0
 _ZN10tensorflow16TensorShapeProtoC1EPN6google8protobuf5ArenaE@Base 2.0.0
 _ZN10tensorflow16TensorShapeProtoC1ERKS0_@Base 2.0.0
 _ZN10tensorflow16TensorShapeProtoC1Ev@Base 2.0.0
 _ZN10tensorflow16TensorShapeProtoC2EPN6google8protobuf5ArenaE@Base 2.0.0
 _ZN10tensorflow16TensorShapeProtoC2ERKS0_@Base 2.0.0
 _ZN10tensorflow16TensorShapeProtoC2Ev@Base 2.0.0
 _ZN10tensorflow16TensorShapeProtoD0Ev@Base 2.0.0
 _ZN10tensorflow16TensorShapeProtoD1Ev@Base 2.0.0
 _ZN10tensorflow16TensorShapeProtoD2Ev@Base 2.0.0
 _ZN10tensorflow16TensorShapeProtoaSEOS0_@Base 2.0.0
 _ZN10tensorflow16TensorShapeUtils10StartsWithERKNS_11TensorShapeES3_@Base 2.0.0
 _ZN10tensorflow16TensorShapeUtils11NumElementsEN4absl4SpanIKxEEPx@Base 2.0.0
 _ZN10tensorflow16TensorShapeUtils15ShapeListStringB5cxx11ERKN4absl4SpanIKNS_11TensorShapeEEE@Base 2.0.0
 _ZN10tensorflow16TensorShapeUtils8EndsWithERKNS_11TensorShapeES3_@Base 2.0.0
 _ZN10tensorflow16TensorShapeUtils9MakeShapeEN4absl4SpanIKiEEPNS_11TensorShapeE@Base 2.0.0
 _ZN10tensorflow16TensorShapeUtils9MakeShapeEN4absl4SpanIKiEEPNS_18PartialTensorShapeE@Base 2.0.0
 _ZN10tensorflow16TensorShapeUtils9MakeShapeEN4absl4SpanIKxEEPNS_11TensorShapeE@Base 2.0.0
 _ZN10tensorflow16TensorShapeUtils9MakeShapeEN4absl4SpanIKxEEPNS_18PartialTensorShapeE@Base 2.0.0
 _ZN10tensorflow16TensorShapeUtils9MakeShapeEPKixPNS_11TensorShapeE@Base 2.0.0
 _ZN10tensorflow16TensorShapeUtils9MakeShapeEPKixPNS_18PartialTensorShapeE@Base 2.0.0
 _ZN10tensorflow16TensorShapeUtils9MakeShapeEPKxxPNS_11TensorShapeE@Base 2.0.0
 _ZN10tensorflow16TensorShapeUtils9MakeShapeEPKxxPNS_18PartialTensorShapeE@Base 2.0.0
 _ZN10tensorflow16TensorSliceProto12InternalSwapEPS0_@Base 2.0.0
 _ZN10tensorflow16TensorSliceProto14_InternalParseEPKcPN6google8protobuf8internal12ParseContextE@Base 2.0.0
 _ZN10tensorflow16TensorSliceProto16default_instanceEv@Base 2.0.0
 _ZN10tensorflow16TensorSliceProto21InitAsDefaultInstanceEv@Base 2.0.0
 _ZN10tensorflow16TensorSliceProto5ClearEv@Base 2.0.0
 _ZN10tensorflow16TensorSliceProto8CopyFromERKN6google8protobuf7MessageE@Base 2.0.0
 _ZN10tensorflow16TensorSliceProto8CopyFromERKS0_@Base 2.0.0
 _ZN10tensorflow16TensorSliceProto9ArenaDtorEPv@Base 2.0.0
 _ZN10tensorflow16TensorSliceProto9MergeFromERKN6google8protobuf7MessageE@Base 2.0.0
 _ZN10tensorflow16TensorSliceProto9MergeFromERKS0_@Base 2.0.0
 _ZN10tensorflow16TensorSliceProtoC1EPN6google8protobuf5ArenaE@Base 2.0.0
 _ZN10tensorflow16TensorSliceProtoC1ERKS0_@Base 2.0.0
 _ZN10tensorflow16TensorSliceProtoC1Ev@Base 2.0.0
 _ZN10tensorflow16TensorSliceProtoC2EPN6google8protobuf5ArenaE@Base 2.0.0
 _ZN10tensorflow16TensorSliceProtoC2ERKS0_@Base 2.0.0
 _ZN10tensorflow16TensorSliceProtoC2Ev@Base 2.0.0
 _ZN10tensorflow16TensorSliceProtoD0Ev@Base 2.0.0
 _ZN10tensorflow16TensorSliceProtoD1Ev@Base 2.0.0
 _ZN10tensorflow16TensorSliceProtoD2Ev@Base 2.0.0
 _ZN10tensorflow16ThreadPoolDevice12GetAllocatorENS_19AllocatorAttributesE@Base 2.0.0
 _ZN10tensorflow16ThreadPoolDevice18GetScopedAllocatorENS_19AllocatorAttributesEx@Base 2.0.0
 _ZN10tensorflow16ThreadPoolDevice19MakeTensorFromProtoERKNS_11TensorProtoENS_19AllocatorAttributesEPNS_6TensorE@Base 2.0.0
 _ZN10tensorflow16ThreadPoolDevice22CopyTensorInSameDeviceEPKNS_6TensorEPS1_PKNS_13DeviceContextESt8functionIFvRKNS_6StatusEEE@Base 2.0.0
 _ZN10tensorflow16ThreadPoolDevice4SyncEv@Base 2.0.0
 _ZN10tensorflow16ThreadPoolDeviceC1ERKNS_14SessionOptionsERKNSt7__cxx1112basic_stringIcSt11char_traitsIcESaIcEEENS_3gtl7IntTypeINS_10Bytes_tag_ExEERKNS_14DeviceLocalityEPNS_9AllocatorE@Base 2.0.0
 _ZN10tensorflow16ThreadPoolDeviceC2ERKNS_14SessionOptionsERKNSt7__cxx1112basic_stringIcSt11char_traitsIcESaIcEEENS_3gtl7IntTypeINS_10Bytes_tag_ExEERKNS_14DeviceLocalityEPNS_9AllocatorE@Base 2.0.0
 _ZN10tensorflow16ThreadPoolDeviceD0Ev@Base 2.0.0
 _ZN10tensorflow16ThreadPoolDeviceD1Ev@Base 2.0.0
 _ZN10tensorflow16ThreadPoolDeviceD2Ev@Base 2.0.0
 _ZN10tensorflow16ValidateInliningEPKNS_4NodeEPKNS_12FunctionBodyERKNS_25InlineFunctionBodyOptionsE@Base 2.0.0
 _ZN10tensorflow16ValidateNodeNameERKNSt7__cxx1112basic_stringIcSt11char_traitsIcESaIcEEE@Base 2.0.0
 _ZN10tensorflow16WriteBinaryProtoEPNS_3EnvERKNSt7__cxx1112basic_stringIcSt11char_traitsIcESaIcEEERKN6google8protobuf11MessageLiteE@Base 2.0.0
 _ZN10tensorflow17BasicCPUAllocator4FreeEPvm@Base 2.0.0
 _ZN10tensorflow17BasicCPUAllocator5AllocEmm@Base 2.0.0
 _ZN10tensorflow17BasicCPUAllocatorD0Ev@Base 2.0.0
 _ZN10tensorflow17BasicCPUAllocatorD1Ev@Base 2.0.0
 _ZN10tensorflow17BasicCPUAllocatorD2Ev@Base 2.0.0
 _ZN10tensorflow17BundleHeaderProto12InternalSwapEPS0_@Base 2.0.0
 _ZN10tensorflow17BundleHeaderProto13clear_versionEv@Base 2.0.0
 _ZN10tensorflow17BundleHeaderProto14Endianness_MAXE@Base 2.0.0
 _ZN10tensorflow17BundleHeaderProto14Endianness_MINE@Base 2.0.0
 _ZN10tensorflow17BundleHeaderProto14_InternalParseEPKcPN6google8protobuf8internal12ParseContextE@Base 2.0.0
 _ZN10tensorflow17BundleHeaderProto16default_instanceEv@Base 2.0.0
 _ZN10tensorflow17BundleHeaderProto20Endianness_ARRAYSIZEE@Base 2.0.0
 _ZN10tensorflow17BundleHeaderProto21InitAsDefaultInstanceEv@Base 2.0.0
 _ZN10tensorflow17BundleHeaderProto34unsafe_arena_set_allocated_versionEPNS_10VersionDefE@Base 2.0.0
 _ZN10tensorflow17BundleHeaderProto3BIGE@Base 2.0.0
 _ZN10tensorflow17BundleHeaderProto5ClearEv@Base 2.0.0
 _ZN10tensorflow17BundleHeaderProto6LITTLEE@Base 2.0.0
 _ZN10tensorflow17BundleHeaderProto8CopyFromERKN6google8protobuf7MessageE@Base 2.0.0
 _ZN10tensorflow17BundleHeaderProto8CopyFromERKS0_@Base 2.0.0
 _ZN10tensorflow17BundleHeaderProto9ArenaDtorEPv@Base 2.0.0
 _ZN10tensorflow17BundleHeaderProto9MergeFromERKN6google8protobuf7MessageE@Base 2.0.0
 _ZN10tensorflow17BundleHeaderProto9MergeFromERKS0_@Base 2.0.0
 _ZN10tensorflow17BundleHeaderProto9_Internal7versionEPKS0_@Base 2.0.0
 _ZN10tensorflow17BundleHeaderProtoC1EPN6google8protobuf5ArenaE@Base 2.0.0
 _ZN10tensorflow17BundleHeaderProtoC1ERKS0_@Base 2.0.0
 _ZN10tensorflow17BundleHeaderProtoC1Ev@Base 2.0.0
 _ZN10tensorflow17BundleHeaderProtoC2EPN6google8protobuf5ArenaE@Base 2.0.0
 _ZN10tensorflow17BundleHeaderProtoC2ERKS0_@Base 2.0.0
 _ZN10tensorflow17BundleHeaderProtoC2Ev@Base 2.0.0
 _ZN10tensorflow17BundleHeaderProtoD0Ev@Base 2.0.0
 _ZN10tensorflow17BundleHeaderProtoD1Ev@Base 2.0.0
 _ZN10tensorflow17BundleHeaderProtoD2Ev@Base 2.0.0
 _ZN10tensorflow17CheckValidPaddingENS_7PaddingERKSt6vectorIxSaIxEEiNS_12TensorFormatE@Base 2.0.0
 _ZN10tensorflow17CollectiveAdapter16AlignedChunkEltsExxx@Base 2.0.0
 _ZN10tensorflow17CollectiveContextC1EPNS_18CollectiveExecutorEPKNS_9DeviceMgrEPNS_15OpKernelContextEPNS6_6ParamsERKNS_16CollectiveParamsERKNSt7__cxx1112basic_stringIcSt11char_traitsIcESaIcEEExPKNS_6TensorEPSL_@Base 2.0.0
 _ZN10tensorflow17CollectiveContextC2EPNS_18CollectiveExecutorEPKNS_9DeviceMgrEPNS_15OpKernelContextEPNS6_6ParamsERKNS_16CollectiveParamsERKNSt7__cxx1112basic_stringIcSt11char_traitsIcESaIcEEExPKNS_6TensorEPSL_@Base 2.0.0
 _ZN10tensorflow17CollectiveContextD0Ev@Base 2.0.0
 _ZN10tensorflow17CollectiveContextD1Ev@Base 2.0.0
 _ZN10tensorflow17CollectiveContextD2Ev@Base 2.0.0
 _ZN10tensorflow17ComputeCapability12InternalSwapEPS0_@Base 2.0.0
 _ZN10tensorflow17ComputeCapability14_InternalParseEPKcPN6google8protobuf8internal12ParseContextE@Base 2.0.0
 _ZN10tensorflow17ComputeCapability16default_instanceEv@Base 2.0.0
 _ZN10tensorflow17ComputeCapability21InitAsDefaultInstanceEv@Base 2.0.0
 _ZN10tensorflow17ComputeCapability5ClearEv@Base 2.0.0
 _ZN10tensorflow17ComputeCapability8CopyFromERKN6google8protobuf7MessageE@Base 2.0.0
 _ZN10tensorflow17ComputeCapability8CopyFromERKS0_@Base 2.0.0
 _ZN10tensorflow17ComputeCapability9MergeFromERKN6google8protobuf7MessageE@Base 2.0.0
 _ZN10tensorflow17ComputeCapability9MergeFromERKS0_@Base 2.0.0
 _ZN10tensorflow17ComputeCapabilityC1ERKS0_@Base 2.0.0
 _ZN10tensorflow17ComputeCapabilityC1Ev@Base 2.0.0
 _ZN10tensorflow17ComputeCapabilityC2ERKS0_@Base 2.0.0
 _ZN10tensorflow17ComputeCapabilityC2Ev@Base 2.0.0
 _ZN10tensorflow17ComputeCapabilityD0Ev@Base 2.0.0
 _ZN10tensorflow17ComputeCapabilityD1Ev@Base 2.0.0
 _ZN10tensorflow17ComputeCapabilityD2Ev@Base 2.0.0
 _ZN10tensorflow17CostGraphDef_Node12InternalSwapEPS0_@Base 2.0.0
 _ZN10tensorflow17CostGraphDef_Node14_InternalParseEPKcPN6google8protobuf8internal12ParseContextE@Base 2.0.0
 _ZN10tensorflow17CostGraphDef_Node16default_instanceEv@Base 2.0.0
 _ZN10tensorflow17CostGraphDef_Node21InitAsDefaultInstanceEv@Base 2.0.0
 _ZN10tensorflow17CostGraphDef_Node5ClearEv@Base 2.0.0
 _ZN10tensorflow17CostGraphDef_Node8CopyFromERKN6google8protobuf7MessageE@Base 2.0.0
 _ZN10tensorflow17CostGraphDef_Node8CopyFromERKS0_@Base 2.0.0
 _ZN10tensorflow17CostGraphDef_Node9ArenaDtorEPv@Base 2.0.0
 _ZN10tensorflow17CostGraphDef_Node9MergeFromERKN6google8protobuf7MessageE@Base 2.0.0
 _ZN10tensorflow17CostGraphDef_Node9MergeFromERKS0_@Base 2.0.0
 _ZN10tensorflow17CostGraphDef_NodeC1EPN6google8protobuf5ArenaE@Base 2.0.0
 _ZN10tensorflow17CostGraphDef_NodeC1ERKS0_@Base 2.0.0
 _ZN10tensorflow17CostGraphDef_NodeC1Ev@Base 2.0.0
 _ZN10tensorflow17CostGraphDef_NodeC2EPN6google8protobuf5ArenaE@Base 2.0.0
 _ZN10tensorflow17CostGraphDef_NodeC2ERKS0_@Base 2.0.0
 _ZN10tensorflow17CostGraphDef_NodeC2Ev@Base 2.0.0
 _ZN10tensorflow17CostGraphDef_NodeD0Ev@Base 2.0.0
 _ZN10tensorflow17CostGraphDef_NodeD1Ev@Base 2.0.0
 _ZN10tensorflow17CostGraphDef_NodeD2Ev@Base 2.0.0
 _ZN10tensorflow17CurrentStackTraceB5cxx11Ev@Base 2.0.0
 _ZN10tensorflow17DebugCudnnRnnAlgoEv@Base 2.0.0
 _ZN10tensorflow17DecodeVariantListESt10unique_ptrINS_4port17StringListDecoderESt14default_deleteIS2_EEPNS_7VariantEx@Base 2.0.0
 _ZN10tensorflow17EncodeVariantListEPKNS_7VariantExSt10unique_ptrINS_4port17StringListEncoderESt14default_deleteIS5_EE@Base 2.0.0
 _ZN10tensorflow17EnsureMemoryTypesERKNS_10DeviceTypeERKNSt7__cxx1112basic_stringIcSt11char_traitsIcESaIcEEEPNS_5GraphE@Base 2.0.0
 _ZN10tensorflow17EnumName_DataTypeENS_8DataTypeE@Base 2.0.0
 _ZN10tensorflow17FastAttrValueHashERKNS_9AttrValueE@Base 2.0.0
 _ZN10tensorflow17FeatureSparseCopyEmRKNSt7__cxx1112basic_stringIcSt11char_traitsIcESaIcEEERKNS_8DataTypeERKNS_7FeatureE@Base 2.0.0
 _ZN10tensorflow17FunctionCallFrame14ConsumeRetvalsEPSt6vectorINS_6TensorESaIS2_EEb@Base 2.0.0
 _ZN10tensorflow17FunctionCallFrame7SetArgsEN4absl4SpanIKNS_6TensorEEE@Base 2.0.0
 _ZN10tensorflow17FunctionCallFrame9SetRetvalEiRKNS_6TensorE@Base 2.0.0
 _ZN10tensorflow17FunctionCallFrameC1EN4absl4SpanIKNS_8DataTypeEEES5_@Base 2.0.0
 _ZN10tensorflow17FunctionCallFrameC2EN4absl4SpanIKNS_8DataTypeEEES5_@Base 2.0.0
 _ZN10tensorflow17FunctionCallFrameD0Ev@Base 2.0.0
 _ZN10tensorflow17FunctionCallFrameD1Ev@Base 2.0.0
 _ZN10tensorflow17FunctionCallFrameD2Ev@Base 2.0.0
 _ZN10tensorflow17FunctionDefHelper11FunctionRefERKNSt7__cxx1112basic_stringIcSt11char_traitsIcESaIcEEEN4absl4SpanIKSt4pairIS6_NS0_16AttrValueWrapperEEEE@Base 2.0.0
 _ZN10tensorflow17FunctionDefHelper16AttrValueWrapper14InitFromStringEN4absl11string_viewE@Base 2.0.0
 _ZN10tensorflow17FunctionDefHelper6CreateERKNSt7__cxx1112basic_stringIcSt11char_traitsIcESaIcEEEN4absl4SpanIS7_EESB_SB_NSA_IKNS0_4NodeEEENSA_IKSt4pairIS6_S6_EEE@Base 2.0.0
 _ZN10tensorflow17FunctionDefHelper6CreateERKNSt7__cxx1112basic_stringIcSt11char_traitsIcESaIcEEEN4absl4SpanIS7_EESB_SB_NSA_IKNS0_4NodeEEENSA_IKSt4pairIS6_S6_EEESI_@Base 2.0.0
 _ZN10tensorflow17FunctionDefHelper6DefineEN4absl4SpanIKNSt7__cxx1112basic_stringIcSt11char_traitsIcESaIcEEEEESA_SA_NS2_IKNS0_4NodeEEE@Base 2.0.0
 _ZN10tensorflow17FunctionDefHelper6DefineERKNSt7__cxx1112basic_stringIcSt11char_traitsIcESaIcEEEN4absl4SpanIS7_EESB_SB_NSA_IKNS0_4NodeEEE@Base 2.0.0
 _ZN10tensorflow17FunctionDefsEqualERKNS_11FunctionDefES2_@Base 2.0.0
 _ZN10tensorflow17GPUDebugAllocator10ClearStatsEv@Base 2.0.0
 _ZN10tensorflow17GPUDebugAllocator11AllocateRawEmm@Base 2.0.0
 _ZN10tensorflow17GPUDebugAllocator11CheckFooterEPv@Base 2.0.0
 _ZN10tensorflow17GPUDebugAllocator11CheckHeaderEPv@Base 2.0.0
 _ZN10tensorflow17GPUDebugAllocator13DeallocateRawEPv@Base 2.0.0
 _ZN10tensorflow17GPUDebugAllocator4NameB5cxx11Ev@Base 2.0.0
 _ZN10tensorflow17GPUDebugAllocator8GetStatsEv@Base 2.0.0
 _ZN10tensorflow17GPUDebugAllocatorC1EPNS_9AllocatorENS_3gtl7IntTypeINS_18PlatformGpuId_tag_EiEE@Base 2.0.0
 _ZN10tensorflow17GPUDebugAllocatorC2EPNS_9AllocatorENS_3gtl7IntTypeINS_18PlatformGpuId_tag_EiEE@Base 2.0.0
 _ZN10tensorflow17GPUDebugAllocatorD0Ev@Base 2.0.0
 _ZN10tensorflow17GPUDebugAllocatorD1Ev@Base 2.0.0
 _ZN10tensorflow17GPUDebugAllocatorD2Ev@Base 2.0.0
 _ZN10tensorflow17GPUMachineManagerEv@Base 2.0.0
 _ZN10tensorflow17Get3dOutputSizeV2ERKSt5arrayIxLm3EES3_S3_S3_NS_7PaddingEPS1_S5_@Base 2.0.0
 _ZN10tensorflow17GetArgsForIndicesERKSt6vectorIiSaIiEEN4absl4SpanIKNS_6TensorEEE@Base 2.0.0
 _ZN10tensorflow17GetFilterDimIndexILi2EEEiNS_18FilterTensorFormatEc@Base 2.0.0
 _ZN10tensorflow17GetNodeAttrSimpleERKNS_9AttrSliceEN4absl11string_viewEPNS_11TensorShapeE@Base 2.0.0
 _ZN10tensorflow17GetNodeAttrSimpleERKNS_9AttrSliceEN4absl11string_viewEPNS_8DataTypeE@Base 2.0.0
 _ZN10tensorflow17GetNodeAttrSimpleERKNS_9AttrSliceEN4absl11string_viewEPNSt7__cxx1112basic_stringIcSt11char_traitsIcESaIcEEE@Base 2.0.0
 _ZN10tensorflow17GetNodeAttrSimpleERKNS_9AttrSliceEN4absl11string_viewEPPKNS_11TensorProtoE@Base 2.0.0
 _ZN10tensorflow17GetNodeAttrSimpleERKNS_9AttrSliceEN4absl11string_viewEPPKNS_12NameAttrListE@Base 2.0.0
 _ZN10tensorflow17GetNodeAttrSimpleERKNS_9AttrSliceEN4absl11string_viewEPSt6vectorINS_11TensorShapeESaIS6_EE@Base 2.0.0
 _ZN10tensorflow17GetNodeAttrSimpleERKNS_9AttrSliceEN4absl11string_viewEPSt6vectorINS_8DataTypeESaIS6_EE@Base 2.0.0
 _ZN10tensorflow17GetNodeAttrSimpleERKNS_9AttrSliceEN4absl11string_viewEPSt6vectorINSt7__cxx1112basic_stringIcSt11char_traitsIcESaIcEEESaISB_EE@Base 2.0.0
 _ZN10tensorflow17GetNodeAttrSimpleERKNS_9AttrSliceEN4absl11string_viewEPSt6vectorIPKNS_16TensorShapeProtoESaIS8_EE@Base 2.0.0
 _ZN10tensorflow17GetNodeAttrSimpleERKNS_9AttrSliceEN4absl11string_viewEPSt6vectorIPKNSt7__cxx1112basic_stringIcSt11char_traitsIcESaIcEEESaISD_EE@Base 2.0.0
 _ZN10tensorflow17GetNodeAttrSimpleERKNS_9AttrSliceEN4absl11string_viewEPSt6vectorIbSaIbEE@Base 2.0.0
 _ZN10tensorflow17GetNodeAttrSimpleERKNS_9AttrSliceEN4absl11string_viewEPSt6vectorIfSaIfEE@Base 2.0.0
 _ZN10tensorflow17GetNodeAttrSimpleERKNS_9AttrSliceEN4absl11string_viewEPSt6vectorIiSaIiEE@Base 2.0.0
 _ZN10tensorflow17GetNodeAttrSimpleERKNS_9AttrSliceEN4absl11string_viewEPSt6vectorIxSaIxEE@Base 2.0.0
 _ZN10tensorflow17GetNodeAttrSimpleERKNS_9AttrSliceEN4absl11string_viewEPb@Base 2.0.0
 _ZN10tensorflow17GetNodeAttrSimpleERKNS_9AttrSliceEN4absl11string_viewEPf@Base 2.0.0
 _ZN10tensorflow17GetNodeAttrSimpleERKNS_9AttrSliceEN4absl11string_viewEPi@Base 2.0.0
 _ZN10tensorflow17GetNodeAttrSimpleERKNS_9AttrSliceEN4absl11string_viewEPx@Base 2.0.0
 _ZN10tensorflow17GetNodeAttrStringB5cxx11ERKNS_9AttrSliceEN4absl11string_viewE@Base 2.0.0
 _ZN10tensorflow17GetTensorDimIndexENS_12TensorFormatEci@Base 2.0.0
 _ZN10tensorflow17GetTensorDimIndexILi2EEEiNS_12TensorFormatEc@Base 2.0.0
 _ZN10tensorflow17GetTensorDimIndexILi3EEEiNS_12TensorFormatEc@Base 2.0.0
 _ZN10tensorflow17GraphTransferInfo12InternalSwapEPS0_@Base 2.0.0
 _ZN10tensorflow17GraphTransferInfo14_InternalParseEPKcPN6google8protobuf8internal12ParseContextE@Base 2.0.0
 _ZN10tensorflow17GraphTransferInfo15Destination_MAXE@Base 2.0.0
 _ZN10tensorflow17GraphTransferInfo15Destination_MINE@Base 2.0.0
 _ZN10tensorflow17GraphTransferInfo16default_instanceEv@Base 2.0.0
 _ZN10tensorflow17GraphTransferInfo21Destination_ARRAYSIZEE@Base 2.0.0
 _ZN10tensorflow17GraphTransferInfo21InitAsDefaultInstanceEv@Base 2.0.0
 _ZN10tensorflow17GraphTransferInfo3NOPE@Base 2.0.0
 _ZN10tensorflow17GraphTransferInfo5ClearEv@Base 2.0.0
 _ZN10tensorflow17GraphTransferInfo7HEXAGONE@Base 2.0.0
 _ZN10tensorflow17GraphTransferInfo8CopyFromERKN6google8protobuf7MessageE@Base 2.0.0
 _ZN10tensorflow17GraphTransferInfo8CopyFromERKS0_@Base 2.0.0
 _ZN10tensorflow17GraphTransferInfo9ArenaDtorEPv@Base 2.0.0
 _ZN10tensorflow17GraphTransferInfo9MergeFromERKN6google8protobuf7MessageE@Base 2.0.0
 _ZN10tensorflow17GraphTransferInfo9MergeFromERKS0_@Base 2.0.0
 _ZN10tensorflow17GraphTransferInfoC1EPN6google8protobuf5ArenaE@Base 2.0.0
 _ZN10tensorflow17GraphTransferInfoC1ERKS0_@Base 2.0.0
 _ZN10tensorflow17GraphTransferInfoC1Ev@Base 2.0.0
 _ZN10tensorflow17GraphTransferInfoC2EPN6google8protobuf5ArenaE@Base 2.0.0
 _ZN10tensorflow17GraphTransferInfoC2ERKS0_@Base 2.0.0
 _ZN10tensorflow17GraphTransferInfoC2Ev@Base 2.0.0
 _ZN10tensorflow17GraphTransferInfoD0Ev@Base 2.0.0
 _ZN10tensorflow17GraphTransferInfoD1Ev@Base 2.0.0
 _ZN10tensorflow17GraphTransferInfoD2Ev@Base 2.0.0
 _ZN10tensorflow17InOutTypesForNodeERKNS_7NodeDefERKNS_5OpDefEPN4absl13InlinedVectorINS_8DataTypeELm4ESaIS8_EEESB_@Base 2.0.0
 _ZN10tensorflow17InputTypesForNodeERKNS_7NodeDefERKNS_5OpDefEPN4absl13InlinedVectorINS_8DataTypeELm4ESaIS8_EEE@Base 2.0.0
 _ZN10tensorflow17IsTensorIdControlERKNS_8TensorIdE@Base 2.0.0
 _ZN10tensorflow17NameRangesForNodeERKNS_4NodeERKNS_5OpDefEPNS_3gtl7FlatMapIN4absl11string_viewESt4pairIiiENS_4hashIS9_vEESt8equal_toIS9_EEESH_@Base 2.0.0
 _ZN10tensorflow17NameRangesForNodeERKNS_9AttrSliceERKNS_5OpDefEPNS_3gtl7FlatMapIN4absl11string_viewESt4pairIiiENS_4hashIS9_vEESt8equal_toIS9_EEESH_@Base 2.0.0
 _ZN10tensorflow17NumOutputsForNodeERKNS_7NodeDefERKNS_5OpDefEPi@Base 2.0.0
 _ZN10tensorflow17OpPerformanceList12InternalSwapEPS0_@Base 2.0.0
 _ZN10tensorflow17OpPerformanceList14_InternalParseEPKcPN6google8protobuf8internal12ParseContextE@Base 2.0.0
 _ZN10tensorflow17OpPerformanceList16default_instanceEv@Base 2.0.0
 _ZN10tensorflow17OpPerformanceList21InitAsDefaultInstanceEv@Base 2.0.0
 _ZN10tensorflow17OpPerformanceList5ClearEv@Base 2.0.0
 _ZN10tensorflow17OpPerformanceList8CopyFromERKN6google8protobuf7MessageE@Base 2.0.0
 _ZN10tensorflow17OpPerformanceList8CopyFromERKS0_@Base 2.0.0
 _ZN10tensorflow17OpPerformanceList9ArenaDtorEPv@Base 2.0.0
 _ZN10tensorflow17OpPerformanceList9MergeFromERKN6google8protobuf7MessageE@Base 2.0.0
 _ZN10tensorflow17OpPerformanceList9MergeFromERKS0_@Base 2.0.0
 _ZN10tensorflow17OpPerformanceListC1EPN6google8protobuf5ArenaE@Base 2.0.0
 _ZN10tensorflow17OpPerformanceListC1ERKS0_@Base 2.0.0
 _ZN10tensorflow17OpPerformanceListC1Ev@Base 2.0.0
 _ZN10tensorflow17OpPerformanceListC2EPN6google8protobuf5ArenaE@Base 2.0.0
 _ZN10tensorflow17OpPerformanceListC2ERKS0_@Base 2.0.0
 _ZN10tensorflow17OpPerformanceListC2Ev@Base 2.0.0
 _ZN10tensorflow17OpPerformanceListD0Ev@Base 2.0.0
 _ZN10tensorflow17OpPerformanceListD1Ev@Base 2.0.0
 _ZN10tensorflow17OpPerformanceListD2Ev@Base 2.0.0
 _ZN10tensorflow17OutputTypeForNodeERKNS_7NodeDefERKNS_5OpDefEiPNS_8DataTypeE@Base 2.0.0
 _ZN10tensorflow17ParseExampleAttrs10FinishInitEv@Base 2.0.0
 _ZN10tensorflow17PosixWritableFile4SyncEv@Base 2.0.0
 _ZN10tensorflow17PosixWritableFile4TellEPx@Base 2.0.0
 _ZN10tensorflow17PosixWritableFile5CloseEv@Base 2.0.0
 _ZN10tensorflow17PosixWritableFile5FlushEv@Base 2.0.0
 _ZN10tensorflow17PosixWritableFile6AppendEN4absl11string_viewE@Base 2.0.0
 _ZN10tensorflow17PosixWritableFileD0Ev@Base 2.0.0
 _ZN10tensorflow17PosixWritableFileD1Ev@Base 2.0.0
 _ZN10tensorflow17PosixWritableFileD2Ev@Base 2.0.0
 _ZN10tensorflow17RamFileBlockCache10MaybeFetchERKSt4pairINSt7__cxx1112basic_stringIcSt11char_traitsIcESaIcEEEmERKSt10shared_ptrINS0_5BlockEE@Base 2.0.0
 _ZN10tensorflow17RamFileBlockCache10RemoveFileERKNSt7__cxx1112basic_stringIcSt11char_traitsIcESaIcEEE@Base 2.0.0
 _ZN10tensorflow17RamFileBlockCache11RemoveBlockESt17_Rb_tree_iteratorISt4pairIKS2_INSt7__cxx1112basic_stringIcSt11char_traitsIcESaIcEEEmESt10shared_ptrINS0_5BlockEEEE@Base 2.0.0
 _ZN10tensorflow17RamFileBlockCache13BlockNotStaleERKSt10shared_ptrINS0_5BlockEE@Base 2.0.0
 _ZN10tensorflow17RamFileBlockCache17RemoveFile_LockedERKNSt7__cxx1112basic_stringIcSt11char_traitsIcESaIcEEE@Base 2.0.0
 _ZN10tensorflow17RamFileBlockCache30ValidateAndUpdateFileSignatureERKNSt7__cxx1112basic_stringIcSt11char_traitsIcESaIcEEEx@Base 2.0.0
 _ZN10tensorflow17RamFileBlockCache4ReadERKNSt7__cxx1112basic_stringIcSt11char_traitsIcESaIcEEEmmPcPm@Base 2.0.0
 _ZN10tensorflow17RamFileBlockCache4TrimEv@Base 2.0.0
 _ZN10tensorflow17RamFileBlockCache5FlushEv@Base 2.0.0
 _ZN10tensorflow17RamFileBlockCache5PruneEv@Base 2.0.0
 _ZN10tensorflow17RamFileBlockCache6LookupERKSt4pairINSt7__cxx1112basic_stringIcSt11char_traitsIcESaIcEEEmE@Base 2.0.0
 _ZN10tensorflow17RamFileBlockCache9UpdateLRUERKSt4pairINSt7__cxx1112basic_stringIcSt11char_traitsIcESaIcEEEmERKSt10shared_ptrINS0_5BlockEE@Base 2.0.0
 _ZN10tensorflow17RamFileBlockCacheC1EmmySt8functionIFNS_6StatusERKNSt7__cxx1112basic_stringIcSt11char_traitsIcESaIcEEEmmPcPmEEPNS_3EnvE@Base 2.0.0
 _ZN10tensorflow17RamFileBlockCacheC2EmmySt8functionIFNS_6StatusERKNSt7__cxx1112basic_stringIcSt11char_traitsIcESaIcEEEmmPcPmEEPNS_3EnvE@Base 2.0.0
 _ZN10tensorflow17RamFileBlockCacheD0Ev@Base 2.0.0
 _ZN10tensorflow17RamFileBlockCacheD1Ev@Base 2.0.0
 _ZN10tensorflow17RamFileBlockCacheD2Ev@Base 2.0.0
 _ZN10tensorflow17SavedTensorSlices12InternalSwapEPS0_@Base 2.0.0
 _ZN10tensorflow17SavedTensorSlices14_InternalParseEPKcPN6google8protobuf8internal12ParseContextE@Base 2.0.0
 _ZN10tensorflow17SavedTensorSlices16default_instanceEv@Base 2.0.0
 _ZN10tensorflow17SavedTensorSlices21InitAsDefaultInstanceEv@Base 2.0.0
 _ZN10tensorflow17SavedTensorSlices31unsafe_arena_set_allocated_dataEPNS_10SavedSliceE@Base 2.0.0
 _ZN10tensorflow17SavedTensorSlices31unsafe_arena_set_allocated_metaEPNS_20SavedTensorSliceMetaE@Base 2.0.0
 _ZN10tensorflow17SavedTensorSlices5ClearEv@Base 2.0.0
 _ZN10tensorflow17SavedTensorSlices8CopyFromERKN6google8protobuf7MessageE@Base 2.0.0
 _ZN10tensorflow17SavedTensorSlices8CopyFromERKS0_@Base 2.0.0
 _ZN10tensorflow17SavedTensorSlices9ArenaDtorEPv@Base 2.0.0
 _ZN10tensorflow17SavedTensorSlices9MergeFromERKN6google8protobuf7MessageE@Base 2.0.0
 _ZN10tensorflow17SavedTensorSlices9MergeFromERKS0_@Base 2.0.0
 _ZN10tensorflow17SavedTensorSlices9_Internal4dataEPKS0_@Base 2.0.0
 _ZN10tensorflow17SavedTensorSlices9_Internal4metaEPKS0_@Base 2.0.0
 _ZN10tensorflow17SavedTensorSlicesC1EPN6google8protobuf5ArenaE@Base 2.0.0
 _ZN10tensorflow17SavedTensorSlicesC1ERKS0_@Base 2.0.0
 _ZN10tensorflow17SavedTensorSlicesC1Ev@Base 2.0.0
 _ZN10tensorflow17SavedTensorSlicesC2EPN6google8protobuf5ArenaE@Base 2.0.0
 _ZN10tensorflow17SavedTensorSlicesC2ERKS0_@Base 2.0.0
 _ZN10tensorflow17SavedTensorSlicesC2Ev@Base 2.0.0
 _ZN10tensorflow17SavedTensorSlicesD0Ev@Base 2.0.0
 _ZN10tensorflow17SavedTensorSlicesD1Ev@Base 2.0.0
 _ZN10tensorflow17SavedTensorSlicesD2Ev@Base 2.0.0
 _ZN10tensorflow17SummarizeGraphDefB5cxx11ERKNS_8GraphDefE@Base 2.0.0
 _ZN10tensorflow17TaggedRunMetadata12InternalSwapEPS0_@Base 2.0.0
 _ZN10tensorflow17TaggedRunMetadata14_InternalParseEPKcPN6google8protobuf8internal12ParseContextE@Base 2.0.0
 _ZN10tensorflow17TaggedRunMetadata16default_instanceEv@Base 2.0.0
 _ZN10tensorflow17TaggedRunMetadata21InitAsDefaultInstanceEv@Base 2.0.0
 _ZN10tensorflow17TaggedRunMetadata5ClearEv@Base 2.0.0
 _ZN10tensorflow17TaggedRunMetadata8CopyFromERKN6google8protobuf7MessageE@Base 2.0.0
 _ZN10tensorflow17TaggedRunMetadata8CopyFromERKS0_@Base 2.0.0
 _ZN10tensorflow17TaggedRunMetadata9ArenaDtorEPv@Base 2.0.0
 _ZN10tensorflow17TaggedRunMetadata9MergeFromERKN6google8protobuf7MessageE@Base 2.0.0
 _ZN10tensorflow17TaggedRunMetadata9MergeFromERKS0_@Base 2.0.0
 _ZN10tensorflow17TaggedRunMetadataC1EPN6google8protobuf5ArenaE@Base 2.0.0
 _ZN10tensorflow17TaggedRunMetadataC1ERKS0_@Base 2.0.0
 _ZN10tensorflow17TaggedRunMetadataC1Ev@Base 2.0.0
 _ZN10tensorflow17TaggedRunMetadataC2EPN6google8protobuf5ArenaE@Base 2.0.0
 _ZN10tensorflow17TaggedRunMetadataC2ERKS0_@Base 2.0.0
 _ZN10tensorflow17TaggedRunMetadataC2Ev@Base 2.0.0
 _ZN10tensorflow17TaggedRunMetadataD0Ev@Base 2.0.0
 _ZN10tensorflow17TaggedRunMetadataD1Ev@Base 2.0.0
 _ZN10tensorflow17TaggedRunMetadataD2Ev@Base 2.0.0
 _ZN10tensorflow17TensorDescription11clear_shapeEv@Base 2.0.0
 _ZN10tensorflow17TensorDescription12InternalSwapEPS0_@Base 2.0.0
 _ZN10tensorflow17TensorDescription14_InternalParseEPKcPN6google8protobuf8internal12ParseContextE@Base 2.0.0
 _ZN10tensorflow17TensorDescription16default_instanceEv@Base 2.0.0
 _ZN10tensorflow17TensorDescription21InitAsDefaultInstanceEv@Base 2.0.0
 _ZN10tensorflow17TensorDescription28clear_allocation_descriptionEv@Base 2.0.0
 _ZN10tensorflow17TensorDescription32unsafe_arena_set_allocated_shapeEPNS_16TensorShapeProtoE@Base 2.0.0
 _ZN10tensorflow17TensorDescription49unsafe_arena_set_allocated_allocation_descriptionEPNS_21AllocationDescriptionE@Base 2.0.0
 _ZN10tensorflow17TensorDescription5ClearEv@Base 2.0.0
 _ZN10tensorflow17TensorDescription8CopyFromERKN6google8protobuf7MessageE@Base 2.0.0
 _ZN10tensorflow17TensorDescription8CopyFromERKS0_@Base 2.0.0
 _ZN10tensorflow17TensorDescription9ArenaDtorEPv@Base 2.0.0
 _ZN10tensorflow17TensorDescription9MergeFromERKN6google8protobuf7MessageE@Base 2.0.0
 _ZN10tensorflow17TensorDescription9MergeFromERKS0_@Base 2.0.0
 _ZN10tensorflow17TensorDescription9_Internal22allocation_descriptionEPKS0_@Base 2.0.0
 _ZN10tensorflow17TensorDescription9_Internal5shapeEPKS0_@Base 2.0.0
 _ZN10tensorflow17TensorDescriptionC1EPN6google8protobuf5ArenaE@Base 2.0.0
 _ZN10tensorflow17TensorDescriptionC1ERKS0_@Base 2.0.0
 _ZN10tensorflow17TensorDescriptionC1Ev@Base 2.0.0
 _ZN10tensorflow17TensorDescriptionC2EPN6google8protobuf5ArenaE@Base 2.0.0
 _ZN10tensorflow17TensorDescriptionC2ERKS0_@Base 2.0.0
 _ZN10tensorflow17TensorDescriptionC2Ev@Base 2.0.0
 _ZN10tensorflow17TensorDescriptionD0Ev@Base 2.0.0
 _ZN10tensorflow17TensorDescriptionD1Ev@Base 2.0.0
 _ZN10tensorflow17TensorDescriptionD2Ev@Base 2.0.0
 _ZN10tensorflow17TrackingAllocator10ClearStatsEv@Base 2.0.0
 _ZN10tensorflow17TrackingAllocator11AllocateRawEmm@Base 2.0.0
 _ZN10tensorflow17TrackingAllocator11AllocateRawEmmRKNS_20AllocationAttributesE@Base 2.0.0
 _ZN10tensorflow17TrackingAllocator13DeallocateRawEPv@Base 2.0.0
 _ZN10tensorflow17TrackingAllocator17GetCurrentRecordsEv@Base 2.0.0
 _ZN10tensorflow17TrackingAllocator18GetRecordsAndUnRefEv@Base 2.0.0
 _ZN10tensorflow17TrackingAllocator4NameB5cxx11Ev@Base 2.0.0
 _ZN10tensorflow17TrackingAllocator5UnRefEv@Base 2.0.0
 _ZN10tensorflow17TrackingAllocator8GetSizesEv@Base 2.0.0
 _ZN10tensorflow17TrackingAllocator8GetStatsEv@Base 2.0.0
 _ZN10tensorflow17TrackingAllocatorC1EPNS_9AllocatorEb@Base 2.0.0
 _ZN10tensorflow17TrackingAllocatorC2EPNS_9AllocatorEb@Base 2.0.0
 _ZN10tensorflow17TrackingAllocatorD0Ev@Base 2.0.0
 _ZN10tensorflow17TrackingAllocatorD1Ev@Base 2.0.0
 _ZN10tensorflow17TrackingAllocatorD2Ev@Base 2.0.0
 _ZN10tensorflow17ValidateAttrValueERKNS_9AttrValueERKNS_13OpDef_AttrDefE@Base 2.0.0
 _ZN10tensorflow17VariantDeviceCopyENS_26VariantDeviceCopyDirectionERKNS_7VariantEPS1_RKSt8functionIFNS_6StatusERKNS_6TensorEPS7_EE@Base 2.0.0
 _ZN10tensorflow17VariantTensorData11add_tensorsEv@Base 2.0.0
 _ZN10tensorflow17VariantTensorData14FromConstProtoERKNS_22VariantTensorDataProtoE@Base 2.0.0
 _ZN10tensorflow17VariantTensorData15ParseFromStringENSt7__cxx1112basic_stringIcSt11char_traitsIcESaIcEEE@Base 2.0.0
 _ZN10tensorflow17VariantTensorData17SerializeToStringEPNSt7__cxx1112basic_stringIcSt11char_traitsIcESaIcEEE@Base 2.0.0
 _ZN10tensorflow17VariantTensorData9FromProtoENS_22VariantTensorDataProtoE@Base 2.0.0
 _ZN10tensorflow17VariantTensorDataC1ENS_22VariantTensorDataProtoE@Base 2.0.0
 _ZN10tensorflow17VariantTensorDataC2ENS_22VariantTensorDataProtoE@Base 2.0.0
 _ZN10tensorflow17VariantTensorDataD1Ev@Base 2.0.0
 _ZN10tensorflow17VariantTensorDataD2Ev@Base 2.0.0
 _ZN10tensorflow17WriteStringToFileEPNS_3EnvERKNSt7__cxx1112basic_stringIcSt11char_traitsIcESaIcEEERKN4absl11string_viewE@Base 2.0.0
 _ZN10tensorflow18AreAttrValuesEqualERKNS_9AttrValueES2_@Base 2.0.0
 _ZN10tensorflow18BuildConfiguration12InternalSwapEPS0_@Base 2.0.0
 _ZN10tensorflow18BuildConfiguration14_InternalParseEPKcPN6google8protobuf8internal12ParseContextE@Base 2.0.0
 _ZN10tensorflow18BuildConfiguration16default_instanceEv@Base 2.0.0
 _ZN10tensorflow18BuildConfiguration21InitAsDefaultInstanceEv@Base 2.0.0
 _ZN10tensorflow18BuildConfiguration5ClearEv@Base 2.0.0
 _ZN10tensorflow18BuildConfiguration8CopyFromERKN6google8protobuf7MessageE@Base 2.0.0
 _ZN10tensorflow18BuildConfiguration8CopyFromERKS0_@Base 2.0.0
 _ZN10tensorflow18BuildConfiguration9ArenaDtorEPv@Base 2.0.0
 _ZN10tensorflow18BuildConfiguration9MergeFromERKN6google8protobuf7MessageE@Base 2.0.0
 _ZN10tensorflow18BuildConfiguration9MergeFromERKS0_@Base 2.0.0
 _ZN10tensorflow18BuildConfigurationC1EPN6google8protobuf5ArenaE@Base 2.0.0
 _ZN10tensorflow18BuildConfigurationC1ERKS0_@Base 2.0.0
 _ZN10tensorflow18BuildConfigurationC1Ev@Base 2.0.0
 _ZN10tensorflow18BuildConfigurationC2EPN6google8protobuf5ArenaE@Base 2.0.0
 _ZN10tensorflow18BuildConfigurationC2ERKS0_@Base 2.0.0
 _ZN10tensorflow18BuildConfigurationC2Ev@Base 2.0.0
 _ZN10tensorflow18BuildConfigurationD0Ev@Base 2.0.0
 _ZN10tensorflow18BuildConfigurationD1Ev@Base 2.0.0
 _ZN10tensorflow18BuildConfigurationD2Ev@Base 2.0.0
 _ZN10tensorflow18CheckOpDeprecationERKNS_5OpDefEi@Base 2.0.0
 _ZN10tensorflow18ClearFeatureValuesIJNSt7__cxx1112basic_stringIcSt11char_traitsIcESaIcEEEEEEvPNS_7FeatureE@Base 2.0.0
 _ZN10tensorflow18ClearFeatureValuesIJfEEEvPNS_7FeatureE@Base 2.0.0
 _ZN10tensorflow18ClearFeatureValuesIJlEEEvPNS_7FeatureE@Base 2.0.0
 _ZN10tensorflow18ClockCycleProfiler14DumpStatisticsERKNSt7__cxx1112basic_stringIcSt11char_traitsIcESaIcEEE@Base 2.0.0
 _ZN10tensorflow18CollInstanceParamsD1Ev@Base 2.0.0
 _ZN10tensorflow18CollInstanceParamsD2Ev@Base 2.0.0
 _ZN10tensorflow18CollInstanceParamsaSERKS0_@Base 2.0.0
 _ZN10tensorflow18CollectiveExecutor10StartAbortERKNS_6StatusE@Base 2.0.0
 _ZN10tensorflow18CollectiveExecutor10kInvalidIdE@Base 2.0.0
 _ZN10tensorflow18CollectiveExecutor9CtxParamsEPNS_15OpKernelContextE@Base 2.0.0
 _ZN10tensorflow18CollectiveRegistry12LookupHelperERKNSt7__cxx1112basic_stringIcSt11char_traitsIcESaIcEEEPPNS_33CollectiveImplementationInterfaceEb@Base 2.0.0
 _ZN10tensorflow18CollectiveRegistry27LookupParamResolverInstanceERKNSt7__cxx1112basic_stringIcSt11char_traitsIcESaIcEEEPPNS_33CollectiveImplementationInterfaceE@Base 2.0.0
 _ZN10tensorflow18CollectiveRegistry6GetAllEPSt6vectorIPNS_33CollectiveImplementationInterfaceESaIS3_EE@Base 2.0.0
 _ZN10tensorflow18CollectiveRegistry6LookupERKNSt7__cxx1112basic_stringIcSt11char_traitsIcESaIcEEEPPNS_33CollectiveImplementationInterfaceE@Base 2.0.0
 _ZN10tensorflow18CollectiveRegistry8RegisterERKNSt7__cxx1112basic_stringIcSt11char_traitsIcESaIcEEESt8functionIFPNS_33CollectiveImplementationInterfaceEvEE@Base 2.0.0
 _ZN10tensorflow18DataTypeFromStringEN4absl11string_viewEPNS_8DataTypeE@Base 2.0.0
 _ZN10tensorflow18DebuggedSourceFile12InternalSwapEPS0_@Base 2.0.0
 _ZN10tensorflow18DebuggedSourceFile14_InternalParseEPKcPN6google8protobuf8internal12ParseContextE@Base 2.0.0
 _ZN10tensorflow18DebuggedSourceFile16default_instanceEv@Base 2.0.0
 _ZN10tensorflow18DebuggedSourceFile21InitAsDefaultInstanceEv@Base 2.0.0
 _ZN10tensorflow18DebuggedSourceFile5ClearEv@Base 2.0.0
 _ZN10tensorflow18DebuggedSourceFile8CopyFromERKN6google8protobuf7MessageE@Base 2.0.0
 _ZN10tensorflow18DebuggedSourceFile8CopyFromERKS0_@Base 2.0.0
 _ZN10tensorflow18DebuggedSourceFile9ArenaDtorEPv@Base 2.0.0
 _ZN10tensorflow18DebuggedSourceFile9MergeFromERKN6google8protobuf7MessageE@Base 2.0.0
 _ZN10tensorflow18DebuggedSourceFile9MergeFromERKS0_@Base 2.0.0
 _ZN10tensorflow18DebuggedSourceFileC1EPN6google8protobuf5ArenaE@Base 2.0.0
 _ZN10tensorflow18DebuggedSourceFileC1ERKS0_@Base 2.0.0
 _ZN10tensorflow18DebuggedSourceFileC1Ev@Base 2.0.0
 _ZN10tensorflow18DebuggedSourceFileC2EPN6google8protobuf5ArenaE@Base 2.0.0
 _ZN10tensorflow18DebuggedSourceFileC2ERKS0_@Base 2.0.0
 _ZN10tensorflow18DebuggedSourceFileC2Ev@Base 2.0.0
 _ZN10tensorflow18DebuggedSourceFileD0Ev@Base 2.0.0
 _ZN10tensorflow18DebuggedSourceFileD1Ev@Base 2.0.0
 _ZN10tensorflow18DebuggedSourceFileD2Ev@Base 2.0.0
 _ZN10tensorflow18DecodeUnaryVariantEPNS_7VariantE@Base 2.0.0
 _ZN10tensorflow18DoQuantizeTrainingEiRKNSt7__cxx1112basic_stringIcSt11char_traitsIcESaIcEEEPNS_5GraphE@Base 2.0.0
 _ZN10tensorflow18DumpGraphDefToFileERKNSt7__cxx1112basic_stringIcSt11char_traitsIcESaIcEEERKNS_8GraphDefES7_@Base 2.0.0
 _ZN10tensorflow18FileSystemCopyFileEPNS_10FileSystemERKNSt7__cxx1112basic_stringIcSt11char_traitsIcESaIcEEES1_S9_@Base 2.0.0
 _ZN10tensorflow18FileSystemRegistryD0Ev@Base 2.0.0
 _ZN10tensorflow18FileSystemRegistryD1Ev@Base 2.0.0
 _ZN10tensorflow18FileSystemRegistryD2Ev@Base 2.0.0
 _ZN10tensorflow18FormatNodeForErrorB5cxx11ERKNS_13NodeDebugInfoE@Base 2.0.0
 _ZN10tensorflow18FormatNodeForErrorB5cxx11ERKNS_4NodeE@Base 2.0.0
 _ZN10tensorflow18FunctionDefLibrary12InternalSwapEPS0_@Base 2.0.0
 _ZN10tensorflow18FunctionDefLibrary14_InternalParseEPKcPN6google8protobuf8internal12ParseContextE@Base 2.0.0
 _ZN10tensorflow18FunctionDefLibrary16default_instanceEv@Base 2.0.0
 _ZN10tensorflow18FunctionDefLibrary21InitAsDefaultInstanceEv@Base 2.0.0
 _ZN10tensorflow18FunctionDefLibrary5ClearEv@Base 2.0.0
 _ZN10tensorflow18FunctionDefLibrary8CopyFromERKN6google8protobuf7MessageE@Base 2.0.0
 _ZN10tensorflow18FunctionDefLibrary8CopyFromERKS0_@Base 2.0.0
 _ZN10tensorflow18FunctionDefLibrary9ArenaDtorEPv@Base 2.0.0
 _ZN10tensorflow18FunctionDefLibrary9MergeFromERKN6google8protobuf7MessageE@Base 2.0.0
 _ZN10tensorflow18FunctionDefLibrary9MergeFromERKS0_@Base 2.0.0
 _ZN10tensorflow18FunctionDefLibraryC1EPN6google8protobuf5ArenaE@Base 2.0.0
 _ZN10tensorflow18FunctionDefLibraryC1ERKS0_@Base 2.0.0
 _ZN10tensorflow18FunctionDefLibraryC1Ev@Base 2.0.0
 _ZN10tensorflow18FunctionDefLibraryC2EPN6google8protobuf5ArenaE@Base 2.0.0
 _ZN10tensorflow18FunctionDefLibraryC2ERKS0_@Base 2.0.0
 _ZN10tensorflow18FunctionDefLibraryC2Ev@Base 2.0.0
 _ZN10tensorflow18FunctionDefLibraryD0Ev@Base 2.0.0
 _ZN10tensorflow18FunctionDefLibraryD1Ev@Base 2.0.0
 _ZN10tensorflow18FunctionDefLibraryD2Ev@Base 2.0.0
 _ZN10tensorflow18FunctionDefLibraryaSEOS0_@Base 2.0.0
 _ZN10tensorflow18GetPlatformStringsERKNSt7__cxx1112basic_stringIcSt11char_traitsIcESaIcEEEPSt6vectorIS5_SaIS5_EE@Base 2.0.0
 _ZN10tensorflow18GoogleAuthProvider15GetTokenFromGceEv@Base 2.0.0
 _ZN10tensorflow18GoogleAuthProvider17GetTokenFromFilesEv@Base 2.0.0
 _ZN10tensorflow18GoogleAuthProvider18GetTokenForTestingEv@Base 2.0.0
 _ZN10tensorflow18GoogleAuthProvider8GetTokenEPNSt7__cxx1112basic_stringIcSt11char_traitsIcESaIcEEE@Base 2.0.0
 _ZN10tensorflow18GoogleAuthProviderC1ESt10shared_ptrINS_27ComputeEngineMetadataClientEE@Base 2.0.0
 _ZN10tensorflow18GoogleAuthProviderC1ESt10unique_ptrINS_11OAuthClientESt14default_deleteIS2_EESt10shared_ptrINS_27ComputeEngineMetadataClientEEPNS_3EnvE@Base 2.0.0
 _ZN10tensorflow18GoogleAuthProviderC2ESt10shared_ptrINS_27ComputeEngineMetadataClientEE@Base 2.0.0
 _ZN10tensorflow18GoogleAuthProviderC2ESt10unique_ptrINS_11OAuthClientESt14default_deleteIS2_EESt10shared_ptrINS_27ComputeEngineMetadataClientEEPNS_3EnvE@Base 2.0.0
 _ZN10tensorflow18GoogleAuthProviderD0Ev@Base 2.0.0
 _ZN10tensorflow18GoogleAuthProviderD1Ev@Base 2.0.0
 _ZN10tensorflow18GoogleAuthProviderD2Ev@Base 2.0.0
 _ZN10tensorflow18GraphToFunctionDefERKNS_5GraphERKNSt7__cxx1112basic_stringIcSt11char_traitsIcESaIcEEEPNS_11FunctionDefE@Base 2.0.0
 _ZN10tensorflow18GraphToFunctionDefERKNS_5GraphERKNSt7__cxx1112basic_stringIcSt11char_traitsIcESaIcEEERKSt8functionIFN4absl8optionalIS8_EEPKNS_4NodeEEEPNS_11FunctionDefE@Base 2.0.0
 _ZN10tensorflow18IOColocationGroupsD1Ev@Base 2.0.0
 _ZN10tensorflow18IOColocationGroupsD2Ev@Base 2.0.0
 _ZN10tensorflow18InlineFunctionBodyERKNS_25FunctionLibraryDefinitionEPNS_5GraphEPNS_4NodeEPKNS_12FunctionBodyERKNS_25InlineFunctionBodyOptionsE@Base 2.0.0
 _ZN10tensorflow18KernelDefAvailableERKNS_10DeviceTypeERKNS_7NodeDefE@Base 2.0.0
 _ZN10tensorflow18LoadDynamicKernelsEv@Base 2.0.0
 _ZN10tensorflow18MakeResourceHandleEPNS_15OpKernelContextERKNSt7__cxx1112basic_stringIcSt11char_traitsIcESaIcEEES9_RKSt10type_indexRKSt6vectorINS_26DtypeAndPartialTensorShapeESaISE_EE@Base 2.0.0
 _ZN10tensorflow18MemoryTypesForNodeEPKNS_19OpRegistryInterfaceERKNS_10DeviceTypeERKNS_7NodeDefEPN4absl13InlinedVectorINS_10MemoryTypeELm4ESaISB_EEESE_@Base 2.0.0
 _ZN10tensorflow18NewLocalRendezvousEv@Base 2.0.0
 _ZN10tensorflow18NodeNameFullPrefixERKN4absl11string_viewE@Base 2.0.0
 _ZN10tensorflow18NormalDistribution12InternalSwapEPS0_@Base 2.0.0
 _ZN10tensorflow18NormalDistribution14_InternalParseEPKcPN6google8protobuf8internal12ParseContextE@Base 2.0.0
 _ZN10tensorflow18NormalDistribution16default_instanceEv@Base 2.0.0
 _ZN10tensorflow18NormalDistribution21InitAsDefaultInstanceEv@Base 2.0.0
 _ZN10tensorflow18NormalDistribution5ClearEv@Base 2.0.0
 _ZN10tensorflow18NormalDistribution8CopyFromERKN6google8protobuf7MessageE@Base 2.0.0
 _ZN10tensorflow18NormalDistribution8CopyFromERKS0_@Base 2.0.0
 _ZN10tensorflow18NormalDistribution9ArenaDtorEPv@Base 2.0.0
 _ZN10tensorflow18NormalDistribution9MergeFromERKN6google8protobuf7MessageE@Base 2.0.0
 _ZN10tensorflow18NormalDistribution9MergeFromERKS0_@Base 2.0.0
 _ZN10tensorflow18NormalDistributionC1EPN6google8protobuf5ArenaE@Base 2.0.0
 _ZN10tensorflow18NormalDistributionC1ERKS0_@Base 2.0.0
 _ZN10tensorflow18NormalDistributionC1Ev@Base 2.0.0
 _ZN10tensorflow18NormalDistributionC2EPN6google8protobuf5ArenaE@Base 2.0.0
 _ZN10tensorflow18NormalDistributionC2ERKS0_@Base 2.0.0
 _ZN10tensorflow18NormalDistributionC2Ev@Base 2.0.0
 _ZN10tensorflow18NormalDistributionD0Ev@Base 2.0.0
 _ZN10tensorflow18NormalDistributionD1Ev@Base 2.0.0
 _ZN10tensorflow18NormalDistributionD2Ev@Base 2.0.0
 _ZN10tensorflow18OpRegistrationDataD1Ev@Base 2.0.0
 _ZN10tensorflow18OpRegistrationDataD2Ev@Base 2.0.0
 _ZN10tensorflow18OutputTypesForNodeERKNS_7NodeDefERKNS_5OpDefEPN4absl13InlinedVectorINS_8DataTypeELm4ESaIS8_EEE@Base 2.0.0
 _ZN10tensorflow18OutputTypesForNodeERKNS_9AttrSliceERKNS_5OpDefEPN4absl13InlinedVectorINS_8DataTypeELm4ESaIS8_EEE@Base 2.0.0
 _ZN10tensorflow18ReadBoolFromEnvVarEN4absl11string_viewEbPb@Base 2.0.0
 _ZN10tensorflow18RetryingFileSystemINS_13GcsFileSystemEE10DeleteFileERKNSt7__cxx1112basic_stringIcSt11char_traitsIcESaIcEEE@Base 2.0.0
 _ZN10tensorflow18RetryingFileSystemINS_13GcsFileSystemEE10FileExistsERKNSt7__cxx1112basic_stringIcSt11char_traitsIcESaIcEEE@Base 2.0.0
 _ZN10tensorflow18RetryingFileSystemINS_13GcsFileSystemEE10RenameFileERKNSt7__cxx1112basic_stringIcSt11char_traitsIcESaIcEEESA_@Base 2.0.0
 _ZN10tensorflow18RetryingFileSystemINS_13GcsFileSystemEE11FlushCachesEv@Base 2.0.0
 _ZN10tensorflow18RetryingFileSystemINS_13GcsFileSystemEE11GetChildrenERKNSt7__cxx1112basic_stringIcSt11char_traitsIcESaIcEEEPSt6vectorIS8_SaIS8_EE@Base 2.0.0
 _ZN10tensorflow18RetryingFileSystemINS_13GcsFileSystemEE11GetFileSizeERKNSt7__cxx1112basic_stringIcSt11char_traitsIcESaIcEEEPy@Base 2.0.0
 _ZN10tensorflow18RetryingFileSystemINS_13GcsFileSystemEE11IsDirectoryERKNSt7__cxx1112basic_stringIcSt11char_traitsIcESaIcEEE@Base 2.0.0
 _ZN10tensorflow18RetryingFileSystemINS_13GcsFileSystemEE15NewWritableFileERKNSt7__cxx1112basic_stringIcSt11char_traitsIcESaIcEEEPSt10unique_ptrINS_12WritableFileESt14default_deleteISC_EE@Base 2.0.0
 _ZN10tensorflow18RetryingFileSystemINS_13GcsFileSystemEE16GetMatchingPathsERKNSt7__cxx1112basic_stringIcSt11char_traitsIcESaIcEEEPSt6vectorIS8_SaIS8_EE@Base 2.0.0
 _ZN10tensorflow18RetryingFileSystemINS_13GcsFileSystemEE17DeleteRecursivelyERKNSt7__cxx1112basic_stringIcSt11char_traitsIcESaIcEEEPxSB_@Base 2.0.0
 _ZN10tensorflow18RetryingFileSystemINS_13GcsFileSystemEE17NewAppendableFileERKNSt7__cxx1112basic_stringIcSt11char_traitsIcESaIcEEEPSt10unique_ptrINS_12WritableFileESt14default_deleteISC_EE@Base 2.0.0
 _ZN10tensorflow18RetryingFileSystemINS_13GcsFileSystemEE19NewRandomAccessFileERKNSt7__cxx1112basic_stringIcSt11char_traitsIcESaIcEEEPSt10unique_ptrINS_16RandomAccessFileESt14default_deleteISC_EE@Base 2.0.0
 _ZN10tensorflow18RetryingFileSystemINS_13GcsFileSystemEE31NewReadOnlyMemoryRegionFromFileERKNSt7__cxx1112basic_stringIcSt11char_traitsIcESaIcEEEPSt10unique_ptrINS_20ReadOnlyMemoryRegionESt14default_deleteISC_EE@Base 2.0.0
 _ZN10tensorflow18RetryingFileSystemINS_13GcsFileSystemEE4StatERKNSt7__cxx1112basic_stringIcSt11char_traitsIcESaIcEEEPNS_14FileStatisticsE@Base 2.0.0
 _ZN10tensorflow18RetryingFileSystemINS_13GcsFileSystemEE9CreateDirERKNSt7__cxx1112basic_stringIcSt11char_traitsIcESaIcEEE@Base 2.0.0
 _ZN10tensorflow18RetryingFileSystemINS_13GcsFileSystemEE9DeleteDirERKNSt7__cxx1112basic_stringIcSt11char_traitsIcESaIcEEE@Base 2.0.0
 _ZN10tensorflow18RetryingFileSystemINS_13GcsFileSystemEED0Ev@Base 2.0.0
 _ZN10tensorflow18RetryingFileSystemINS_13GcsFileSystemEED1Ev@Base 2.0.0
 _ZN10tensorflow18RetryingFileSystemINS_13GcsFileSystemEED2Ev@Base 2.0.0
 _ZN10tensorflow18ScopedAllocatorMgr12GetContainerEx@Base 2.0.0
 _ZN10tensorflow18ScopedAllocatorMgr14PopulateFieldsEiRKN4absl4SpanIKNS_11TensorShapeEEENS_8DataTypeEPSt6vectorINS_15ScopedAllocator5FieldESaISB_EE@Base 2.0.0
 _ZN10tensorflow18ScopedAllocatorMgr18AddScopedAllocatorERKNS_6TensorExiRKNSt7__cxx1112basic_stringIcSt11char_traitsIcESaIcEEERKN4absl4SpanIKNS_15ScopedAllocator5FieldEEEi@Base 2.0.0
 _ZN10tensorflow18ScopedAllocatorMgr7CleanupEx@Base 2.0.0
 _ZN10tensorflow18ScopedAllocatorMgrD1Ev@Base 2.0.0
 _ZN10tensorflow18ScopedAllocatorMgrD2Ev@Base 2.0.0
 _ZN10tensorflow18StepStatsCollector14BuildCostModelEPNS_16CostModelManagerERKSt13unordered_mapINSt7__cxx1112basic_stringIcSt11char_traitsIcESaIcEEEPKNS_5GraphESt4hashIS9_ESt8equal_toIS9_ESaISt4pairIKS9_SC_EEE@Base 2.0.0
 _ZN10tensorflow18StepStatsCollector14SaveThreadNameERKNSt7__cxx1112basic_stringIcSt11char_traitsIcESaIcEEEjS8_@Base 2.0.0
 _ZN10tensorflow18StepStatsCollector15FinalizeAndSwapEPNS_9StepStatsE@Base 2.0.0
 _ZN10tensorflow18StepStatsCollector16FinalizeInternalEv@Base 2.0.0
 _ZN10tensorflow18StepStatsCollector19CreateNodeExecStatsEPKNS_4NodeE@Base 2.0.0
 _ZN10tensorflow18StepStatsCollector31ReportAllocsOnResourceExhaustedERKNSt7__cxx1112basic_stringIcSt11char_traitsIcESaIcEEE@Base 2.0.0
 _ZN10tensorflow18StepStatsCollector4SaveERKNSt7__cxx1112basic_stringIcSt11char_traitsIcESaIcEEEPNS_13NodeExecStatsE@Base 2.0.0
 _ZN10tensorflow18StepStatsCollector4SaveERKNSt7__cxx1112basic_stringIcSt11char_traitsIcESaIcEEEPNS_20NodeExecStatsWrapperE@Base 2.0.0
 _ZN10tensorflow18StepStatsCollector8FinalizeEv@Base 2.0.0
 _ZN10tensorflow18StepStatsCollectorC1EPNS_9StepStatsE@Base 2.0.0
 _ZN10tensorflow18StepStatsCollectorC2EPNS_9StepStatsE@Base 2.0.0
 _ZN10tensorflow18StepStatsCollectorD0Ev@Base 2.0.0
 _ZN10tensorflow18StepStatsCollectorD1Ev@Base 2.0.0
 _ZN10tensorflow18StepStatsCollectorD2Ev@Base 2.0.0
 _ZN10tensorflow18SummarizeAttrValueB5cxx11ERKNS_9AttrValueE@Base 2.0.0
 _ZN10tensorflow18SummaryDescription12InternalSwapEPS0_@Base 2.0.0
 _ZN10tensorflow18SummaryDescription14_InternalParseEPKcPN6google8protobuf8internal12ParseContextE@Base 2.0.0
 _ZN10tensorflow18SummaryDescription16default_instanceEv@Base 2.0.0
 _ZN10tensorflow18SummaryDescription21InitAsDefaultInstanceEv@Base 2.0.0
 _ZN10tensorflow18SummaryDescription5ClearEv@Base 2.0.0
 _ZN10tensorflow18SummaryDescription8CopyFromERKN6google8protobuf7MessageE@Base 2.0.0
 _ZN10tensorflow18SummaryDescription8CopyFromERKS0_@Base 2.0.0
 _ZN10tensorflow18SummaryDescription9ArenaDtorEPv@Base 2.0.0
 _ZN10tensorflow18SummaryDescription9MergeFromERKN6google8protobuf7MessageE@Base 2.0.0
 _ZN10tensorflow18SummaryDescription9MergeFromERKS0_@Base 2.0.0
 _ZN10tensorflow18SummaryDescriptionC1EPN6google8protobuf5ArenaE@Base 2.0.0
 _ZN10tensorflow18SummaryDescriptionC1ERKS0_@Base 2.0.0
 _ZN10tensorflow18SummaryDescriptionC1Ev@Base 2.0.0
 _ZN10tensorflow18SummaryDescriptionC2EPN6google8protobuf5ArenaE@Base 2.0.0
 _ZN10tensorflow18SummaryDescriptionC2ERKS0_@Base 2.0.0
 _ZN10tensorflow18SummaryDescriptionC2Ev@Base 2.0.0
 _ZN10tensorflow18SummaryDescriptionD0Ev@Base 2.0.0
 _ZN10tensorflow18SummaryDescriptionD1Ev@Base 2.0.0
 _ZN10tensorflow18SummaryDescriptionD2Ev@Base 2.0.0
 _ZN10tensorflow18UnboundedWorkQueue16PooledThreadFuncEv@Base 2.0.0
 _ZN10tensorflow18UnboundedWorkQueue8ScheduleESt8functionIFvvEE@Base 2.0.0
 _ZN10tensorflow18UnboundedWorkQueueC1EPNS_3EnvERKNSt7__cxx1112basic_stringIcSt11char_traitsIcESaIcEEE@Base 2.0.0
 _ZN10tensorflow18UnboundedWorkQueueC2EPNS_3EnvERKNSt7__cxx1112basic_stringIcSt11char_traitsIcESaIcEEE@Base 2.0.0
 _ZN10tensorflow18UnboundedWorkQueueD1Ev@Base 2.0.0
 _ZN10tensorflow18UnboundedWorkQueueD2Ev@Base 2.0.0
 _ZN10tensorflow18VarLenFeatureProto12InternalSwapEPS0_@Base 2.0.0
 _ZN10tensorflow18VarLenFeatureProto14_InternalParseEPKcPN6google8protobuf8internal12ParseContextE@Base 2.0.0
 _ZN10tensorflow18VarLenFeatureProto16default_instanceEv@Base 2.0.0
 _ZN10tensorflow18VarLenFeatureProto21InitAsDefaultInstanceEv@Base 2.0.0
 _ZN10tensorflow18VarLenFeatureProto5ClearEv@Base 2.0.0
 _ZN10tensorflow18VarLenFeatureProto8CopyFromERKN6google8protobuf7MessageE@Base 2.0.0
 _ZN10tensorflow18VarLenFeatureProto8CopyFromERKS0_@Base 2.0.0
 _ZN10tensorflow18VarLenFeatureProto9ArenaDtorEPv@Base 2.0.0
 _ZN10tensorflow18VarLenFeatureProto9MergeFromERKN6google8protobuf7MessageE@Base 2.0.0
 _ZN10tensorflow18VarLenFeatureProto9MergeFromERKS0_@Base 2.0.0
 _ZN10tensorflow18VarLenFeatureProtoC1EPN6google8protobuf5ArenaE@Base 2.0.0
 _ZN10tensorflow18VarLenFeatureProtoC1ERKS0_@Base 2.0.0
 _ZN10tensorflow18VarLenFeatureProtoC1Ev@Base 2.0.0
 _ZN10tensorflow18VarLenFeatureProtoC2EPN6google8protobuf5ArenaE@Base 2.0.0
 _ZN10tensorflow18VarLenFeatureProtoC2ERKS0_@Base 2.0.0
 _ZN10tensorflow18VarLenFeatureProtoC2Ev@Base 2.0.0
 _ZN10tensorflow18VarLenFeatureProtoD0Ev@Base 2.0.0
 _ZN10tensorflow18VarLenFeatureProtoD1Ev@Base 2.0.0
 _ZN10tensorflow18VarLenFeatureProtoD2Ev@Base 2.0.0
 _ZN10tensorflow18condition_variable10notify_allEv@Base 2.0.0
 _ZN10tensorflow18condition_variable10notify_oneEv@Base 2.0.0
 _ZN10tensorflow18condition_variable4waitERNS_10mutex_lockE@Base 2.0.0
 _ZN10tensorflow18condition_variableC1Ev@Base 2.0.0
 _ZN10tensorflow18condition_variableC2Ev@Base 2.0.0
 _ZN10tensorflow18cpu_allocator_baseEv@Base 2.0.0
 _ZN10tensorflow18retrying_internals20RetryingWritableFile4SyncEv@Base 2.0.0
 _ZN10tensorflow18retrying_internals20RetryingWritableFile4TellEPx@Base 2.0.0
 _ZN10tensorflow18retrying_internals20RetryingWritableFile5CloseEv@Base 2.0.0
 _ZN10tensorflow18retrying_internals20RetryingWritableFile5FlushEv@Base 2.0.0
 _ZN10tensorflow18retrying_internals20RetryingWritableFile6AppendEN4absl11string_viewE@Base 2.0.0
 _ZN10tensorflow18retrying_internals20RetryingWritableFileD0Ev@Base 2.0.0
 _ZN10tensorflow18retrying_internals20RetryingWritableFileD1Ev@Base 2.0.0
 _ZN10tensorflow18retrying_internals20RetryingWritableFileD2Ev@Base 2.0.0
 _ZN10tensorflow18retrying_internals24RetryingRandomAccessFileD0Ev@Base 2.0.0
 _ZN10tensorflow18retrying_internals24RetryingRandomAccessFileD1Ev@Base 2.0.0
 _ZN10tensorflow18retrying_internals24RetryingRandomAccessFileD2Ev@Base 2.0.0
 _ZN10tensorflow19AllocatorMemoryUsed12InternalSwapEPS0_@Base 2.0.0
 _ZN10tensorflow19AllocatorMemoryUsed14_InternalParseEPKcPN6google8protobuf8internal12ParseContextE@Base 2.0.0
 _ZN10tensorflow19AllocatorMemoryUsed16default_instanceEv@Base 2.0.0
 _ZN10tensorflow19AllocatorMemoryUsed21InitAsDefaultInstanceEv@Base 2.0.0
 _ZN10tensorflow19AllocatorMemoryUsed5ClearEv@Base 2.0.0
 _ZN10tensorflow19AllocatorMemoryUsed8CopyFromERKN6google8protobuf7MessageE@Base 2.0.0
 _ZN10tensorflow19AllocatorMemoryUsed8CopyFromERKS0_@Base 2.0.0
 _ZN10tensorflow19AllocatorMemoryUsed9ArenaDtorEPv@Base 2.0.0
 _ZN10tensorflow19AllocatorMemoryUsed9MergeFromERKN6google8protobuf7MessageE@Base 2.0.0
 _ZN10tensorflow19AllocatorMemoryUsed9MergeFromERKS0_@Base 2.0.0
 _ZN10tensorflow19AllocatorMemoryUsedC1EPN6google8protobuf5ArenaE@Base 2.0.0
 _ZN10tensorflow19AllocatorMemoryUsedC1ERKS0_@Base 2.0.0
 _ZN10tensorflow19AllocatorMemoryUsedC1Ev@Base 2.0.0
 _ZN10tensorflow19AllocatorMemoryUsedC2EPN6google8protobuf5ArenaE@Base 2.0.0
 _ZN10tensorflow19AllocatorMemoryUsedC2ERKS0_@Base 2.0.0
 _ZN10tensorflow19AllocatorMemoryUsedC2Ev@Base 2.0.0
 _ZN10tensorflow19AllocatorMemoryUsedD0Ev@Base 2.0.0
 _ZN10tensorflow19AllocatorMemoryUsedD1Ev@Base 2.0.0
 _ZN10tensorflow19AllocatorMemoryUsedD2Ev@Base 2.0.0
 _ZN10tensorflow19AttrValue_ListValue11clear_shapeEv@Base 2.0.0
 _ZN10tensorflow19AttrValue_ListValue12InternalSwapEPS0_@Base 2.0.0
 _ZN10tensorflow19AttrValue_ListValue12clear_tensorEv@Base 2.0.0
 _ZN10tensorflow19AttrValue_ListValue14_InternalParseEPKcPN6google8protobuf8internal12ParseContextE@Base 2.0.0
 _ZN10tensorflow19AttrValue_ListValue16default_instanceEv@Base 2.0.0
 _ZN10tensorflow19AttrValue_ListValue21InitAsDefaultInstanceEv@Base 2.0.0
 _ZN10tensorflow19AttrValue_ListValue5ClearEv@Base 2.0.0
 _ZN10tensorflow19AttrValue_ListValue8CopyFromERKN6google8protobuf7MessageE@Base 2.0.0
 _ZN10tensorflow19AttrValue_ListValue8CopyFromERKS0_@Base 2.0.0
 _ZN10tensorflow19AttrValue_ListValue9ArenaDtorEPv@Base 2.0.0
 _ZN10tensorflow19AttrValue_ListValue9MergeFromERKN6google8protobuf7MessageE@Base 2.0.0
 _ZN10tensorflow19AttrValue_ListValue9MergeFromERKS0_@Base 2.0.0
 _ZN10tensorflow19AttrValue_ListValueC1EPN6google8protobuf5ArenaE@Base 2.0.0
 _ZN10tensorflow19AttrValue_ListValueC1ERKS0_@Base 2.0.0
 _ZN10tensorflow19AttrValue_ListValueC1Ev@Base 2.0.0
 _ZN10tensorflow19AttrValue_ListValueC2EPN6google8protobuf5ArenaE@Base 2.0.0
 _ZN10tensorflow19AttrValue_ListValueC2ERKS0_@Base 2.0.0
 _ZN10tensorflow19AttrValue_ListValueC2Ev@Base 2.0.0
 _ZN10tensorflow19AttrValue_ListValueD0Ev@Base 2.0.0
 _ZN10tensorflow19AttrValue_ListValueD1Ev@Base 2.0.0
 _ZN10tensorflow19AttrValue_ListValueD2Ev@Base 2.0.0
 _ZN10tensorflow19AutoParallelOptions12InternalSwapEPS0_@Base 2.0.0
 _ZN10tensorflow19AutoParallelOptions14_InternalParseEPKcPN6google8protobuf8internal12ParseContextE@Base 2.0.0
 _ZN10tensorflow19AutoParallelOptions16default_instanceEv@Base 2.0.0
 _ZN10tensorflow19AutoParallelOptions21InitAsDefaultInstanceEv@Base 2.0.0
 _ZN10tensorflow19AutoParallelOptions5ClearEv@Base 2.0.0
 _ZN10tensorflow19AutoParallelOptions8CopyFromERKN6google8protobuf7MessageE@Base 2.0.0
 _ZN10tensorflow19AutoParallelOptions8CopyFromERKS0_@Base 2.0.0
 _ZN10tensorflow19AutoParallelOptions9ArenaDtorEPv@Base 2.0.0
 _ZN10tensorflow19AutoParallelOptions9MergeFromERKN6google8protobuf7MessageE@Base 2.0.0
 _ZN10tensorflow19AutoParallelOptions9MergeFromERKS0_@Base 2.0.0
 _ZN10tensorflow19AutoParallelOptionsC1EPN6google8protobuf5ArenaE@Base 2.0.0
 _ZN10tensorflow19AutoParallelOptionsC1ERKS0_@Base 2.0.0
 _ZN10tensorflow19AutoParallelOptionsC1Ev@Base 2.0.0
 _ZN10tensorflow19AutoParallelOptionsC2EPN6google8protobuf5ArenaE@Base 2.0.0
 _ZN10tensorflow19AutoParallelOptionsC2ERKS0_@Base 2.0.0
 _ZN10tensorflow19AutoParallelOptionsC2Ev@Base 2.0.0
 _ZN10tensorflow19AutoParallelOptionsD0Ev@Base 2.0.0
 _ZN10tensorflow19AutoParallelOptionsD1Ev@Base 2.0.0
 _ZN10tensorflow19AutoParallelOptionsD2Ev@Base 2.0.0
 _ZN10tensorflow19AvailableDeviceInfo12InternalSwapEPS0_@Base 2.0.0
 _ZN10tensorflow19AvailableDeviceInfo14_InternalParseEPKcPN6google8protobuf8internal12ParseContextE@Base 2.0.0
 _ZN10tensorflow19AvailableDeviceInfo16default_instanceEv@Base 2.0.0
 _ZN10tensorflow19AvailableDeviceInfo21InitAsDefaultInstanceEv@Base 2.0.0
 _ZN10tensorflow19AvailableDeviceInfo5ClearEv@Base 2.0.0
 _ZN10tensorflow19AvailableDeviceInfo8CopyFromERKN6google8protobuf7MessageE@Base 2.0.0
 _ZN10tensorflow19AvailableDeviceInfo8CopyFromERKS0_@Base 2.0.0
 _ZN10tensorflow19AvailableDeviceInfo9ArenaDtorEPv@Base 2.0.0
 _ZN10tensorflow19AvailableDeviceInfo9MergeFromERKN6google8protobuf7MessageE@Base 2.0.0
 _ZN10tensorflow19AvailableDeviceInfo9MergeFromERKS0_@Base 2.0.0
 _ZN10tensorflow19AvailableDeviceInfoC1EPN6google8protobuf5ArenaE@Base 2.0.0
 _ZN10tensorflow19AvailableDeviceInfoC1ERKS0_@Base 2.0.0
 _ZN10tensorflow19AvailableDeviceInfoC1Ev@Base 2.0.0
 _ZN10tensorflow19AvailableDeviceInfoC2EPN6google8protobuf5ArenaE@Base 2.0.0
 _ZN10tensorflow19AvailableDeviceInfoC2ERKS0_@Base 2.0.0
 _ZN10tensorflow19AvailableDeviceInfoC2Ev@Base 2.0.0
 _ZN10tensorflow19AvailableDeviceInfoD0Ev@Base 2.0.0
 _ZN10tensorflow19AvailableDeviceInfoD1Ev@Base 2.0.0
 _ZN10tensorflow19AvailableDeviceInfoD2Ev@Base 2.0.0
 _ZN10tensorflow19CancellationManager11StartCancelEv@Base 2.0.0
 _ZN10tensorflow19CancellationManager13kInvalidTokenE@Base 2.0.0
 _ZN10tensorflow19CancellationManager16RegisterCallbackExSt8functionIFvvEE@Base 2.0.0
 _ZN10tensorflow19CancellationManager18DeregisterCallbackEx@Base 2.0.0
 _ZN10tensorflow19CancellationManager21TryDeregisterCallbackEx@Base 2.0.0
 _ZN10tensorflow19CancellationManager22get_cancellation_tokenEv@Base 2.0.0
 _ZN10tensorflow19CancellationManagerC1Ev@Base 2.0.0
 _ZN10tensorflow19CancellationManagerC2Ev@Base 2.0.0
 _ZN10tensorflow19CancellationManagerD1Ev@Base 2.0.0
 _ZN10tensorflow19CancellationManagerD2Ev@Base 2.0.0
 _ZN10tensorflow19CudnnRnnUseAutotuneEv@Base 2.0.0
 _ZN10tensorflow19DataTypeSliceStringB5cxx11EN4absl4SpanIKNS_8DataTypeEEE@Base 2.0.0
 _ZN10tensorflow19DataType_descriptorEv@Base 2.0.0
 _ZN10tensorflow19DebuggedSourceFiles12InternalSwapEPS0_@Base 2.0.0
 _ZN10tensorflow19DebuggedSourceFiles14_InternalParseEPKcPN6google8protobuf8internal12ParseContextE@Base 2.0.0
 _ZN10tensorflow19DebuggedSourceFiles16default_instanceEv@Base 2.0.0
 _ZN10tensorflow19DebuggedSourceFiles21InitAsDefaultInstanceEv@Base 2.0.0
 _ZN10tensorflow19DebuggedSourceFiles5ClearEv@Base 2.0.0
 _ZN10tensorflow19DebuggedSourceFiles8CopyFromERKN6google8protobuf7MessageE@Base 2.0.0
 _ZN10tensorflow19DebuggedSourceFiles8CopyFromERKS0_@Base 2.0.0
 _ZN10tensorflow19DebuggedSourceFiles9ArenaDtorEPv@Base 2.0.0
 _ZN10tensorflow19DebuggedSourceFiles9MergeFromERKN6google8protobuf7MessageE@Base 2.0.0
 _ZN10tensorflow19DebuggedSourceFiles9MergeFromERKS0_@Base 2.0.0
 _ZN10tensorflow19DebuggedSourceFilesC1EPN6google8protobuf5ArenaE@Base 2.0.0
 _ZN10tensorflow19DebuggedSourceFilesC1ERKS0_@Base 2.0.0
 _ZN10tensorflow19DebuggedSourceFilesC1Ev@Base 2.0.0
 _ZN10tensorflow19DebuggedSourceFilesC2EPN6google8protobuf5ArenaE@Base 2.0.0
 _ZN10tensorflow19DebuggedSourceFilesC2ERKS0_@Base 2.0.0
 _ZN10tensorflow19DebuggedSourceFilesC2Ev@Base 2.0.0
 _ZN10tensorflow19DebuggedSourceFilesD0Ev@Base 2.0.0
 _ZN10tensorflow19DebuggedSourceFilesD1Ev@Base 2.0.0
 _ZN10tensorflow19DebuggedSourceFilesD2Ev@Base 2.0.0
 _ZN10tensorflow19DeviceResolverLocal10ClearCacheEv@Base 2.0.0
 _ZN10tensorflow19DeviceResolverLocal24GetDeviceAttributesAsyncERKNSt7__cxx1112basic_stringIcSt11char_traitsIcESaIcEEES8_PNS_16DeviceAttributesERKSt8functionIFvRKNS_6StatusEEE@Base 2.0.0
 _ZN10tensorflow19DeviceResolverLocal27GetAllDeviceAttributesAsyncERKSt6vectorINSt7__cxx1112basic_stringIcSt11char_traitsIcESaIcEEESaIS7_EESB_PS1_INS_16DeviceAttributesESaISC_EERKSt8functionIFvRKNS_6StatusEEE@Base 2.0.0
 _ZN10tensorflow19DeviceResolverLocal9ClearTaskERKNSt7__cxx1112basic_stringIcSt11char_traitsIcESaIcEEE@Base 2.0.0
 _ZN10tensorflow19DeviceResolverLocalD0Ev@Base 2.0.0
 _ZN10tensorflow19DeviceResolverLocalD1Ev@Base 2.0.0
 _ZN10tensorflow19DeviceResolverLocalD2Ev@Base 2.0.0
 _ZN10tensorflow19GetReversePostOrderERKNS_5GraphEPSt6vectorIPNS_4NodeESaIS5_EERKSt8functionIFbPKS4_SB_EERKS9_IFbRKNS_4EdgeEEE@Base 2.0.0
 _ZN10tensorflow19GpuManagedAllocator11AllocateRawEmm@Base 2.0.0
 _ZN10tensorflow19GpuManagedAllocator13DeallocateRawEPv@Base 2.0.0
 _ZN10tensorflow19GpuManagedAllocator4NameB5cxx11Ev@Base 2.0.0
 _ZN10tensorflow19GpuManagedAllocatorD0Ev@Base 2.0.0
 _ZN10tensorflow19GpuManagedAllocatorD1Ev@Base 2.0.0
 _ZN10tensorflow19GpuManagedAllocatorD2Ev@Base 2.0.0
 _ZN10tensorflow19GraphExecutionState10BuildGraphERKNS_17BuildGraphOptionsEPSt10unique_ptrINS_11ClientGraphESt14default_deleteIS5_EE@Base 2.0.0
 _ZN10tensorflow19GraphExecutionState10PruneGraphERKNS_17BuildGraphOptionsEPNS_5GraphEPNS_8subgraph20RewriteGraphMetadataE@Base 2.0.0
 _ZN10tensorflow19GraphExecutionState13InitBaseGraphEOSt10unique_ptrINS_5GraphESt14default_deleteIS2_EE@Base 2.0.0
 _ZN10tensorflow19GraphExecutionState13OptimizeGraphERKNS_17BuildGraphOptionsEPSt10unique_ptrINS_5GraphESt14default_deleteIS5_EEPS4_INS_25FunctionLibraryDefinitionES6_ISA_EE@Base 2.0.0
 _ZN10tensorflow19GraphExecutionState16MakeForBaseGraphEONS_8GraphDefERKNS_26GraphExecutionStateOptionsEPSt10unique_ptrIS0_St14default_deleteIS0_EE@Base 2.0.0
 _ZN10tensorflow19GraphExecutionState17SaveStatefulNodesEPNS_5GraphE@Base 2.0.0
 _ZN10tensorflow19GraphExecutionState18MakeForPrunedGraphERKS0_RKNS_26GraphExecutionStateOptionsERKNS_17BuildGraphOptionsEPSt10unique_ptrIS0_St14default_deleteIS0_EEPS9_INS_11ClientGraphESA_ISE_EE@Base 2.0.0
 _ZN10tensorflow19GraphExecutionState20RestoreStatefulNodesEPNS_5GraphE@Base 2.0.0
 _ZN10tensorflow19GraphExecutionStateC1EOSt10unique_ptrINS_8GraphDefESt14default_deleteIS2_EEOS1_INS_25FunctionLibraryDefinitionES3_IS7_EERKNS_26GraphExecutionStateOptionsE@Base 2.0.0
 _ZN10tensorflow19GraphExecutionStateC2EOSt10unique_ptrINS_8GraphDefESt14default_deleteIS2_EEOS1_INS_25FunctionLibraryDefinitionES3_IS7_EERKNS_26GraphExecutionStateOptionsE@Base 2.0.0
 _ZN10tensorflow19GraphExecutionStateD0Ev@Base 2.0.0
 _ZN10tensorflow19GraphExecutionStateD1Ev@Base 2.0.0
 _ZN10tensorflow19GraphExecutionStateD2Ev@Base 2.0.0
 _ZN10tensorflow19GuardedPhiloxRandom17ReserveSamples128Ex@Base 2.0.0
 _ZN10tensorflow19GuardedPhiloxRandom4InitENS_6random5ArrayIjLi4EEENS2_IjLi2EEE@Base 2.0.0
 _ZN10tensorflow19GuardedPhiloxRandom4InitEPNS_20OpKernelConstructionE@Base 2.0.0
 _ZN10tensorflow19GuardedPhiloxRandom4InitExx@Base 2.0.0
 _ZN10tensorflow19InstantiateFunctionERKNS_11FunctionDefENS_9AttrSliceESt8functionIFNS_6StatusERKNSt7__cxx1112basic_stringIcSt11char_traitsIcESaIcEEEPPKNS_5OpDefEEEPNS_19InstantiationResultE@Base 2.0.0
 _ZN10tensorflow19IsGoogleCudaEnabledEv@Base 2.0.0
 _ZN10tensorflow19LocalRendezvousImpl10StartAbortERKNS_6StatusE@Base 2.0.0
 _ZN10tensorflow19LocalRendezvousImpl4SendERKNS_10Rendezvous9ParsedKeyERKNS1_4ArgsERKNS_6TensorEb@Base 2.0.0
 _ZN10tensorflow19LocalRendezvousImpl9RecvAsyncERKNS_10Rendezvous9ParsedKeyERKNS1_4ArgsESt8functionIFvRKNS_6StatusES7_S7_RKNS_6TensorEbEE@Base 2.0.0
 _ZN10tensorflow19LocalRendezvousImplD0Ev@Base 2.0.0
 _ZN10tensorflow19LocalRendezvousImplD1Ev@Base 2.0.0
 _ZN10tensorflow19LocalRendezvousImplD2Ev@Base 2.0.0
 _ZN10tensorflow19MemmappedFileSystem10DeleteFileERKNSt7__cxx1112basic_stringIcSt11char_traitsIcESaIcEEE@Base 2.0.0
 _ZN10tensorflow19MemmappedFileSystem10FileExistsERKNSt7__cxx1112basic_stringIcSt11char_traitsIcESaIcEEE@Base 2.0.0
 _ZN10tensorflow19MemmappedFileSystem10RenameFileERKNSt7__cxx1112basic_stringIcSt11char_traitsIcESaIcEEES8_@Base 2.0.0
 _ZN10tensorflow19MemmappedFileSystem11GetChildrenERKNSt7__cxx1112basic_stringIcSt11char_traitsIcESaIcEEEPSt6vectorIS6_SaIS6_EE@Base 2.0.0
 _ZN10tensorflow19MemmappedFileSystem11GetFileSizeERKNSt7__cxx1112basic_stringIcSt11char_traitsIcESaIcEEEPy@Base 2.0.0
 _ZN10tensorflow19MemmappedFileSystem15NewWritableFileERKNSt7__cxx1112basic_stringIcSt11char_traitsIcESaIcEEEPSt10unique_ptrINS_12WritableFileESt14default_deleteISA_EE@Base 2.0.0
 _ZN10tensorflow19MemmappedFileSystem16GetMatchingPathsERKNSt7__cxx1112basic_stringIcSt11char_traitsIcESaIcEEEPSt6vectorIS6_SaIS6_EE@Base 2.0.0
 _ZN10tensorflow19MemmappedFileSystem17NewAppendableFileERKNSt7__cxx1112basic_stringIcSt11char_traitsIcESaIcEEEPSt10unique_ptrINS_12WritableFileESt14default_deleteISA_EE@Base 2.0.0
 _ZN10tensorflow19MemmappedFileSystem18InitializeFromFileEPNS_3EnvERKNSt7__cxx1112basic_stringIcSt11char_traitsIcESaIcEEE@Base 2.0.0
 _ZN10tensorflow19MemmappedFileSystem19NewRandomAccessFileERKNSt7__cxx1112basic_stringIcSt11char_traitsIcESaIcEEEPSt10unique_ptrINS_16RandomAccessFileESt14default_deleteISA_EE@Base 2.0.0
 _ZN10tensorflow19MemmappedFileSystem23kMemmappedPackagePrefixE@Base 2.0.0
 _ZN10tensorflow19MemmappedFileSystem26IsMemmappedPackageFilenameERKNSt7__cxx1112basic_stringIcSt11char_traitsIcESaIcEEE@Base 2.0.0
 _ZN10tensorflow19MemmappedFileSystem31NewReadOnlyMemoryRegionFromFileERKNSt7__cxx1112basic_stringIcSt11char_traitsIcESaIcEEEPSt10unique_ptrINS_20ReadOnlyMemoryRegionESt14default_deleteISA_EE@Base 2.0.0
 _ZN10tensorflow19MemmappedFileSystem32kMemmappedPackageDefaultGraphDefE@Base 2.0.0
 _ZN10tensorflow19MemmappedFileSystem36IsWellFormedMemmappedPackageFilenameERKNSt7__cxx1112basic_stringIcSt11char_traitsIcESaIcEEE@Base 2.0.0
 _ZN10tensorflow19MemmappedFileSystem4StatERKNSt7__cxx1112basic_stringIcSt11char_traitsIcESaIcEEEPNS_14FileStatisticsE@Base 2.0.0
 _ZN10tensorflow19MemmappedFileSystem9CreateDirERKNSt7__cxx1112basic_stringIcSt11char_traitsIcESaIcEEE@Base 2.0.0
 _ZN10tensorflow19MemmappedFileSystem9DeleteDirERKNSt7__cxx1112basic_stringIcSt11char_traitsIcESaIcEEE@Base 2.0.0
 _ZN10tensorflow19MemmappedFileSystemC1Ev@Base 2.0.0
 _ZN10tensorflow19MemmappedFileSystemC2Ev@Base 2.0.0
 _ZN10tensorflow19MemmappedFileSystemD0Ev@Base 2.0.0
 _ZN10tensorflow19MemmappedFileSystemD1Ev@Base 2.0.0
 _ZN10tensorflow19MemmappedFileSystemD2Ev@Base 2.0.0
 _ZN10tensorflow19MemoryTypeForOutputERKNS_10DeviceTypeEPKNS_5GraphEPKNS_4NodeEiPNS_10MemoryTypeE@Base 2.0.0
 _ZN10tensorflow19OpRegistryInterfaceD0Ev@Base 2.0.0
 _ZN10tensorflow19OpRegistryInterfaceD1Ev@Base 2.0.0
 _ZN10tensorflow19OpRegistryInterfaceD2Ev@Base 2.0.0
 _ZN10tensorflow19ParseEinsumEquationERKNSt7__cxx1112basic_stringIcSt11char_traitsIcESaIcEEEPN4absl13InlinedVectorIS5_Lm2ESaIS5_EEEPS5_@Base 2.0.0
 _ZN10tensorflow19ParseProtoUnlimitedEPN6google8protobuf11MessageLiteEPKvm@Base 2.0.0
 _ZN10tensorflow19ParseProtoUnlimitedEPN6google8protobuf11MessageLiteERKNSt7__cxx1112basic_stringIcSt11char_traitsIcESaIcEEE@Base 2.0.0
 _ZN10tensorflow19ReadInt64FromEnvVarEN4absl11string_viewExPx@Base 2.0.0
 _ZN10tensorflow19RemoveIdentityNodesEPNS_5GraphE@Base 2.0.0
 _ZN10tensorflow19RepeatedAttrDefHashERKN6google8protobuf16RepeatedPtrFieldINS_13OpDef_AttrDefEEE@Base 2.0.0
 _ZN10tensorflow19RepeatedNodeDefHashERKN6google8protobuf16RepeatedPtrFieldINS_7NodeDefEEERKNS_20EqualGraphDefOptionsE@Base 2.0.0
 _ZN10tensorflow19ResourceHandleProto12InternalSwapEPS0_@Base 2.0.0
 _ZN10tensorflow19ResourceHandleProto14_InternalParseEPKcPN6google8protobuf8internal12ParseContextE@Base 2.0.0
 _ZN10tensorflow19ResourceHandleProto16default_instanceEv@Base 2.0.0
 _ZN10tensorflow19ResourceHandleProto21InitAsDefaultInstanceEv@Base 2.0.0
 _ZN10tensorflow19ResourceHandleProto5ClearEv@Base 2.0.0
 _ZN10tensorflow19ResourceHandleProto8CopyFromERKN6google8protobuf7MessageE@Base 2.0.0
 _ZN10tensorflow19ResourceHandleProto8CopyFromERKS0_@Base 2.0.0
 _ZN10tensorflow19ResourceHandleProto9ArenaDtorEPv@Base 2.0.0
 _ZN10tensorflow19ResourceHandleProto9MergeFromERKN6google8protobuf7MessageE@Base 2.0.0
 _ZN10tensorflow19ResourceHandleProto9MergeFromERKS0_@Base 2.0.0
 _ZN10tensorflow19ResourceHandleProtoC1EPN6google8protobuf5ArenaE@Base 2.0.0
 _ZN10tensorflow19ResourceHandleProtoC1ERKS0_@Base 2.0.0
 _ZN10tensorflow19ResourceHandleProtoC1Ev@Base 2.0.0
 _ZN10tensorflow19ResourceHandleProtoC2EPN6google8protobuf5ArenaE@Base 2.0.0
 _ZN10tensorflow19ResourceHandleProtoC2ERKS0_@Base 2.0.0
 _ZN10tensorflow19ResourceHandleProtoC2Ev@Base 2.0.0
 _ZN10tensorflow19ResourceHandleProtoD0Ev@Base 2.0.0
 _ZN10tensorflow19ResourceHandleProtoD1Ev@Base 2.0.0
 _ZN10tensorflow19ResourceHandleProtoD2Ev@Base 2.0.0
 _ZN10tensorflow19ValidateMemoryTypesERKNS_10DeviceTypeEPKNS_5GraphE@Base 2.0.0
 _ZN10tensorflow19kColocationAttrNameE@Base 2.0.0
 _ZN10tensorflow20AddDefaultsToNodeDefERKNS_5OpDefEPNS_7NodeDefE@Base 2.0.0
 _ZN10tensorflow20AddSymbolicGradientsEN4absl4SpanIKNS_7NodeOutEEES4_S4_PSt6vectorIS2_SaIS2_EEPNS_5GraphE@Base 2.0.0
 _ZN10tensorflow20BuildControlFlowInfoEPKNS_5GraphEPSt6vectorINS_15ControlFlowInfoESaIS4_EEPS3_INSt7__cxx1112basic_stringIcSt11char_traitsIcESaIcEEESaISD_EE@Base 2.0.0
 _ZN10tensorflow20CopyIntoSparseTensorERKNS_6TensorEixPS0_S3_@Base 2.0.0
 _ZN10tensorflow20CudnnConvComputeModeEv@Base 2.0.0
 _ZN10tensorflow20DataTypeAlwaysOnHostENS_8DataTypeE@Base 2.0.0
 _ZN10tensorflow20EqualRepeatedNodeDefERKN6google8protobuf16RepeatedPtrFieldINS_7NodeDefEEES6_PNSt7__cxx1112basic_stringIcSt11char_traitsIcESaIcEEERKNS_20EqualGraphDefOptionsE@Base 2.0.0
 _ZN10tensorflow20FeatureConfiguration12InternalSwapEPS0_@Base 2.0.0
 _ZN10tensorflow20FeatureConfiguration12clear_configEv@Base 2.0.0
 _ZN10tensorflow20FeatureConfiguration14_InternalParseEPKcPN6google8protobuf8internal12ParseContextE@Base 2.0.0
 _ZN10tensorflow20FeatureConfiguration16default_instanceEv@Base 2.0.0
 _ZN10tensorflow20FeatureConfiguration21InitAsDefaultInstanceEv@Base 2.0.0
 _ZN10tensorflow20FeatureConfiguration29set_allocated_var_len_featureEPNS_18VarLenFeatureProtoE@Base 2.0.0
 _ZN10tensorflow20FeatureConfiguration31set_allocated_fixed_len_featureEPNS_20FixedLenFeatureProtoE@Base 2.0.0
 _ZN10tensorflow20FeatureConfiguration5ClearEv@Base 2.0.0
 _ZN10tensorflow20FeatureConfiguration8CopyFromERKN6google8protobuf7MessageE@Base 2.0.0
 _ZN10tensorflow20FeatureConfiguration8CopyFromERKS0_@Base 2.0.0
 _ZN10tensorflow20FeatureConfiguration9ArenaDtorEPv@Base 2.0.0
 _ZN10tensorflow20FeatureConfiguration9MergeFromERKN6google8protobuf7MessageE@Base 2.0.0
 _ZN10tensorflow20FeatureConfiguration9MergeFromERKS0_@Base 2.0.0
 _ZN10tensorflow20FeatureConfiguration9_Internal15var_len_featureEPKS0_@Base 2.0.0
 _ZN10tensorflow20FeatureConfiguration9_Internal17fixed_len_featureEPKS0_@Base 2.0.0
 _ZN10tensorflow20FeatureConfigurationC1EPN6google8protobuf5ArenaE@Base 2.0.0
 _ZN10tensorflow20FeatureConfigurationC1ERKS0_@Base 2.0.0
 _ZN10tensorflow20FeatureConfigurationC1Ev@Base 2.0.0
 _ZN10tensorflow20FeatureConfigurationC2EPN6google8protobuf5ArenaE@Base 2.0.0
 _ZN10tensorflow20FeatureConfigurationC2ERKS0_@Base 2.0.0
 _ZN10tensorflow20FeatureConfigurationC2Ev@Base 2.0.0
 _ZN10tensorflow20FeatureConfigurationD0Ev@Base 2.0.0
 _ZN10tensorflow20FeatureConfigurationD1Ev@Base 2.0.0
 _ZN10tensorflow20FeatureConfigurationD2Ev@Base 2.0.0
 _ZN10tensorflow20FixedLenFeatureProto11clear_shapeEv@Base 2.0.0
 _ZN10tensorflow20FixedLenFeatureProto12InternalSwapEPS0_@Base 2.0.0
 _ZN10tensorflow20FixedLenFeatureProto14_InternalParseEPKcPN6google8protobuf8internal12ParseContextE@Base 2.0.0
 _ZN10tensorflow20FixedLenFeatureProto16default_instanceEv@Base 2.0.0
 _ZN10tensorflow20FixedLenFeatureProto19clear_default_valueEv@Base 2.0.0
 _ZN10tensorflow20FixedLenFeatureProto21InitAsDefaultInstanceEv@Base 2.0.0
 _ZN10tensorflow20FixedLenFeatureProto32unsafe_arena_set_allocated_shapeEPNS_16TensorShapeProtoE@Base 2.0.0
 _ZN10tensorflow20FixedLenFeatureProto40unsafe_arena_set_allocated_default_valueEPNS_11TensorProtoE@Base 2.0.0
 _ZN10tensorflow20FixedLenFeatureProto5ClearEv@Base 2.0.0
 _ZN10tensorflow20FixedLenFeatureProto8CopyFromERKN6google8protobuf7MessageE@Base 2.0.0
 _ZN10tensorflow20FixedLenFeatureProto8CopyFromERKS0_@Base 2.0.0
 _ZN10tensorflow20FixedLenFeatureProto9ArenaDtorEPv@Base 2.0.0
 _ZN10tensorflow20FixedLenFeatureProto9MergeFromERKN6google8protobuf7MessageE@Base 2.0.0
 _ZN10tensorflow20FixedLenFeatureProto9MergeFromERKS0_@Base 2.0.0
 _ZN10tensorflow20FixedLenFeatureProto9_Internal13default_valueEPKS0_@Base 2.0.0
 _ZN10tensorflow20FixedLenFeatureProto9_Internal5shapeEPKS0_@Base 2.0.0
 _ZN10tensorflow20FixedLenFeatureProtoC1EPN6google8protobuf5ArenaE@Base 2.0.0
 _ZN10tensorflow20FixedLenFeatureProtoC1ERKS0_@Base 2.0.0
 _ZN10tensorflow20FixedLenFeatureProtoC1Ev@Base 2.0.0
 _ZN10tensorflow20FixedLenFeatureProtoC2EPN6google8protobuf5ArenaE@Base 2.0.0
 _ZN10tensorflow20FixedLenFeatureProtoC2ERKS0_@Base 2.0.0
 _ZN10tensorflow20FixedLenFeatureProtoC2Ev@Base 2.0.0
 _ZN10tensorflow20FixedLenFeatureProtoD0Ev@Base 2.0.0
 _ZN10tensorflow20FixedLenFeatureProtoD1Ev@Base 2.0.0
 _ZN10tensorflow20FixedLenFeatureProtoD2Ev@Base 2.0.0
 _ZN10tensorflow20FunctionDef_ArgAttrs10clear_attrEv@Base 2.0.0
 _ZN10tensorflow20FunctionDef_ArgAttrs12InternalSwapEPS0_@Base 2.0.0
 _ZN10tensorflow20FunctionDef_ArgAttrs14_InternalParseEPKcPN6google8protobuf8internal12ParseContextE@Base 2.0.0
 _ZN10tensorflow20FunctionDef_ArgAttrs16default_instanceEv@Base 2.0.0
 _ZN10tensorflow20FunctionDef_ArgAttrs21InitAsDefaultInstanceEv@Base 2.0.0
 _ZN10tensorflow20FunctionDef_ArgAttrs5ClearEv@Base 2.0.0
 _ZN10tensorflow20FunctionDef_ArgAttrs8CopyFromERKN6google8protobuf7MessageE@Base 2.0.0
 _ZN10tensorflow20FunctionDef_ArgAttrs8CopyFromERKS0_@Base 2.0.0
 _ZN10tensorflow20FunctionDef_ArgAttrs9ArenaDtorEPv@Base 2.0.0
 _ZN10tensorflow20FunctionDef_ArgAttrs9MergeFromERKN6google8protobuf7MessageE@Base 2.0.0
 _ZN10tensorflow20FunctionDef_ArgAttrs9MergeFromERKS0_@Base 2.0.0
 _ZN10tensorflow20FunctionDef_ArgAttrsC1EPN6google8protobuf5ArenaE@Base 2.0.0
 _ZN10tensorflow20FunctionDef_ArgAttrsC1ERKS0_@Base 2.0.0
 _ZN10tensorflow20FunctionDef_ArgAttrsC1Ev@Base 2.0.0
 _ZN10tensorflow20FunctionDef_ArgAttrsC2EPN6google8protobuf5ArenaE@Base 2.0.0
 _ZN10tensorflow20FunctionDef_ArgAttrsC2ERKS0_@Base 2.0.0
 _ZN10tensorflow20FunctionDef_ArgAttrsC2Ev@Base 2.0.0
 _ZN10tensorflow20FunctionDef_ArgAttrsD0Ev@Base 2.0.0
 _ZN10tensorflow20FunctionDef_ArgAttrsD1Ev@Base 2.0.0
 _ZN10tensorflow20FunctionDef_ArgAttrsD2Ev@Base 2.0.0
 _ZN10tensorflow20GPUNanResetAllocator10ClearStatsEv@Base 2.0.0
 _ZN10tensorflow20GPUNanResetAllocator11AllocateRawEmm@Base 2.0.0
 _ZN10tensorflow20GPUNanResetAllocator13DeallocateRawEPv@Base 2.0.0
 _ZN10tensorflow20GPUNanResetAllocator4NameB5cxx11Ev@Base 2.0.0
 _ZN10tensorflow20GPUNanResetAllocator8GetStatsEv@Base 2.0.0
 _ZN10tensorflow20GPUNanResetAllocatorC1EPNS_9AllocatorENS_3gtl7IntTypeINS_18PlatformGpuId_tag_EiEE@Base 2.0.0
 _ZN10tensorflow20GPUNanResetAllocatorC2EPNS_9AllocatorENS_3gtl7IntTypeINS_18PlatformGpuId_tag_EiEE@Base 2.0.0
 _ZN10tensorflow20GPUNanResetAllocatorD0Ev@Base 2.0.0
 _ZN10tensorflow20GPUNanResetAllocatorD1Ev@Base 2.0.0
 _ZN10tensorflow20GPUNanResetAllocatorD2Ev@Base 2.0.0
 _ZN10tensorflow20GetPaddingAttrStringB5cxx11Ev@Base 2.0.0
 _ZN10tensorflow20GlobalKernelRegistryEv@Base 2.0.0
 _ZN10tensorflow20HDFSRandomAccessFileD0Ev@Base 2.0.0
 _ZN10tensorflow20HDFSRandomAccessFileD1Ev@Base 2.0.0
 _ZN10tensorflow20HDFSRandomAccessFileD2Ev@Base 2.0.0
 _ZN10tensorflow20LocalPosixFileSystemD0Ev@Base 2.0.0
 _ZN10tensorflow20LocalPosixFileSystemD1Ev@Base 2.0.0
 _ZN10tensorflow20LocalPosixFileSystemD2Ev@Base 2.0.0
 _ZN10tensorflow20MachineConfiguration12InternalSwapEPS0_@Base 2.0.0
 _ZN10tensorflow20MachineConfiguration14_InternalParseEPKcPN6google8protobuf8internal12ParseContextE@Base 2.0.0
 _ZN10tensorflow20MachineConfiguration16default_instanceEv@Base 2.0.0
 _ZN10tensorflow20MachineConfiguration17clear_device_infoEv@Base 2.0.0
 _ZN10tensorflow20MachineConfiguration21InitAsDefaultInstanceEv@Base 2.0.0
 _ZN10tensorflow20MachineConfiguration35unsafe_arena_set_allocated_cpu_infoEPNS_7CPUInfoE@Base 2.0.0
 _ZN10tensorflow20MachineConfiguration38unsafe_arena_set_allocated_memory_infoEPNS_10MemoryInfoE@Base 2.0.0
 _ZN10tensorflow20MachineConfiguration40unsafe_arena_set_allocated_platform_infoEPNS_12PlatformInfoE@Base 2.0.0
 _ZN10tensorflow20MachineConfiguration5ClearEv@Base 2.0.0
 _ZN10tensorflow20MachineConfiguration8CopyFromERKN6google8protobuf7MessageE@Base 2.0.0
 _ZN10tensorflow20MachineConfiguration8CopyFromERKS0_@Base 2.0.0
 _ZN10tensorflow20MachineConfiguration9ArenaDtorEPv@Base 2.0.0
 _ZN10tensorflow20MachineConfiguration9MergeFromERKN6google8protobuf7MessageE@Base 2.0.0
 _ZN10tensorflow20MachineConfiguration9MergeFromERKS0_@Base 2.0.0
 _ZN10tensorflow20MachineConfiguration9_Internal11memory_infoEPKS0_@Base 2.0.0
 _ZN10tensorflow20MachineConfiguration9_Internal13platform_infoEPKS0_@Base 2.0.0
 _ZN10tensorflow20MachineConfiguration9_Internal8cpu_infoEPKS0_@Base 2.0.0
 _ZN10tensorflow20MachineConfigurationC1EPN6google8protobuf5ArenaE@Base 2.0.0
 _ZN10tensorflow20MachineConfigurationC1ERKS0_@Base 2.0.0
 _ZN10tensorflow20MachineConfigurationC1Ev@Base 2.0.0
 _ZN10tensorflow20MachineConfigurationC2EPN6google8protobuf5ArenaE@Base 2.0.0
 _ZN10tensorflow20MachineConfigurationC2ERKS0_@Base 2.0.0
 _ZN10tensorflow20MachineConfigurationC2Ev@Base 2.0.0
 _ZN10tensorflow20MachineConfigurationD0Ev@Base 2.0.0
 _ZN10tensorflow20MachineConfigurationD1Ev@Base 2.0.0
 _ZN10tensorflow20MachineConfigurationD2Ev@Base 2.0.0
 _ZN10tensorflow20MatmulAutotuneEnableEv@Base 2.0.0
 _ZN10tensorflow20NodeExecStatsWrapper12SetScheduledEx@Base 2.0.0
 _ZN10tensorflow20NodeExecStatsWrapper13AddAllocationEPNS_9AllocatorEPNS_17TrackingAllocatorE@Base 2.0.0
 _ZN10tensorflow20NodeExecStatsWrapper18RecordComputeEndedEv@Base 2.0.0
 _ZN10tensorflow20NodeExecStatsWrapper19RecordExecutorEndedEv@Base 2.0.0
 _ZN10tensorflow20NodeExecStatsWrapper20RecordComputeStartedEv@Base 2.0.0
 _ZN10tensorflow20NodeExecStatsWrapper20SetReferencedTensorsERKN4absl13InlinedVectorINS_15TensorReferenceELm4ESaIS3_EEE@Base 2.0.0
 _ZN10tensorflow20NodeExecStatsWrapper21RecordExecutorStartedEv@Base 2.0.0
 _ZN10tensorflow20NodeExecStatsWrapper4DoneERKNSt7__cxx1112basic_stringIcSt11char_traitsIcESaIcEEE@Base 2.0.0
 _ZN10tensorflow20NodeExecStatsWrapper8FinalizeEv@Base 2.0.0
 _ZN10tensorflow20NodeExecStatsWrapper9SetMemoryEPNS_15OpKernelContextE@Base 2.0.0
 _ZN10tensorflow20NodeExecStatsWrapper9SetOutputEiPKNS_6TensorE@Base 2.0.0
 _ZN10tensorflow20NodeExecStatsWrapperC1EPKNS_4NodeEPNS_18StepStatsCollectorE@Base 2.0.0
 _ZN10tensorflow20NodeExecStatsWrapperC1ESt10unique_ptrINS_13NodeExecStatsESt14default_deleteIS2_EEPKNS_4NodeEPNS_18StepStatsCollectorE@Base 2.0.0
 _ZN10tensorflow20NodeExecStatsWrapperC2EPKNS_4NodeEPNS_18StepStatsCollectorE@Base 2.0.0
 _ZN10tensorflow20NodeExecStatsWrapperC2ESt10unique_ptrINS_13NodeExecStatsESt14default_deleteIS2_EEPKNS_4NodeEPNS_18StepStatsCollectorE@Base 2.0.0
 _ZN10tensorflow20NodeExecStatsWrapperD0Ev@Base 2.0.0
 _ZN10tensorflow20NodeExecStatsWrapperD1Ev@Base 2.0.0
 _ZN10tensorflow20NodeExecStatsWrapperD2Ev@Base 2.0.0
 _ZN10tensorflow20OpKernelConstruction10CtxFailureEPKciRKNS_6StatusE@Base 2.0.0
 _ZN10tensorflow20OpKernelConstruction10CtxFailureERKNS_6StatusE@Base 2.0.0
 _ZN10tensorflow20OpKernelConstruction13allocate_tempENS_8DataTypeERKNS_11TensorShapeEPNS_6TensorE@Base 2.0.0
 _ZN10tensorflow20OpKernelConstruction14MatchSignatureEN4absl4SpanIKNS_8DataTypeEEES5_@Base 2.0.0
 _ZN10tensorflow20OpKernelConstruction19allocate_persistentENS_8DataTypeERKNS_11TensorShapeEPNS_16PersistentTensorEPPNS_6TensorE@Base 2.0.0
 _ZN10tensorflow20OpKernelConstruction21CtxFailureWithWarningEPKciRKNS_6StatusE@Base 2.0.0
 _ZN10tensorflow20OpKernelConstruction21CtxFailureWithWarningERKNS_6StatusE@Base 2.0.0
 _ZN10tensorflow20OpKernelConstruction9SetStatusERKNS_6StatusE@Base 2.0.0
 _ZN10tensorflow20OpKernelConstructionC1ENS_10DeviceTypeEPNS_10DeviceBaseEPNS_9AllocatorEPKNS_7NodeDefEPKNS_5OpDefEPNS_22FunctionLibraryRuntimeERKN4absl4SpanIKNS_8DataTypeEEERKNSF_IKNS_10MemoryTypeEEESK_SP_iPNS_6StatusE@Base 2.0.0
 _ZN10tensorflow20OpKernelConstructionC2ENS_10DeviceTypeEPNS_10DeviceBaseEPNS_9AllocatorEPKNS_7NodeDefEPKNS_5OpDefEPNS_22FunctionLibraryRuntimeERKN4absl4SpanIKNS_8DataTypeEEERKNSF_IKNS_10MemoryTypeEEESK_SP_iPNS_6StatusE@Base 2.0.0
 _ZN10tensorflow20ProtoParseFromStringERKNSt7__cxx1112basic_stringIcSt11char_traitsIcESaIcEEEPNS_10ApiDef_ArgE@Base 2.0.0
 _ZN10tensorflow20ProtoParseFromStringERKNSt7__cxx1112basic_stringIcSt11char_traitsIcESaIcEEEPNS_10ClusterDefE@Base 2.0.0
 _ZN10tensorflow20ProtoParseFromStringERKNSt7__cxx1112basic_stringIcSt11char_traitsIcESaIcEEEPNS_10GPUOptionsE@Base 2.0.0
 _ZN10tensorflow20ProtoParseFromStringERKNSt7__cxx1112basic_stringIcSt11char_traitsIcESaIcEEEPNS_10KernelListE@Base 2.0.0
 _ZN10tensorflow20ProtoParseFromStringERKNSt7__cxx1112basic_stringIcSt11char_traitsIcESaIcEEEPNS_10LocalLinksE@Base 2.0.0
 _ZN10tensorflow20ProtoParseFromStringERKNSt7__cxx1112basic_stringIcSt11char_traitsIcESaIcEEEPNS_10LogMessageE@Base 2.0.0
 _ZN10tensorflow20ProtoParseFromStringERKNSt7__cxx1112basic_stringIcSt11char_traitsIcESaIcEEEPNS_10NodeOutputE@Base 2.0.0
 _ZN10tensorflow20ProtoParseFromStringERKNSt7__cxx1112basic_stringIcSt11char_traitsIcESaIcEEEPNS_10RPCOptionsE@Base 2.0.0
 _ZN10tensorflow20ProtoParseFromStringERKNSt7__cxx1112basic_stringIcSt11char_traitsIcESaIcEEEPNS_10RunOptionsE@Base 2.0.0
 _ZN10tensorflow20ProtoParseFromStringERKNSt7__cxx1112basic_stringIcSt11char_traitsIcESaIcEEEPNS_10SavedSliceE@Base 2.0.0
 _ZN10tensorflow20ProtoParseFromStringERKNSt7__cxx1112basic_stringIcSt11char_traitsIcESaIcEEEPNS_10SessionLogE@Base 2.0.0
 _ZN10tensorflow20ProtoParseFromStringERKNSt7__cxx1112basic_stringIcSt11char_traitsIcESaIcEEEPNS_10VersionDefE@Base 2.0.0
 _ZN10tensorflow20ProtoParseFromStringERKNSt7__cxx1112basic_stringIcSt11char_traitsIcESaIcEEEPNS_11ApiDef_AttrE@Base 2.0.0
 _ZN10tensorflow20ProtoParseFromStringERKNSt7__cxx1112basic_stringIcSt11char_traitsIcESaIcEEEPNS_11ConfigProtoE@Base 2.0.0
 _ZN10tensorflow20ProtoParseFromStringERKNSt7__cxx1112basic_stringIcSt11char_traitsIcESaIcEEEPNS_11FeatureListE@Base 2.0.0
 _ZN10tensorflow20ProtoParseFromStringERKNSt7__cxx1112basic_stringIcSt11char_traitsIcESaIcEEEPNS_11FunctionDefE@Base 2.0.0
 _ZN10tensorflow20ProtoParseFromStringERKNSt7__cxx1112basic_stringIcSt11char_traitsIcESaIcEEEPNS_11GradientDefE@Base 2.0.0
 _ZN10tensorflow20ProtoParseFromStringERKNSt7__cxx1112basic_stringIcSt11char_traitsIcESaIcEEEPNS_11MemoryStatsE@Base 2.0.0
 _ZN10tensorflow20ProtoParseFromStringERKNSt7__cxx1112basic_stringIcSt11char_traitsIcESaIcEEEPNS_11NamedDeviceE@Base 2.0.0
 _ZN10tensorflow20ProtoParseFromStringERKNSt7__cxx1112basic_stringIcSt11char_traitsIcESaIcEEEPNS_11RunMetadataE@Base 2.0.0
 _ZN10tensorflow20ProtoParseFromStringERKNSt7__cxx1112basic_stringIcSt11char_traitsIcESaIcEEEPNS_11TensorProtoE@Base 2.0.0
 _ZN10tensorflow20ProtoParseFromStringERKNSt7__cxx1112basic_stringIcSt11char_traitsIcESaIcEEEPNS_11VariableDefE@Base 2.0.0
 _ZN10tensorflow20ProtoParseFromStringERKNSt7__cxx1112basic_stringIcSt11char_traitsIcESaIcEEEPNS_12CostGraphDefE@Base 2.0.0
 _ZN10tensorflow20ProtoParseFromStringERKNSt7__cxx1112basic_stringIcSt11char_traitsIcESaIcEEEPNS_12DebugOptionsE@Base 2.0.0
 _ZN10tensorflow20ProtoParseFromStringERKNSt7__cxx1112basic_stringIcSt11char_traitsIcESaIcEEEPNS_12FeatureListsE@Base 2.0.0
 _ZN10tensorflow20ProtoParseFromStringERKNSt7__cxx1112basic_stringIcSt11char_traitsIcESaIcEEEPNS_12GraphOptionsE@Base 2.0.0
 _ZN10tensorflow20ProtoParseFromStringERKNSt7__cxx1112basic_stringIcSt11char_traitsIcESaIcEEEPNS_12NameAttrListE@Base 2.0.0
 _ZN10tensorflow20ProtoParseFromStringERKNSt7__cxx1112basic_stringIcSt11char_traitsIcESaIcEEEPNS_12OpDef_ArgDefE@Base 2.0.0
 _ZN10tensorflow20ProtoParseFromStringERKNSt7__cxx1112basic_stringIcSt11char_traitsIcESaIcEEEPNS_13MemoryLogStepE@Base 2.0.0
 _ZN10tensorflow20ProtoParseFromStringERKNSt7__cxx1112basic_stringIcSt11char_traitsIcESaIcEEEPNS_13NodeExecStatsE@Base 2.0.0
 _ZN10tensorflow20ProtoParseFromStringERKNSt7__cxx1112basic_stringIcSt11char_traitsIcESaIcEEEPNS_13OpDef_AttrDefE@Base 2.0.0
 _ZN10tensorflow20ProtoParseFromStringERKNSt7__cxx1112basic_stringIcSt11char_traitsIcESaIcEEEPNS_13OpDeprecationE@Base 2.0.0
 _ZN10tensorflow20ProtoParseFromStringERKNSt7__cxx1112basic_stringIcSt11char_traitsIcESaIcEEEPNS_13Summary_AudioE@Base 2.0.0
 _ZN10tensorflow20ProtoParseFromStringERKNSt7__cxx1112basic_stringIcSt11char_traitsIcESaIcEEEPNS_13Summary_ImageE@Base 2.0.0
 _ZN10tensorflow20ProtoParseFromStringERKNSt7__cxx1112basic_stringIcSt11char_traitsIcESaIcEEEPNS_13Summary_ValueE@Base 2.0.0
 _ZN10tensorflow20ProtoParseFromStringERKNSt7__cxx1112basic_stringIcSt11char_traitsIcESaIcEEEPNS_14DeviceLocalityE@Base 2.0.0
 _ZN10tensorflow20ProtoParseFromStringERKNSt7__cxx1112basic_stringIcSt11char_traitsIcESaIcEEEPNS_14GraphDebugInfoE@Base 2.0.0
 _ZN10tensorflow20ProtoParseFromStringERKNSt7__cxx1112basic_stringIcSt11char_traitsIcESaIcEEEPNS_14HistogramProtoE@Base 2.0.0
 _ZN10tensorflow20ProtoParseFromStringERKNSt7__cxx1112basic_stringIcSt11char_traitsIcESaIcEEEPNS_14QueueRunnerDefE@Base 2.0.0
 _ZN10tensorflow20ProtoParseFromStringERKNSt7__cxx1112basic_stringIcSt11char_traitsIcESaIcEEEPNS_14RewriterConfigE@Base 2.0.0
 _ZN10tensorflow20ProtoParseFromStringERKNSt7__cxx1112basic_stringIcSt11char_traitsIcESaIcEEEPNS_14SavedSliceMetaE@Base 2.0.0
 _ZN10tensorflow20ProtoParseFromStringERKNSt7__cxx1112basic_stringIcSt11char_traitsIcESaIcEEEPNS_14VerifierConfigE@Base 2.0.0
 _ZN10tensorflow20ProtoParseFromStringERKNSt7__cxx1112basic_stringIcSt11char_traitsIcESaIcEEEPNS_14WatchdogConfigE@Base 2.0.0
 _ZN10tensorflow20ProtoParseFromStringERKNSt7__cxx1112basic_stringIcSt11char_traitsIcESaIcEEEPNS_15ApiDef_EndpointE@Base 2.0.0
 _ZN10tensorflow20ProtoParseFromStringERKNSt7__cxx1112basic_stringIcSt11char_traitsIcESaIcEEEPNS_15CallableOptionsE@Base 2.0.0
 _ZN10tensorflow20ProtoParseFromStringERKNSt7__cxx1112basic_stringIcSt11char_traitsIcESaIcEEEPNS_15DeviceStepStatsE@Base 2.0.0
 _ZN10tensorflow20ProtoParseFromStringERKNSt7__cxx1112basic_stringIcSt11char_traitsIcESaIcEEEPNS_15ReaderBaseStateE@Base 2.0.0
 _ZN10tensorflow20ProtoParseFromStringERKNSt7__cxx1112basic_stringIcSt11char_traitsIcESaIcEEEPNS_15SequenceExampleE@Base 2.0.0
 _ZN10tensorflow20ProtoParseFromStringERKNSt7__cxx1112basic_stringIcSt11char_traitsIcESaIcEEEPNS_15SessionMetadataE@Base 2.0.0
 _ZN10tensorflow20ProtoParseFromStringERKNSt7__cxx1112basic_stringIcSt11char_traitsIcESaIcEEEPNS_15SummaryMetadataE@Base 2.0.0
 _ZN10tensorflow20ProtoParseFromStringERKNSt7__cxx1112basic_stringIcSt11char_traitsIcESaIcEEEPNS_16AllocationRecordE@Base 2.0.0
 _ZN10tensorflow20ProtoParseFromStringERKNSt7__cxx1112basic_stringIcSt11char_traitsIcESaIcEEEPNS_16BundleEntryProtoE@Base 2.0.0
 _ZN10tensorflow20ProtoParseFromStringERKNSt7__cxx1112basic_stringIcSt11char_traitsIcESaIcEEEPNS_16DebugTensorWatchE@Base 2.0.0
 _ZN10tensorflow20ProtoParseFromStringERKNSt7__cxx1112basic_stringIcSt11char_traitsIcESaIcEEEPNS_16DeviceAttributesE@Base 2.0.0
 _ZN10tensorflow20ProtoParseFromStringERKNSt7__cxx1112basic_stringIcSt11char_traitsIcESaIcEEEPNS_16DevicePropertiesE@Base 2.0.0
 _ZN10tensorflow20ProtoParseFromStringERKNSt7__cxx1112basic_stringIcSt11char_traitsIcESaIcEEEPNS_16InterconnectLinkE@Base 2.0.0
 _ZN10tensorflow20ProtoParseFromStringERKNSt7__cxx1112basic_stringIcSt11char_traitsIcESaIcEEEPNS_16OptimizerOptionsE@Base 2.0.0
 _ZN10tensorflow20ProtoParseFromStringERKNSt7__cxx1112basic_stringIcSt11char_traitsIcESaIcEEEPNS_16SaveSliceInfoDefE@Base 2.0.0
 _ZN10tensorflow20ProtoParseFromStringERKNSt7__cxx1112basic_stringIcSt11char_traitsIcESaIcEEEPNS_16TensorConnectionE@Base 2.0.0
 _ZN10tensorflow20ProtoParseFromStringERKNSt7__cxx1112basic_stringIcSt11char_traitsIcESaIcEEEPNS_16TensorShapeProtoE@Base 2.0.0
 _ZN10tensorflow20ProtoParseFromStringERKNSt7__cxx1112basic_stringIcSt11char_traitsIcESaIcEEEPNS_16TensorSliceProtoE@Base 2.0.0
 _ZN10tensorflow20ProtoParseFromStringERKNSt7__cxx1112basic_stringIcSt11char_traitsIcESaIcEEEPNS_17BundleHeaderProtoE@Base 2.0.0
 _ZN10tensorflow20ProtoParseFromStringERKNSt7__cxx1112basic_stringIcSt11char_traitsIcESaIcEEEPNS_17CostGraphDef_NodeE@Base 2.0.0
 _ZN10tensorflow20ProtoParseFromStringERKNSt7__cxx1112basic_stringIcSt11char_traitsIcESaIcEEEPNS_17GraphTransferInfoE@Base 2.0.0
 _ZN10tensorflow20ProtoParseFromStringERKNSt7__cxx1112basic_stringIcSt11char_traitsIcESaIcEEEPNS_17SavedTensorSlicesE@Base 2.0.0
 _ZN10tensorflow20ProtoParseFromStringERKNSt7__cxx1112basic_stringIcSt11char_traitsIcESaIcEEEPNS_17TaggedRunMetadataE@Base 2.0.0
 _ZN10tensorflow20ProtoParseFromStringERKNSt7__cxx1112basic_stringIcSt11char_traitsIcESaIcEEEPNS_17TensorDescriptionE@Base 2.0.0
 _ZN10tensorflow20ProtoParseFromStringERKNSt7__cxx1112basic_stringIcSt11char_traitsIcESaIcEEEPNS_18DebuggedSourceFileE@Base 2.0.0
 _ZN10tensorflow20ProtoParseFromStringERKNSt7__cxx1112basic_stringIcSt11char_traitsIcESaIcEEEPNS_18FunctionDefLibraryE@Base 2.0.0
 _ZN10tensorflow20ProtoParseFromStringERKNSt7__cxx1112basic_stringIcSt11char_traitsIcESaIcEEEPNS_18SummaryDescriptionE@Base 2.0.0
 _ZN10tensorflow20ProtoParseFromStringERKNSt7__cxx1112basic_stringIcSt11char_traitsIcESaIcEEEPNS_19AllocatorMemoryUsedE@Base 2.0.0
 _ZN10tensorflow20ProtoParseFromStringERKNSt7__cxx1112basic_stringIcSt11char_traitsIcESaIcEEEPNS_19AttrValue_ListValueE@Base 2.0.0
 _ZN10tensorflow20ProtoParseFromStringERKNSt7__cxx1112basic_stringIcSt11char_traitsIcESaIcEEEPNS_19AutoParallelOptionsE@Base 2.0.0
 _ZN10tensorflow20ProtoParseFromStringERKNSt7__cxx1112basic_stringIcSt11char_traitsIcESaIcEEEPNS_19DebuggedSourceFilesE@Base 2.0.0
 _ZN10tensorflow20ProtoParseFromStringERKNSt7__cxx1112basic_stringIcSt11char_traitsIcESaIcEEEPNS_19ResourceHandleProtoE@Base 2.0.0
 _ZN10tensorflow20ProtoParseFromStringERKNSt7__cxx1112basic_stringIcSt11char_traitsIcESaIcEEEPNS_20FunctionDef_ArgAttrsE@Base 2.0.0
 _ZN10tensorflow20ProtoParseFromStringERKNSt7__cxx1112basic_stringIcSt11char_traitsIcESaIcEEEPNS_20SavedTensorSliceMetaE@Base 2.0.0
 _ZN10tensorflow20ProtoParseFromStringERKNSt7__cxx1112basic_stringIcSt11char_traitsIcESaIcEEEPNS_20TensorShapeProto_DimE@Base 2.0.0
 _ZN10tensorflow20ProtoParseFromStringERKNSt7__cxx1112basic_stringIcSt11char_traitsIcESaIcEEEPNS_21AllocationDescriptionE@Base 2.0.0
 _ZN10tensorflow20ProtoParseFromStringERKNSt7__cxx1112basic_stringIcSt11char_traitsIcESaIcEEEPNS_21GraphTransferNodeInfoE@Base 2.0.0
 _ZN10tensorflow20ProtoParseFromStringERKNSt7__cxx1112basic_stringIcSt11char_traitsIcESaIcEEEPNS_21MemoryLogTensorOutputE@Base 2.0.0
 _ZN10tensorflow20ProtoParseFromStringERKNSt7__cxx1112basic_stringIcSt11char_traitsIcESaIcEEEPNS_21ThreadPoolOptionProtoE@Base 2.0.0
 _ZN10tensorflow20ProtoParseFromStringERKNSt7__cxx1112basic_stringIcSt11char_traitsIcESaIcEEEPNS_22GraphTransferNodeInputE@Base 2.0.0
 _ZN10tensorflow20ProtoParseFromStringERKNSt7__cxx1112basic_stringIcSt11char_traitsIcESaIcEEEPNS_22MemoryLogRawAllocationE@Base 2.0.0
 _ZN10tensorflow20ProtoParseFromStringERKNSt7__cxx1112basic_stringIcSt11char_traitsIcESaIcEEEPNS_22ScopedAllocatorOptionsE@Base 2.0.0
 _ZN10tensorflow20ProtoParseFromStringERKNSt7__cxx1112basic_stringIcSt11char_traitsIcESaIcEEEPNS_22VariantTensorDataProtoE@Base 2.0.0
 _ZN10tensorflow20ProtoParseFromStringERKNSt7__cxx1112basic_stringIcSt11char_traitsIcESaIcEEEPNS_22WorkerHeartbeatRequestE@Base 2.0.0
 _ZN10tensorflow20ProtoParseFromStringERKNSt7__cxx1112basic_stringIcSt11char_traitsIcESaIcEEEPNS_23GPUOptions_ExperimentalE@Base 2.0.0
 _ZN10tensorflow20ProtoParseFromStringERKNSt7__cxx1112basic_stringIcSt11char_traitsIcESaIcEEEPNS_23RunOptions_ExperimentalE@Base 2.0.0
 _ZN10tensorflow20ProtoParseFromStringERKNSt7__cxx1112basic_stringIcSt11char_traitsIcESaIcEEEPNS_23TensorSliceProto_ExtentE@Base 2.0.0
 _ZN10tensorflow20ProtoParseFromStringERKNSt7__cxx1112basic_stringIcSt11char_traitsIcESaIcEEEPNS_23WorkerHeartbeatResponseE@Base 2.0.0
 _ZN10tensorflow20ProtoParseFromStringERKNSt7__cxx1112basic_stringIcSt11char_traitsIcESaIcEEEPNS_24ConfigProto_ExperimentalE@Base 2.0.0
 _ZN10tensorflow20ProtoParseFromStringERKNSt7__cxx1112basic_stringIcSt11char_traitsIcESaIcEEEPNS_24KernelDef_AttrConstraintE@Base 2.0.0
 _ZN10tensorflow20ProtoParseFromStringERKNSt7__cxx1112basic_stringIcSt11char_traitsIcESaIcEEEPNS_24MemoryLogRawDeallocationE@Base 2.0.0
 _ZN10tensorflow20ProtoParseFromStringERKNSt7__cxx1112basic_stringIcSt11char_traitsIcESaIcEEEPNS_25GraphDebugInfo_StackTraceE@Base 2.0.0
 _ZN10tensorflow20ProtoParseFromStringERKNSt7__cxx1112basic_stringIcSt11char_traitsIcESaIcEEEPNS_25MemoryLogTensorAllocationE@Base 2.0.0
 _ZN10tensorflow20ProtoParseFromStringERKNSt7__cxx1112basic_stringIcSt11char_traitsIcESaIcEEEPNS_26GraphDebugInfo_FileLineColE@Base 2.0.0
 _ZN10tensorflow20ProtoParseFromStringERKNSt7__cxx1112basic_stringIcSt11char_traitsIcESaIcEEEPNS_26GraphTransferConstNodeInfoE@Base 2.0.0
 _ZN10tensorflow20ProtoParseFromStringERKNSt7__cxx1112basic_stringIcSt11char_traitsIcESaIcEEEPNS_26GraphTransferNodeInputInfoE@Base 2.0.0
 _ZN10tensorflow20ProtoParseFromStringERKNSt7__cxx1112basic_stringIcSt11char_traitsIcESaIcEEEPNS_26RunMetadata_FunctionGraphsE@Base 2.0.0
 _ZN10tensorflow20ProtoParseFromStringERKNSt7__cxx1112basic_stringIcSt11char_traitsIcESaIcEEEPNS_26SummaryMetadata_PluginDataE@Base 2.0.0
 _ZN10tensorflow20ProtoParseFromStringERKNSt7__cxx1112basic_stringIcSt11char_traitsIcESaIcEEEPNS_27CostGraphDef_Node_InputInfoE@Base 2.0.0
 _ZN10tensorflow20ProtoParseFromStringERKNSt7__cxx1112basic_stringIcSt11char_traitsIcESaIcEEEPNS_27GraphTransferNodeOutputInfoE@Base 2.0.0
 _ZN10tensorflow20ProtoParseFromStringERKNSt7__cxx1112basic_stringIcSt11char_traitsIcESaIcEEEPNS_27MemoryLogTensorDeallocationE@Base 2.0.0
 _ZN10tensorflow20ProtoParseFromStringERKNSt7__cxx1112basic_stringIcSt11char_traitsIcESaIcEEEPNS_27RemoteFusedGraphExecuteInfoE@Base 2.0.0
 _ZN10tensorflow20ProtoParseFromStringERKNSt7__cxx1112basic_stringIcSt11char_traitsIcESaIcEEEPNS_28CostGraphDef_Node_OutputInfoE@Base 2.0.0
 _ZN10tensorflow20ProtoParseFromStringERKNSt7__cxx1112basic_stringIcSt11char_traitsIcESaIcEEEPNS_28MemmappedFileSystemDirectoryE@Base 2.0.0
 _ZN10tensorflow20ProtoParseFromStringERKNSt7__cxx1112basic_stringIcSt11char_traitsIcESaIcEEEPNS_29NodeDef_ExperimentalDebugInfoE@Base 2.0.0
 _ZN10tensorflow20ProtoParseFromStringERKNSt7__cxx1112basic_stringIcSt11char_traitsIcESaIcEEEPNS_31GraphTransferGraphInputNodeInfoE@Base 2.0.0
 _ZN10tensorflow20ProtoParseFromStringERKNSt7__cxx1112basic_stringIcSt11char_traitsIcESaIcEEEPNS_32GraphTransferGraphOutputNodeInfoE@Base 2.0.0
 _ZN10tensorflow20ProtoParseFromStringERKNSt7__cxx1112basic_stringIcSt11char_traitsIcESaIcEEEPNS_33ResourceHandleProto_DtypeAndShapeE@Base 2.0.0
 _ZN10tensorflow20ProtoParseFromStringERKNSt7__cxx1112basic_stringIcSt11char_traitsIcESaIcEEEPNS_35MemmappedFileSystemDirectoryElementE@Base 2.0.0
 _ZN10tensorflow20ProtoParseFromStringERKNSt7__cxx1112basic_stringIcSt11char_traitsIcESaIcEEEPNS_35RewriterConfig_CustomGraphOptimizerE@Base 2.0.0
 _ZN10tensorflow20ProtoParseFromStringERKNSt7__cxx1112basic_stringIcSt11char_traitsIcESaIcEEEPNS_38GPUOptions_Experimental_VirtualDevicesE@Base 2.0.0
 _ZN10tensorflow20ProtoParseFromStringERKNSt7__cxx1112basic_stringIcSt11char_traitsIcESaIcEEEPNS_48RemoteFusedGraphExecuteInfo_TensorShapeTypeProtoE@Base 2.0.0
 _ZN10tensorflow20ProtoParseFromStringERKNSt7__cxx1112basic_stringIcSt11char_traitsIcESaIcEEEPNS_5EventE@Base 2.0.0
 _ZN10tensorflow20ProtoParseFromStringERKNSt7__cxx1112basic_stringIcSt11char_traitsIcESaIcEEEPNS_5OpDefE@Base 2.0.0
 _ZN10tensorflow20ProtoParseFromStringERKNSt7__cxx1112basic_stringIcSt11char_traitsIcESaIcEEEPNS_6ApiDefE@Base 2.0.0
 _ZN10tensorflow20ProtoParseFromStringERKNSt7__cxx1112basic_stringIcSt11char_traitsIcESaIcEEEPNS_6JobDefE@Base 2.0.0
 _ZN10tensorflow20ProtoParseFromStringERKNSt7__cxx1112basic_stringIcSt11char_traitsIcESaIcEEEPNS_6OpListE@Base 2.0.0
 _ZN10tensorflow20ProtoParseFromStringERKNSt7__cxx1112basic_stringIcSt11char_traitsIcESaIcEEEPNS_7ApiDefsE@Base 2.0.0
 _ZN10tensorflow20ProtoParseFromStringERKNSt7__cxx1112basic_stringIcSt11char_traitsIcESaIcEEEPNS_7ExampleE@Base 2.0.0
 _ZN10tensorflow20ProtoParseFromStringERKNSt7__cxx1112basic_stringIcSt11char_traitsIcESaIcEEEPNS_7FeatureE@Base 2.0.0
 _ZN10tensorflow20ProtoParseFromStringERKNSt7__cxx1112basic_stringIcSt11char_traitsIcESaIcEEEPNS_7NodeDefE@Base 2.0.0
 _ZN10tensorflow20ProtoParseFromStringERKNSt7__cxx1112basic_stringIcSt11char_traitsIcESaIcEEEPNS_7SummaryE@Base 2.0.0
 _ZN10tensorflow20ProtoParseFromStringERKNSt7__cxx1112basic_stringIcSt11char_traitsIcESaIcEEEPNS_8FeaturesE@Base 2.0.0
 _ZN10tensorflow20ProtoParseFromStringERKNSt7__cxx1112basic_stringIcSt11char_traitsIcESaIcEEEPNS_8GraphDefE@Base 2.0.0
 _ZN10tensorflow20ProtoParseFromStringERKNSt7__cxx1112basic_stringIcSt11char_traitsIcESaIcEEEPNS_8SaverDefE@Base 2.0.0
 _ZN10tensorflow20ProtoParseFromStringERKNSt7__cxx1112basic_stringIcSt11char_traitsIcESaIcEEEPNS_9AttrValueE@Base 2.0.0
 _ZN10tensorflow20ProtoParseFromStringERKNSt7__cxx1112basic_stringIcSt11char_traitsIcESaIcEEEPNS_9BytesListE@Base 2.0.0
 _ZN10tensorflow20ProtoParseFromStringERKNSt7__cxx1112basic_stringIcSt11char_traitsIcESaIcEEEPNS_9FloatListE@Base 2.0.0
 _ZN10tensorflow20ProtoParseFromStringERKNSt7__cxx1112basic_stringIcSt11char_traitsIcESaIcEEEPNS_9Int64ListE@Base 2.0.0
 _ZN10tensorflow20ProtoParseFromStringERKNSt7__cxx1112basic_stringIcSt11char_traitsIcESaIcEEEPNS_9KernelDefE@Base 2.0.0
 _ZN10tensorflow20ProtoParseFromStringERKNSt7__cxx1112basic_stringIcSt11char_traitsIcESaIcEEEPNS_9StepStatsE@Base 2.0.0
 _ZN10tensorflow20ReadStringFromEnvVarEN4absl11string_viewES1_PNSt7__cxx1112basic_stringIcSt11char_traitsIcESaIcEEE@Base 2.0.0
 _ZN10tensorflow20ReffedStatusCallbackD0Ev@Base 2.0.0
 _ZN10tensorflow20ReffedStatusCallbackD1Ev@Base 2.0.0
 _ZN10tensorflow20ReffedStatusCallbackD2Ev@Base 2.0.0
 _ZN10tensorflow20RepeatedAttrDefEqualERKN6google8protobuf16RepeatedPtrFieldINS_13OpDef_AttrDefEEES6_@Base 2.0.0
 _ZN10tensorflow20ResourceHandlesShapeEPNS_15shape_inference16InferenceContextE@Base 2.0.0
 _ZN10tensorflow20SanitizeThreadSuffixENSt7__cxx1112basic_stringIcSt11char_traitsIcESaIcEEE@Base 2.0.0
 _ZN10tensorflow20SavedTensorSliceMeta12InternalSwapEPS0_@Base 2.0.0
 _ZN10tensorflow20SavedTensorSliceMeta14_InternalParseEPKcPN6google8protobuf8internal12ParseContextE@Base 2.0.0
 _ZN10tensorflow20SavedTensorSliceMeta14clear_versionsEv@Base 2.0.0
 _ZN10tensorflow20SavedTensorSliceMeta16default_instanceEv@Base 2.0.0
 _ZN10tensorflow20SavedTensorSliceMeta21InitAsDefaultInstanceEv@Base 2.0.0
 _ZN10tensorflow20SavedTensorSliceMeta35unsafe_arena_set_allocated_versionsEPNS_10VersionDefE@Base 2.0.0
 _ZN10tensorflow20SavedTensorSliceMeta5ClearEv@Base 2.0.0
 _ZN10tensorflow20SavedTensorSliceMeta8CopyFromERKN6google8protobuf7MessageE@Base 2.0.0
 _ZN10tensorflow20SavedTensorSliceMeta8CopyFromERKS0_@Base 2.0.0
 _ZN10tensorflow20SavedTensorSliceMeta9ArenaDtorEPv@Base 2.0.0
 _ZN10tensorflow20SavedTensorSliceMeta9MergeFromERKN6google8protobuf7MessageE@Base 2.0.0
 _ZN10tensorflow20SavedTensorSliceMeta9MergeFromERKS0_@Base 2.0.0
 _ZN10tensorflow20SavedTensorSliceMeta9_Internal8versionsEPKS0_@Base 2.0.0
 _ZN10tensorflow20SavedTensorSliceMetaC1EPN6google8protobuf5ArenaE@Base 2.0.0
 _ZN10tensorflow20SavedTensorSliceMetaC1ERKS0_@Base 2.0.0
 _ZN10tensorflow20SavedTensorSliceMetaC1Ev@Base 2.0.0
 _ZN10tensorflow20SavedTensorSliceMetaC2EPN6google8protobuf5ArenaE@Base 2.0.0
 _ZN10tensorflow20SavedTensorSliceMetaC2ERKS0_@Base 2.0.0
 _ZN10tensorflow20SavedTensorSliceMetaC2Ev@Base 2.0.0
 _ZN10tensorflow20SavedTensorSliceMetaD0Ev@Base 2.0.0
 _ZN10tensorflow20SavedTensorSliceMetaD1Ev@Base 2.0.0
 _ZN10tensorflow20SavedTensorSliceMetaD2Ev@Base 2.0.0
 _ZN10tensorflow20SummarizeAttrsHelperB5cxx11ENS_9AttrSliceEN4absl11string_viewE@Base 2.0.0
 _ZN10tensorflow20TensorInfo_CooSparse12InternalSwapEPS0_@Base 2.0.0
 _ZN10tensorflow20TensorInfo_CooSparse14_InternalParseEPKcPN6google8protobuf8internal12ParseContextE@Base 2.0.0
 _ZN10tensorflow20TensorInfo_CooSparse16default_instanceEv@Base 2.0.0
 _ZN10tensorflow20TensorInfo_CooSparse21InitAsDefaultInstanceEv@Base 2.0.0
 _ZN10tensorflow20TensorInfo_CooSparse5ClearEv@Base 2.0.0
 _ZN10tensorflow20TensorInfo_CooSparse8CopyFromERKN6google8protobuf7MessageE@Base 2.0.0
 _ZN10tensorflow20TensorInfo_CooSparse8CopyFromERKS0_@Base 2.0.0
 _ZN10tensorflow20TensorInfo_CooSparse9ArenaDtorEPv@Base 2.0.0
 _ZN10tensorflow20TensorInfo_CooSparse9MergeFromERKN6google8protobuf7MessageE@Base 2.0.0
 _ZN10tensorflow20TensorInfo_CooSparse9MergeFromERKS0_@Base 2.0.0
 _ZN10tensorflow20TensorInfo_CooSparseC1EPN6google8protobuf5ArenaE@Base 2.0.0
 _ZN10tensorflow20TensorInfo_CooSparseC1ERKS0_@Base 2.0.0
 _ZN10tensorflow20TensorInfo_CooSparseC1Ev@Base 2.0.0
 _ZN10tensorflow20TensorInfo_CooSparseC2EPN6google8protobuf5ArenaE@Base 2.0.0
 _ZN10tensorflow20TensorInfo_CooSparseC2ERKS0_@Base 2.0.0
 _ZN10tensorflow20TensorInfo_CooSparseC2Ev@Base 2.0.0
 _ZN10tensorflow20TensorInfo_CooSparseD0Ev@Base 2.0.0
 _ZN10tensorflow20TensorInfo_CooSparseD1Ev@Base 2.0.0
 _ZN10tensorflow20TensorInfo_CooSparseD2Ev@Base 2.0.0
 _ZN10tensorflow20TensorShapeProto_Dim12InternalSwapEPS0_@Base 2.0.0
 _ZN10tensorflow20TensorShapeProto_Dim14_InternalParseEPKcPN6google8protobuf8internal12ParseContextE@Base 2.0.0
 _ZN10tensorflow20TensorShapeProto_Dim16default_instanceEv@Base 2.0.0
 _ZN10tensorflow20TensorShapeProto_Dim21InitAsDefaultInstanceEv@Base 2.0.0
 _ZN10tensorflow20TensorShapeProto_Dim5ClearEv@Base 2.0.0
 _ZN10tensorflow20TensorShapeProto_Dim8CopyFromERKN6google8protobuf7MessageE@Base 2.0.0
 _ZN10tensorflow20TensorShapeProto_Dim8CopyFromERKS0_@Base 2.0.0
 _ZN10tensorflow20TensorShapeProto_Dim9ArenaDtorEPv@Base 2.0.0
 _ZN10tensorflow20TensorShapeProto_Dim9MergeFromERKN6google8protobuf7MessageE@Base 2.0.0
 _ZN10tensorflow20TensorShapeProto_Dim9MergeFromERKS0_@Base 2.0.0
 _ZN10tensorflow20TensorShapeProto_DimC1EPN6google8protobuf5ArenaE@Base 2.0.0
 _ZN10tensorflow20TensorShapeProto_DimC1ERKS0_@Base 2.0.0
 _ZN10tensorflow20TensorShapeProto_DimC1Ev@Base 2.0.0
 _ZN10tensorflow20TensorShapeProto_DimC2EPN6google8protobuf5ArenaE@Base 2.0.0
 _ZN10tensorflow20TensorShapeProto_DimC2ERKS0_@Base 2.0.0
 _ZN10tensorflow20TensorShapeProto_DimC2Ev@Base 2.0.0
 _ZN10tensorflow20TensorShapeProto_DimD0Ev@Base 2.0.0
 _ZN10tensorflow20TensorShapeProto_DimD1Ev@Base 2.0.0
 _ZN10tensorflow20TensorShapeProto_DimD2Ev@Base 2.0.0
 _ZN10tensorflow20TrackableObjectGraph12InternalSwapEPS0_@Base 2.0.0
 _ZN10tensorflow20TrackableObjectGraph14_InternalParseEPKcPN6google8protobuf8internal12ParseContextE@Base 2.0.0
 _ZN10tensorflow20TrackableObjectGraph16default_instanceEv@Base 2.0.0
 _ZN10tensorflow20TrackableObjectGraph21InitAsDefaultInstanceEv@Base 2.0.0
 _ZN10tensorflow20TrackableObjectGraph5ClearEv@Base 2.0.0
 _ZN10tensorflow20TrackableObjectGraph8CopyFromERKN6google8protobuf7MessageE@Base 2.0.0
 _ZN10tensorflow20TrackableObjectGraph8CopyFromERKS0_@Base 2.0.0
 _ZN10tensorflow20TrackableObjectGraph9ArenaDtorEPv@Base 2.0.0
 _ZN10tensorflow20TrackableObjectGraph9MergeFromERKN6google8protobuf7MessageE@Base 2.0.0
 _ZN10tensorflow20TrackableObjectGraph9MergeFromERKS0_@Base 2.0.0
 _ZN10tensorflow20TrackableObjectGraphC1EPN6google8protobuf5ArenaE@Base 2.0.0
 _ZN10tensorflow20TrackableObjectGraphC1ERKS0_@Base 2.0.0
 _ZN10tensorflow20TrackableObjectGraphC1Ev@Base 2.0.0
 _ZN10tensorflow20TrackableObjectGraphC2EPN6google8protobuf5ArenaE@Base 2.0.0
 _ZN10tensorflow20TrackableObjectGraphC2ERKS0_@Base 2.0.0
 _ZN10tensorflow20TrackableObjectGraphC2Ev@Base 2.0.0
 _ZN10tensorflow20TrackableObjectGraphD0Ev@Base 2.0.0
 _ZN10tensorflow20TrackableObjectGraphD1Ev@Base 2.0.0
 _ZN10tensorflow20TrackableObjectGraphD2Ev@Base 2.0.0
 _ZN10tensorflow20WorkerHealth_IsValidEi@Base 2.0.0
 _ZN10tensorflow20kTensorBundleVersionE@Base 2.0.0
 _ZN10tensorflow20register_file_system8RegisterINS_15PosixFileSystemEEC1EPNS_3EnvERKNSt7__cxx1112basic_stringIcSt11char_traitsIcESaIcEEE@Base 2.0.0
 _ZN10tensorflow20register_file_system8RegisterINS_15PosixFileSystemEEC2EPNS_3EnvERKNSt7__cxx1112basic_stringIcSt11char_traitsIcESaIcEEE@Base 2.0.0
 _ZN10tensorflow20register_file_system8RegisterINS_16HadoopFileSystemEEC1EPNS_3EnvERKNSt7__cxx1112basic_stringIcSt11char_traitsIcESaIcEEE@Base 2.0.0
 _ZN10tensorflow20register_file_system8RegisterINS_16HadoopFileSystemEEC2EPNS_3EnvERKNSt7__cxx1112basic_stringIcSt11char_traitsIcESaIcEEE@Base 2.0.0
 _ZN10tensorflow20register_file_system8RegisterINS_20LocalPosixFileSystemEEC1EPNS_3EnvERKNSt7__cxx1112basic_stringIcSt11char_traitsIcESaIcEEE@Base 2.0.0
 _ZN10tensorflow20register_file_system8RegisterINS_20LocalPosixFileSystemEEC2EPNS_3EnvERKNSt7__cxx1112basic_stringIcSt11char_traitsIcESaIcEEE@Base 2.0.0
 _ZN10tensorflow20register_file_system8RegisterINS_21RetryingGcsFileSystemEEC1EPNS_3EnvERKNSt7__cxx1112basic_stringIcSt11char_traitsIcESaIcEEE@Base 2.0.0
 _ZN10tensorflow20register_file_system8RegisterINS_21RetryingGcsFileSystemEEC2EPNS_3EnvERKNSt7__cxx1112basic_stringIcSt11char_traitsIcESaIcEEE@Base 2.0.0
 _ZN10tensorflow21AllocationDescription12InternalSwapEPS0_@Base 2.0.0
 _ZN10tensorflow21AllocationDescription14_InternalParseEPKcPN6google8protobuf8internal12ParseContextE@Base 2.0.0
 _ZN10tensorflow21AllocationDescription16default_instanceEv@Base 2.0.0
 _ZN10tensorflow21AllocationDescription21InitAsDefaultInstanceEv@Base 2.0.0
 _ZN10tensorflow21AllocationDescription5ClearEv@Base 2.0.0
 _ZN10tensorflow21AllocationDescription8CopyFromERKN6google8protobuf7MessageE@Base 2.0.0
 _ZN10tensorflow21AllocationDescription8CopyFromERKS0_@Base 2.0.0
 _ZN10tensorflow21AllocationDescription9ArenaDtorEPv@Base 2.0.0
 _ZN10tensorflow21AllocationDescription9MergeFromERKN6google8protobuf7MessageE@Base 2.0.0
 _ZN10tensorflow21AllocationDescription9MergeFromERKS0_@Base 2.0.0
 _ZN10tensorflow21AllocationDescriptionC1EPN6google8protobuf5ArenaE@Base 2.0.0
 _ZN10tensorflow21AllocationDescriptionC1ERKS0_@Base 2.0.0
 _ZN10tensorflow21AllocationDescriptionC1Ev@Base 2.0.0
 _ZN10tensorflow21AllocationDescriptionC2EPN6google8protobuf5ArenaE@Base 2.0.0
 _ZN10tensorflow21AllocationDescriptionC2ERKS0_@Base 2.0.0
 _ZN10tensorflow21AllocationDescriptionC2Ev@Base 2.0.0
 _ZN10tensorflow21AllocationDescriptionD0Ev@Base 2.0.0
 _ZN10tensorflow21AllocationDescriptionD1Ev@Base 2.0.0
 _ZN10tensorflow21AllocationDescriptionD2Ev@Base 2.0.0
 _ZN10tensorflow21CollectionDef_AnyList11clear_valueEv@Base 2.0.0
 _ZN10tensorflow21CollectionDef_AnyList12InternalSwapEPS0_@Base 2.0.0
 _ZN10tensorflow21CollectionDef_AnyList14_InternalParseEPKcPN6google8protobuf8internal12ParseContextE@Base 2.0.0
 _ZN10tensorflow21CollectionDef_AnyList16default_instanceEv@Base 2.0.0
 _ZN10tensorflow21CollectionDef_AnyList21InitAsDefaultInstanceEv@Base 2.0.0
 _ZN10tensorflow21CollectionDef_AnyList5ClearEv@Base 2.0.0
 _ZN10tensorflow21CollectionDef_AnyList8CopyFromERKN6google8protobuf7MessageE@Base 2.0.0
 _ZN10tensorflow21CollectionDef_AnyList8CopyFromERKS0_@Base 2.0.0
 _ZN10tensorflow21CollectionDef_AnyList9ArenaDtorEPv@Base 2.0.0
 _ZN10tensorflow21CollectionDef_AnyList9MergeFromERKN6google8protobuf7MessageE@Base 2.0.0
 _ZN10tensorflow21CollectionDef_AnyList9MergeFromERKS0_@Base 2.0.0
 _ZN10tensorflow21CollectionDef_AnyListC1EPN6google8protobuf5ArenaE@Base 2.0.0
 _ZN10tensorflow21CollectionDef_AnyListC1ERKS0_@Base 2.0.0
 _ZN10tensorflow21CollectionDef_AnyListC1Ev@Base 2.0.0
 _ZN10tensorflow21CollectionDef_AnyListC2EPN6google8protobuf5ArenaE@Base 2.0.0
 _ZN10tensorflow21CollectionDef_AnyListC2ERKS0_@Base 2.0.0
 _ZN10tensorflow21CollectionDef_AnyListC2Ev@Base 2.0.0
 _ZN10tensorflow21CollectionDef_AnyListD0Ev@Base 2.0.0
 _ZN10tensorflow21CollectionDef_AnyListD1Ev@Base 2.0.0
 _ZN10tensorflow21CollectionDef_AnyListD2Ev@Base 2.0.0
 _ZN10tensorflow21CollectiveExecutorMgr10NextStepIdEx@Base 2.0.0
 _ZN10tensorflow21CollectiveExecutorMgr12FindOrCreateEx@Base 2.0.0
 _ZN10tensorflow21CollectiveExecutorMgr12RetireStepIdExx@Base 2.0.0
 _ZN10tensorflow21CollectiveExecutorMgr20GetStepSequenceAsyncEPKNS_22GetStepSequenceRequestEPNS_23GetStepSequenceResponseERKSt8functionIFvRKNS_6StatusEEE@Base 2.0.0
 _ZN10tensorflow21CollectiveExecutorMgr26RefreshStepIdSequenceAsyncExRKSt8functionIFvRKNS_6StatusEEE@Base 2.0.0
 _ZN10tensorflow21CollectiveExecutorMgr6CreateEx@Base 2.0.0
 _ZN10tensorflow21CollectiveExecutorMgr7CleanupEx@Base 2.0.0
 _ZN10tensorflow21CollectiveExecutorMgrC1ERKNS_11ConfigProtoEPKNS_9DeviceMgrESt10unique_ptrINS_23DeviceResolverInterfaceESt14default_deleteIS8_EES7_INS_22ParamResolverInterfaceES9_ISC_EE@Base 2.0.0
 _ZN10tensorflow21CollectiveExecutorMgrC2ERKNS_11ConfigProtoEPKNS_9DeviceMgrESt10unique_ptrINS_23DeviceResolverInterfaceESt14default_deleteIS8_EES7_INS_22ParamResolverInterfaceES9_ISC_EE@Base 2.0.0
 _ZN10tensorflow21CollectiveExecutorMgrD0Ev@Base 2.0.0
 _ZN10tensorflow21CollectiveExecutorMgrD1Ev@Base 2.0.0
 _ZN10tensorflow21CollectiveExecutorMgrD2Ev@Base 2.0.0
 _ZN10tensorflow21ControlFlowContextDef10clear_ctxtEv@Base 2.0.0
 _ZN10tensorflow21ControlFlowContextDef12InternalSwapEPS0_@Base 2.0.0
 _ZN10tensorflow21ControlFlowContextDef14_InternalParseEPKcPN6google8protobuf8internal12ParseContextE@Base 2.0.0
 _ZN10tensorflow21ControlFlowContextDef16default_instanceEv@Base 2.0.0
 _ZN10tensorflow21ControlFlowContextDef21InitAsDefaultInstanceEv@Base 2.0.0
 _ZN10tensorflow21ControlFlowContextDef23set_allocated_cond_ctxtEPNS_14CondContextDefE@Base 2.0.0
 _ZN10tensorflow21ControlFlowContextDef24set_allocated_while_ctxtEPNS_15WhileContextDefE@Base 2.0.0
 _ZN10tensorflow21ControlFlowContextDef5ClearEv@Base 2.0.0
 _ZN10tensorflow21ControlFlowContextDef8CopyFromERKN6google8protobuf7MessageE@Base 2.0.0
 _ZN10tensorflow21ControlFlowContextDef8CopyFromERKS0_@Base 2.0.0
 _ZN10tensorflow21ControlFlowContextDef9ArenaDtorEPv@Base 2.0.0
 _ZN10tensorflow21ControlFlowContextDef9MergeFromERKN6google8protobuf7MessageE@Base 2.0.0
 _ZN10tensorflow21ControlFlowContextDef9MergeFromERKS0_@Base 2.0.0
 _ZN10tensorflow21ControlFlowContextDef9_Internal10while_ctxtEPKS0_@Base 2.0.0
 _ZN10tensorflow21ControlFlowContextDef9_Internal9cond_ctxtEPKS0_@Base 2.0.0
 _ZN10tensorflow21ControlFlowContextDefC1EPN6google8protobuf5ArenaE@Base 2.0.0
 _ZN10tensorflow21ControlFlowContextDefC1ERKS0_@Base 2.0.0
 _ZN10tensorflow21ControlFlowContextDefC1Ev@Base 2.0.0
 _ZN10tensorflow21ControlFlowContextDefC2EPN6google8protobuf5ArenaE@Base 2.0.0
 _ZN10tensorflow21ControlFlowContextDefC2ERKS0_@Base 2.0.0
 _ZN10tensorflow21ControlFlowContextDefC2Ev@Base 2.0.0
 _ZN10tensorflow21ControlFlowContextDefD0Ev@Base 2.0.0
 _ZN10tensorflow21ControlFlowContextDefD1Ev@Base 2.0.0
 _ZN10tensorflow21ControlFlowContextDefD2Ev@Base 2.0.0
 _ZN10tensorflow21CreateNonCachedKernelEPNS_6DeviceEPNS_22FunctionLibraryRuntimeERKNS_7NodeDefEiPPNS_8OpKernelE@Base 2.0.0
 _ZN10tensorflow21DebuggerStateRegistry11CreateStateERKNS_12DebugOptionsEPSt10unique_ptrINS_22DebuggerStateInterfaceESt14default_deleteIS5_EE@Base 2.0.0
 _ZN10tensorflow21DebuggerStateRegistry15RegisterFactoryERKSt8functionIFSt10unique_ptrINS_22DebuggerStateInterfaceESt14default_deleteIS3_EERKNS_12DebugOptionsEEE@Base 2.0.0
 _ZN10tensorflow21DebuggerStateRegistry8factory_E@Base 2.0.0
 _ZN10tensorflow21DeleteNonCachedKernelEPNS_8OpKernelE@Base 2.0.0
 _ZN10tensorflow21DumpFunctionDefToFileERKNSt7__cxx1112basic_stringIcSt11char_traitsIcESaIcEEERKNS_11FunctionDefES7_@Base 2.0.0
 _ZN10tensorflow21EnumName_WorkerHealthENS_12WorkerHealthE@Base 2.0.0
 _ZN10tensorflow21ExpandInlineFunctionsEPNS_22FunctionLibraryRuntimeEPNS_5GraphERKNS_28ExpandInlineFunctionsOptionsE@Base 2.0.0
 _ZN10tensorflow21FormatNodeDefForErrorB5cxx11EN4absl11string_viewEbRKNS_29NodeDef_ExperimentalDebugInfoE@Base 2.0.0
 _ZN10tensorflow21FormatNodeDefForErrorB5cxx11ERKNS_7NodeDefE@Base 2.0.0
 _ZN10tensorflow21FunctionNameGenerator7GetNameB5cxx11Ev@Base 2.0.0
 _ZN10tensorflow21GetSparseTensorShapesERKNS_13VarLenFeatureERKSt6vectorINS_6TensorESaIS4_EEiPNS_24VarLenFeatureBatchShapesE@Base 2.0.0
 _ZN10tensorflow21GetWindowedOutputSizeExxxNS_7PaddingEPxS1_@Base 2.0.0
 _ZN10tensorflow21GraphTransferNodeInfo12InternalSwapEPS0_@Base 2.0.0
 _ZN10tensorflow21GraphTransferNodeInfo14_InternalParseEPKcPN6google8protobuf8internal12ParseContextE@Base 2.0.0
 _ZN10tensorflow21GraphTransferNodeInfo16default_instanceEv@Base 2.0.0
 _ZN10tensorflow21GraphTransferNodeInfo21InitAsDefaultInstanceEv@Base 2.0.0
 _ZN10tensorflow21GraphTransferNodeInfo5ClearEv@Base 2.0.0
 _ZN10tensorflow21GraphTransferNodeInfo8CopyFromERKN6google8protobuf7MessageE@Base 2.0.0
 _ZN10tensorflow21GraphTransferNodeInfo8CopyFromERKS0_@Base 2.0.0
 _ZN10tensorflow21GraphTransferNodeInfo9ArenaDtorEPv@Base 2.0.0
 _ZN10tensorflow21GraphTransferNodeInfo9MergeFromERKN6google8protobuf7MessageE@Base 2.0.0
 _ZN10tensorflow21GraphTransferNodeInfo9MergeFromERKS0_@Base 2.0.0
 _ZN10tensorflow21GraphTransferNodeInfoC1EPN6google8protobuf5ArenaE@Base 2.0.0
 _ZN10tensorflow21GraphTransferNodeInfoC1ERKS0_@Base 2.0.0
 _ZN10tensorflow21GraphTransferNodeInfoC1Ev@Base 2.0.0
 _ZN10tensorflow21GraphTransferNodeInfoC2EPN6google8protobuf5ArenaE@Base 2.0.0
 _ZN10tensorflow21GraphTransferNodeInfoC2ERKS0_@Base 2.0.0
 _ZN10tensorflow21GraphTransferNodeInfoC2Ev@Base 2.0.0
 _ZN10tensorflow21GraphTransferNodeInfoD0Ev@Base 2.0.0
 _ZN10tensorflow21GraphTransferNodeInfoD1Ev@Base 2.0.0
 _ZN10tensorflow21GraphTransferNodeInfoD2Ev@Base 2.0.0
 _ZN10tensorflow21LogNormalDistribution12InternalSwapEPS0_@Base 2.0.0
 _ZN10tensorflow21LogNormalDistribution14_InternalParseEPKcPN6google8protobuf8internal12ParseContextE@Base 2.0.0
 _ZN10tensorflow21LogNormalDistribution16default_instanceEv@Base 2.0.0
 _ZN10tensorflow21LogNormalDistribution21InitAsDefaultInstanceEv@Base 2.0.0
 _ZN10tensorflow21LogNormalDistribution5ClearEv@Base 2.0.0
 _ZN10tensorflow21LogNormalDistribution8CopyFromERKN6google8protobuf7MessageE@Base 2.0.0
 _ZN10tensorflow21LogNormalDistribution8CopyFromERKS0_@Base 2.0.0
 _ZN10tensorflow21LogNormalDistribution9ArenaDtorEPv@Base 2.0.0
 _ZN10tensorflow21LogNormalDistribution9MergeFromERKN6google8protobuf7MessageE@Base 2.0.0
 _ZN10tensorflow21LogNormalDistribution9MergeFromERKS0_@Base 2.0.0
 _ZN10tensorflow21LogNormalDistributionC1EPN6google8protobuf5ArenaE@Base 2.0.0
 _ZN10tensorflow21LogNormalDistributionC1ERKS0_@Base 2.0.0
 _ZN10tensorflow21LogNormalDistributionC1Ev@Base 2.0.0
 _ZN10tensorflow21LogNormalDistributionC2EPN6google8protobuf5ArenaE@Base 2.0.0
 _ZN10tensorflow21LogNormalDistributionC2ERKS0_@Base 2.0.0
 _ZN10tensorflow21LogNormalDistributionC2Ev@Base 2.0.0
 _ZN10tensorflow21LogNormalDistributionD0Ev@Base 2.0.0
 _ZN10tensorflow21LogNormalDistributionD1Ev@Base 2.0.0
 _ZN10tensorflow21LogNormalDistributionD2Ev@Base 2.0.0
 _ZN10tensorflow21MakeCollectiveAdapterEPNS_6TensorEiPNS_9AllocatorEb@Base 2.0.0
 _ZN10tensorflow21MemoryLogTensorOutput12InternalSwapEPS0_@Base 2.0.0
 _ZN10tensorflow21MemoryLogTensorOutput12clear_tensorEv@Base 2.0.0
 _ZN10tensorflow21MemoryLogTensorOutput14_InternalParseEPKcPN6google8protobuf8internal12ParseContextE@Base 2.0.0
 _ZN10tensorflow21MemoryLogTensorOutput16default_instanceEv@Base 2.0.0
 _ZN10tensorflow21MemoryLogTensorOutput21InitAsDefaultInstanceEv@Base 2.0.0
 _ZN10tensorflow21MemoryLogTensorOutput33unsafe_arena_set_allocated_tensorEPNS_17TensorDescriptionE@Base 2.0.0
 _ZN10tensorflow21MemoryLogTensorOutput5ClearEv@Base 2.0.0
 _ZN10tensorflow21MemoryLogTensorOutput8CopyFromERKN6google8protobuf7MessageE@Base 2.0.0
 _ZN10tensorflow21MemoryLogTensorOutput8CopyFromERKS0_@Base 2.0.0
 _ZN10tensorflow21MemoryLogTensorOutput9ArenaDtorEPv@Base 2.0.0
 _ZN10tensorflow21MemoryLogTensorOutput9MergeFromERKN6google8protobuf7MessageE@Base 2.0.0
 _ZN10tensorflow21MemoryLogTensorOutput9MergeFromERKS0_@Base 2.0.0
 _ZN10tensorflow21MemoryLogTensorOutput9_Internal6tensorEPKS0_@Base 2.0.0
 _ZN10tensorflow21MemoryLogTensorOutputC1EPN6google8protobuf5ArenaE@Base 2.0.0
 _ZN10tensorflow21MemoryLogTensorOutputC1ERKS0_@Base 2.0.0
 _ZN10tensorflow21MemoryLogTensorOutputC1Ev@Base 2.0.0
 _ZN10tensorflow21MemoryLogTensorOutputC2EPN6google8protobuf5ArenaE@Base 2.0.0
 _ZN10tensorflow21MemoryLogTensorOutputC2ERKS0_@Base 2.0.0
 _ZN10tensorflow21MemoryLogTensorOutputC2Ev@Base 2.0.0
 _ZN10tensorflow21MemoryLogTensorOutputD0Ev@Base 2.0.0
 _ZN10tensorflow21MemoryLogTensorOutputD1Ev@Base 2.0.0
 _ZN10tensorflow21MemoryLogTensorOutputD2Ev@Base 2.0.0
 _ZN10tensorflow21PosixRandomAccessFileD0Ev@Base 2.0.0
 _ZN10tensorflow21PosixRandomAccessFileD1Ev@Base 2.0.0
 _ZN10tensorflow21PosixRandomAccessFileD2Ev@Base 2.0.0
 _ZN10tensorflow21ProtoShortDebugStringB5cxx11ERKNS_10ApiDef_ArgE@Base 2.0.0
 _ZN10tensorflow21ProtoShortDebugStringB5cxx11ERKNS_10ClusterDefE@Base 2.0.0
 _ZN10tensorflow21ProtoShortDebugStringB5cxx11ERKNS_10GPUOptionsE@Base 2.0.0
 _ZN10tensorflow21ProtoShortDebugStringB5cxx11ERKNS_10KernelListE@Base 2.0.0
 _ZN10tensorflow21ProtoShortDebugStringB5cxx11ERKNS_10LocalLinksE@Base 2.0.0
 _ZN10tensorflow21ProtoShortDebugStringB5cxx11ERKNS_10LogMessageE@Base 2.0.0
 _ZN10tensorflow21ProtoShortDebugStringB5cxx11ERKNS_10NodeOutputE@Base 2.0.0
 _ZN10tensorflow21ProtoShortDebugStringB5cxx11ERKNS_10RPCOptionsE@Base 2.0.0
 _ZN10tensorflow21ProtoShortDebugStringB5cxx11ERKNS_10RunOptionsE@Base 2.0.0
 _ZN10tensorflow21ProtoShortDebugStringB5cxx11ERKNS_10SavedSliceE@Base 2.0.0
 _ZN10tensorflow21ProtoShortDebugStringB5cxx11ERKNS_10SessionLogE@Base 2.0.0
 _ZN10tensorflow21ProtoShortDebugStringB5cxx11ERKNS_10VersionDefE@Base 2.0.0
 _ZN10tensorflow21ProtoShortDebugStringB5cxx11ERKNS_11ApiDef_AttrE@Base 2.0.0
 _ZN10tensorflow21ProtoShortDebugStringB5cxx11ERKNS_11ConfigProtoE@Base 2.0.0
 _ZN10tensorflow21ProtoShortDebugStringB5cxx11ERKNS_11FeatureListE@Base 2.0.0
 _ZN10tensorflow21ProtoShortDebugStringB5cxx11ERKNS_11FunctionDefE@Base 2.0.0
 _ZN10tensorflow21ProtoShortDebugStringB5cxx11ERKNS_11GradientDefE@Base 2.0.0
 _ZN10tensorflow21ProtoShortDebugStringB5cxx11ERKNS_11MemoryStatsE@Base 2.0.0
 _ZN10tensorflow21ProtoShortDebugStringB5cxx11ERKNS_11NamedDeviceE@Base 2.0.0
 _ZN10tensorflow21ProtoShortDebugStringB5cxx11ERKNS_11RunMetadataE@Base 2.0.0
 _ZN10tensorflow21ProtoShortDebugStringB5cxx11ERKNS_11TensorProtoE@Base 2.0.0
 _ZN10tensorflow21ProtoShortDebugStringB5cxx11ERKNS_11VariableDefE@Base 2.0.0
 _ZN10tensorflow21ProtoShortDebugStringB5cxx11ERKNS_12CostGraphDefE@Base 2.0.0
 _ZN10tensorflow21ProtoShortDebugStringB5cxx11ERKNS_12DebugOptionsE@Base 2.0.0
 _ZN10tensorflow21ProtoShortDebugStringB5cxx11ERKNS_12FeatureListsE@Base 2.0.0
 _ZN10tensorflow21ProtoShortDebugStringB5cxx11ERKNS_12GraphOptionsE@Base 2.0.0
 _ZN10tensorflow21ProtoShortDebugStringB5cxx11ERKNS_12NameAttrListE@Base 2.0.0
 _ZN10tensorflow21ProtoShortDebugStringB5cxx11ERKNS_12OpDef_ArgDefE@Base 2.0.0
 _ZN10tensorflow21ProtoShortDebugStringB5cxx11ERKNS_13MemoryLogStepE@Base 2.0.0
 _ZN10tensorflow21ProtoShortDebugStringB5cxx11ERKNS_13NodeExecStatsE@Base 2.0.0
 _ZN10tensorflow21ProtoShortDebugStringB5cxx11ERKNS_13OpDef_AttrDefE@Base 2.0.0
 _ZN10tensorflow21ProtoShortDebugStringB5cxx11ERKNS_13OpDeprecationE@Base 2.0.0
 _ZN10tensorflow21ProtoShortDebugStringB5cxx11ERKNS_13Summary_AudioE@Base 2.0.0
 _ZN10tensorflow21ProtoShortDebugStringB5cxx11ERKNS_13Summary_ImageE@Base 2.0.0
 _ZN10tensorflow21ProtoShortDebugStringB5cxx11ERKNS_13Summary_ValueE@Base 2.0.0
 _ZN10tensorflow21ProtoShortDebugStringB5cxx11ERKNS_14DeviceLocalityE@Base 2.0.0
 _ZN10tensorflow21ProtoShortDebugStringB5cxx11ERKNS_14GraphDebugInfoE@Base 2.0.0
 _ZN10tensorflow21ProtoShortDebugStringB5cxx11ERKNS_14HistogramProtoE@Base 2.0.0
 _ZN10tensorflow21ProtoShortDebugStringB5cxx11ERKNS_14QueueRunnerDefE@Base 2.0.0
 _ZN10tensorflow21ProtoShortDebugStringB5cxx11ERKNS_14RewriterConfigE@Base 2.0.0
 _ZN10tensorflow21ProtoShortDebugStringB5cxx11ERKNS_14SavedSliceMetaE@Base 2.0.0
 _ZN10tensorflow21ProtoShortDebugStringB5cxx11ERKNS_14VerifierConfigE@Base 2.0.0
 _ZN10tensorflow21ProtoShortDebugStringB5cxx11ERKNS_14WatchdogConfigE@Base 2.0.0
 _ZN10tensorflow21ProtoShortDebugStringB5cxx11ERKNS_15ApiDef_EndpointE@Base 2.0.0
 _ZN10tensorflow21ProtoShortDebugStringB5cxx11ERKNS_15CallableOptionsE@Base 2.0.0
 _ZN10tensorflow21ProtoShortDebugStringB5cxx11ERKNS_15DeviceStepStatsE@Base 2.0.0
 _ZN10tensorflow21ProtoShortDebugStringB5cxx11ERKNS_15ReaderBaseStateE@Base 2.0.0
 _ZN10tensorflow21ProtoShortDebugStringB5cxx11ERKNS_15SequenceExampleE@Base 2.0.0
 _ZN10tensorflow21ProtoShortDebugStringB5cxx11ERKNS_15SessionMetadataE@Base 2.0.0
 _ZN10tensorflow21ProtoShortDebugStringB5cxx11ERKNS_15SummaryMetadataE@Base 2.0.0
 _ZN10tensorflow21ProtoShortDebugStringB5cxx11ERKNS_16AllocationRecordE@Base 2.0.0
 _ZN10tensorflow21ProtoShortDebugStringB5cxx11ERKNS_16BundleEntryProtoE@Base 2.0.0
 _ZN10tensorflow21ProtoShortDebugStringB5cxx11ERKNS_16DebugTensorWatchE@Base 2.0.0
 _ZN10tensorflow21ProtoShortDebugStringB5cxx11ERKNS_16DeviceAttributesE@Base 2.0.0
 _ZN10tensorflow21ProtoShortDebugStringB5cxx11ERKNS_16DevicePropertiesE@Base 2.0.0
 _ZN10tensorflow21ProtoShortDebugStringB5cxx11ERKNS_16InterconnectLinkE@Base 2.0.0
 _ZN10tensorflow21ProtoShortDebugStringB5cxx11ERKNS_16OptimizerOptionsE@Base 2.0.0
 _ZN10tensorflow21ProtoShortDebugStringB5cxx11ERKNS_16SaveSliceInfoDefE@Base 2.0.0
 _ZN10tensorflow21ProtoShortDebugStringB5cxx11ERKNS_16TensorConnectionE@Base 2.0.0
 _ZN10tensorflow21ProtoShortDebugStringB5cxx11ERKNS_16TensorShapeProtoE@Base 2.0.0
 _ZN10tensorflow21ProtoShortDebugStringB5cxx11ERKNS_16TensorSliceProtoE@Base 2.0.0
 _ZN10tensorflow21ProtoShortDebugStringB5cxx11ERKNS_17BundleHeaderProtoE@Base 2.0.0
 _ZN10tensorflow21ProtoShortDebugStringB5cxx11ERKNS_17CostGraphDef_NodeE@Base 2.0.0
 _ZN10tensorflow21ProtoShortDebugStringB5cxx11ERKNS_17GraphTransferInfoE@Base 2.0.0
 _ZN10tensorflow21ProtoShortDebugStringB5cxx11ERKNS_17SavedTensorSlicesE@Base 2.0.0
 _ZN10tensorflow21ProtoShortDebugStringB5cxx11ERKNS_17TaggedRunMetadataE@Base 2.0.0
 _ZN10tensorflow21ProtoShortDebugStringB5cxx11ERKNS_17TensorDescriptionE@Base 2.0.0
 _ZN10tensorflow21ProtoShortDebugStringB5cxx11ERKNS_18DebuggedSourceFileE@Base 2.0.0
 _ZN10tensorflow21ProtoShortDebugStringB5cxx11ERKNS_18FunctionDefLibraryE@Base 2.0.0
 _ZN10tensorflow21ProtoShortDebugStringB5cxx11ERKNS_18SummaryDescriptionE@Base 2.0.0
 _ZN10tensorflow21ProtoShortDebugStringB5cxx11ERKNS_19AllocatorMemoryUsedE@Base 2.0.0
 _ZN10tensorflow21ProtoShortDebugStringB5cxx11ERKNS_19AttrValue_ListValueE@Base 2.0.0
 _ZN10tensorflow21ProtoShortDebugStringB5cxx11ERKNS_19AutoParallelOptionsE@Base 2.0.0
 _ZN10tensorflow21ProtoShortDebugStringB5cxx11ERKNS_19DebuggedSourceFilesE@Base 2.0.0
 _ZN10tensorflow21ProtoShortDebugStringB5cxx11ERKNS_19ResourceHandleProtoE@Base 2.0.0
 _ZN10tensorflow21ProtoShortDebugStringB5cxx11ERKNS_20FunctionDef_ArgAttrsE@Base 2.0.0
 _ZN10tensorflow21ProtoShortDebugStringB5cxx11ERKNS_20SavedTensorSliceMetaE@Base 2.0.0
 _ZN10tensorflow21ProtoShortDebugStringB5cxx11ERKNS_20TensorShapeProto_DimE@Base 2.0.0
 _ZN10tensorflow21ProtoShortDebugStringB5cxx11ERKNS_21AllocationDescriptionE@Base 2.0.0
 _ZN10tensorflow21ProtoShortDebugStringB5cxx11ERKNS_21GraphTransferNodeInfoE@Base 2.0.0
 _ZN10tensorflow21ProtoShortDebugStringB5cxx11ERKNS_21MemoryLogTensorOutputE@Base 2.0.0
 _ZN10tensorflow21ProtoShortDebugStringB5cxx11ERKNS_21ThreadPoolOptionProtoE@Base 2.0.0
 _ZN10tensorflow21ProtoShortDebugStringB5cxx11ERKNS_22GraphTransferNodeInputE@Base 2.0.0
 _ZN10tensorflow21ProtoShortDebugStringB5cxx11ERKNS_22MemoryLogRawAllocationE@Base 2.0.0
 _ZN10tensorflow21ProtoShortDebugStringB5cxx11ERKNS_22ScopedAllocatorOptionsE@Base 2.0.0
 _ZN10tensorflow21ProtoShortDebugStringB5cxx11ERKNS_22VariantTensorDataProtoE@Base 2.0.0
 _ZN10tensorflow21ProtoShortDebugStringB5cxx11ERKNS_22WorkerHeartbeatRequestE@Base 2.0.0
 _ZN10tensorflow21ProtoShortDebugStringB5cxx11ERKNS_23GPUOptions_ExperimentalE@Base 2.0.0
 _ZN10tensorflow21ProtoShortDebugStringB5cxx11ERKNS_23RunOptions_ExperimentalE@Base 2.0.0
 _ZN10tensorflow21ProtoShortDebugStringB5cxx11ERKNS_23TensorSliceProto_ExtentE@Base 2.0.0
 _ZN10tensorflow21ProtoShortDebugStringB5cxx11ERKNS_23WorkerHeartbeatResponseE@Base 2.0.0
 _ZN10tensorflow21ProtoShortDebugStringB5cxx11ERKNS_24ConfigProto_ExperimentalE@Base 2.0.0
 _ZN10tensorflow21ProtoShortDebugStringB5cxx11ERKNS_24KernelDef_AttrConstraintE@Base 2.0.0
 _ZN10tensorflow21ProtoShortDebugStringB5cxx11ERKNS_24MemoryLogRawDeallocationE@Base 2.0.0
 _ZN10tensorflow21ProtoShortDebugStringB5cxx11ERKNS_25GraphDebugInfo_StackTraceE@Base 2.0.0
 _ZN10tensorflow21ProtoShortDebugStringB5cxx11ERKNS_25MemoryLogTensorAllocationE@Base 2.0.0
 _ZN10tensorflow21ProtoShortDebugStringB5cxx11ERKNS_26GraphDebugInfo_FileLineColE@Base 2.0.0
 _ZN10tensorflow21ProtoShortDebugStringB5cxx11ERKNS_26GraphTransferConstNodeInfoE@Base 2.0.0
 _ZN10tensorflow21ProtoShortDebugStringB5cxx11ERKNS_26GraphTransferNodeInputInfoE@Base 2.0.0
 _ZN10tensorflow21ProtoShortDebugStringB5cxx11ERKNS_26RunMetadata_FunctionGraphsE@Base 2.0.0
 _ZN10tensorflow21ProtoShortDebugStringB5cxx11ERKNS_26SummaryMetadata_PluginDataE@Base 2.0.0
 _ZN10tensorflow21ProtoShortDebugStringB5cxx11ERKNS_27CostGraphDef_Node_InputInfoE@Base 2.0.0
 _ZN10tensorflow21ProtoShortDebugStringB5cxx11ERKNS_27GraphTransferNodeOutputInfoE@Base 2.0.0
 _ZN10tensorflow21ProtoShortDebugStringB5cxx11ERKNS_27MemoryLogTensorDeallocationE@Base 2.0.0
 _ZN10tensorflow21ProtoShortDebugStringB5cxx11ERKNS_27RemoteFusedGraphExecuteInfoE@Base 2.0.0
 _ZN10tensorflow21ProtoShortDebugStringB5cxx11ERKNS_28CostGraphDef_Node_OutputInfoE@Base 2.0.0
 _ZN10tensorflow21ProtoShortDebugStringB5cxx11ERKNS_28MemmappedFileSystemDirectoryE@Base 2.0.0
 _ZN10tensorflow21ProtoShortDebugStringB5cxx11ERKNS_29NodeDef_ExperimentalDebugInfoE@Base 2.0.0
 _ZN10tensorflow21ProtoShortDebugStringB5cxx11ERKNS_31GraphTransferGraphInputNodeInfoE@Base 2.0.0
 _ZN10tensorflow21ProtoShortDebugStringB5cxx11ERKNS_32GraphTransferGraphOutputNodeInfoE@Base 2.0.0
 _ZN10tensorflow21ProtoShortDebugStringB5cxx11ERKNS_33ResourceHandleProto_DtypeAndShapeE@Base 2.0.0
 _ZN10tensorflow21ProtoShortDebugStringB5cxx11ERKNS_35MemmappedFileSystemDirectoryElementE@Base 2.0.0
 _ZN10tensorflow21ProtoShortDebugStringB5cxx11ERKNS_35RewriterConfig_CustomGraphOptimizerE@Base 2.0.0
 _ZN10tensorflow21ProtoShortDebugStringB5cxx11ERKNS_38GPUOptions_Experimental_VirtualDevicesE@Base 2.0.0
 _ZN10tensorflow21ProtoShortDebugStringB5cxx11ERKNS_48RemoteFusedGraphExecuteInfo_TensorShapeTypeProtoE@Base 2.0.0
 _ZN10tensorflow21ProtoShortDebugStringB5cxx11ERKNS_5EventE@Base 2.0.0
 _ZN10tensorflow21ProtoShortDebugStringB5cxx11ERKNS_5OpDefE@Base 2.0.0
 _ZN10tensorflow21ProtoShortDebugStringB5cxx11ERKNS_6ApiDefE@Base 2.0.0
 _ZN10tensorflow21ProtoShortDebugStringB5cxx11ERKNS_6JobDefE@Base 2.0.0
 _ZN10tensorflow21ProtoShortDebugStringB5cxx11ERKNS_6OpListE@Base 2.0.0
 _ZN10tensorflow21ProtoShortDebugStringB5cxx11ERKNS_7ApiDefsE@Base 2.0.0
 _ZN10tensorflow21ProtoShortDebugStringB5cxx11ERKNS_7ExampleE@Base 2.0.0
 _ZN10tensorflow21ProtoShortDebugStringB5cxx11ERKNS_7FeatureE@Base 2.0.0
 _ZN10tensorflow21ProtoShortDebugStringB5cxx11ERKNS_7NodeDefE@Base 2.0.0
 _ZN10tensorflow21ProtoShortDebugStringB5cxx11ERKNS_7SummaryE@Base 2.0.0
 _ZN10tensorflow21ProtoShortDebugStringB5cxx11ERKNS_8FeaturesE@Base 2.0.0
 _ZN10tensorflow21ProtoShortDebugStringB5cxx11ERKNS_8GraphDefE@Base 2.0.0
 _ZN10tensorflow21ProtoShortDebugStringB5cxx11ERKNS_8SaverDefE@Base 2.0.0
 _ZN10tensorflow21ProtoShortDebugStringB5cxx11ERKNS_9AttrValueE@Base 2.0.0
 _ZN10tensorflow21ProtoShortDebugStringB5cxx11ERKNS_9BytesListE@Base 2.0.0
 _ZN10tensorflow21ProtoShortDebugStringB5cxx11ERKNS_9FloatListE@Base 2.0.0
 _ZN10tensorflow21ProtoShortDebugStringB5cxx11ERKNS_9Int64ListE@Base 2.0.0
 _ZN10tensorflow21ProtoShortDebugStringB5cxx11ERKNS_9KernelDefE@Base 2.0.0
 _ZN10tensorflow21ProtoShortDebugStringB5cxx11ERKNS_9StepStatsE@Base 2.0.0
 _ZN10tensorflow21ReadTextOrBinaryProtoEPNS_3EnvERKNSt7__cxx1112basic_stringIcSt11char_traitsIcESaIcEEEPN6google8protobuf7MessageE@Base 2.0.0
 _ZN10tensorflow21RetryingGcsFileSystemD0Ev@Base 2.0.0
 _ZN10tensorflow21RetryingGcsFileSystemD1Ev@Base 2.0.0
 _ZN10tensorflow21RetryingGcsFileSystemD2Ev@Base 2.0.0
 _ZN10tensorflow21SavedConcreteFunction12InternalSwapEPS0_@Base 2.0.0
 _ZN10tensorflow21SavedConcreteFunction14_InternalParseEPKcPN6google8protobuf8internal12ParseContextE@Base 2.0.0
 _ZN10tensorflow21SavedConcreteFunction16default_instanceEv@Base 2.0.0
 _ZN10tensorflow21SavedConcreteFunction21InitAsDefaultInstanceEv@Base 2.0.0
 _ZN10tensorflow21SavedConcreteFunction22clear_output_signatureEv@Base 2.0.0
 _ZN10tensorflow21SavedConcreteFunction35clear_canonicalized_input_signatureEv@Base 2.0.0
 _ZN10tensorflow21SavedConcreteFunction43unsafe_arena_set_allocated_output_signatureEPNS_15StructuredValueE@Base 2.0.0
 _ZN10tensorflow21SavedConcreteFunction56unsafe_arena_set_allocated_canonicalized_input_signatureEPNS_15StructuredValueE@Base 2.0.0
 _ZN10tensorflow21SavedConcreteFunction5ClearEv@Base 2.0.0
 _ZN10tensorflow21SavedConcreteFunction8CopyFromERKN6google8protobuf7MessageE@Base 2.0.0
 _ZN10tensorflow21SavedConcreteFunction8CopyFromERKS0_@Base 2.0.0
 _ZN10tensorflow21SavedConcreteFunction9ArenaDtorEPv@Base 2.0.0
 _ZN10tensorflow21SavedConcreteFunction9MergeFromERKN6google8protobuf7MessageE@Base 2.0.0
 _ZN10tensorflow21SavedConcreteFunction9MergeFromERKS0_@Base 2.0.0
 _ZN10tensorflow21SavedConcreteFunction9_Internal16output_signatureEPKS0_@Base 2.0.0
 _ZN10tensorflow21SavedConcreteFunction9_Internal29canonicalized_input_signatureEPKS0_@Base 2.0.0
 _ZN10tensorflow21SavedConcreteFunctionC1EPN6google8protobuf5ArenaE@Base 2.0.0
 _ZN10tensorflow21SavedConcreteFunctionC1ERKS0_@Base 2.0.0
 _ZN10tensorflow21SavedConcreteFunctionC1Ev@Base 2.0.0
 _ZN10tensorflow21SavedConcreteFunctionC2EPN6google8protobuf5ArenaE@Base 2.0.0
 _ZN10tensorflow21SavedConcreteFunctionC2ERKS0_@Base 2.0.0
 _ZN10tensorflow21SavedConcreteFunctionC2Ev@Base 2.0.0
 _ZN10tensorflow21SavedConcreteFunctionD0Ev@Base 2.0.0
 _ZN10tensorflow21SavedConcreteFunctionD1Ev@Base 2.0.0
 _ZN10tensorflow21SavedConcreteFunctionD2Ev@Base 2.0.0
 _ZN10tensorflow21ThreadPoolOptionProto12InternalSwapEPS0_@Base 2.0.0
 _ZN10tensorflow21ThreadPoolOptionProto14_InternalParseEPKcPN6google8protobuf8internal12ParseContextE@Base 2.0.0
 _ZN10tensorflow21ThreadPoolOptionProto16default_instanceEv@Base 2.0.0
 _ZN10tensorflow21ThreadPoolOptionProto21InitAsDefaultInstanceEv@Base 2.0.0
 _ZN10tensorflow21ThreadPoolOptionProto5ClearEv@Base 2.0.0
 _ZN10tensorflow21ThreadPoolOptionProto8CopyFromERKN6google8protobuf7MessageE@Base 2.0.0
 _ZN10tensorflow21ThreadPoolOptionProto8CopyFromERKS0_@Base 2.0.0
 _ZN10tensorflow21ThreadPoolOptionProto9ArenaDtorEPv@Base 2.0.0
 _ZN10tensorflow21ThreadPoolOptionProto9MergeFromERKN6google8protobuf7MessageE@Base 2.0.0
 _ZN10tensorflow21ThreadPoolOptionProto9MergeFromERKS0_@Base 2.0.0
 _ZN10tensorflow21ThreadPoolOptionProtoC1EPN6google8protobuf5ArenaE@Base 2.0.0
 _ZN10tensorflow21ThreadPoolOptionProtoC1ERKS0_@Base 2.0.0
 _ZN10tensorflow21ThreadPoolOptionProtoC1Ev@Base 2.0.0
 _ZN10tensorflow21ThreadPoolOptionProtoC2EPN6google8protobuf5ArenaE@Base 2.0.0
 _ZN10tensorflow21ThreadPoolOptionProtoC2ERKS0_@Base 2.0.0
 _ZN10tensorflow21ThreadPoolOptionProtoC2Ev@Base 2.0.0
 _ZN10tensorflow21ThreadPoolOptionProtoD0Ev@Base 2.0.0
 _ZN10tensorflow21ThreadPoolOptionProtoD1Ev@Base 2.0.0
 _ZN10tensorflow21ThreadPoolOptionProtoD2Ev@Base 2.0.0
 _ZN10tensorflow22AutotuneResult_ConvKey12InternalSwapEPS0_@Base 2.0.0
 _ZN10tensorflow22AutotuneResult_ConvKey14_InternalParseEPKcPN6google8protobuf8internal12ParseContextE@Base 2.0.0
 _ZN10tensorflow22AutotuneResult_ConvKey16default_instanceEv@Base 2.0.0
 _ZN10tensorflow22AutotuneResult_ConvKey21InitAsDefaultInstanceEv@Base 2.0.0
 _ZN10tensorflow22AutotuneResult_ConvKey5ClearEv@Base 2.0.0
 _ZN10tensorflow22AutotuneResult_ConvKey8CopyFromERKN6google8protobuf7MessageE@Base 2.0.0
 _ZN10tensorflow22AutotuneResult_ConvKey8CopyFromERKS0_@Base 2.0.0
 _ZN10tensorflow22AutotuneResult_ConvKey9MergeFromERKN6google8protobuf7MessageE@Base 2.0.0
 _ZN10tensorflow22AutotuneResult_ConvKey9MergeFromERKS0_@Base 2.0.0
 _ZN10tensorflow22AutotuneResult_ConvKeyC1ERKS0_@Base 2.0.0
 _ZN10tensorflow22AutotuneResult_ConvKeyC1Ev@Base 2.0.0
 _ZN10tensorflow22AutotuneResult_ConvKeyC2ERKS0_@Base 2.0.0
 _ZN10tensorflow22AutotuneResult_ConvKeyC2Ev@Base 2.0.0
 _ZN10tensorflow22AutotuneResult_ConvKeyD0Ev@Base 2.0.0
 _ZN10tensorflow22AutotuneResult_ConvKeyD1Ev@Base 2.0.0
 _ZN10tensorflow22AutotuneResult_ConvKeyD2Ev@Base 2.0.0
 _ZN10tensorflow22AutotuneResult_GemmKey12InternalSwapEPS0_@Base 2.0.0
 _ZN10tensorflow22AutotuneResult_GemmKey14_InternalParseEPKcPN6google8protobuf8internal12ParseContextE@Base 2.0.0
 _ZN10tensorflow22AutotuneResult_GemmKey16default_instanceEv@Base 2.0.0
 _ZN10tensorflow22AutotuneResult_GemmKey21InitAsDefaultInstanceEv@Base 2.0.0
 _ZN10tensorflow22AutotuneResult_GemmKey5ClearEv@Base 2.0.0
 _ZN10tensorflow22AutotuneResult_GemmKey8CopyFromERKN6google8protobuf7MessageE@Base 2.0.0
 _ZN10tensorflow22AutotuneResult_GemmKey8CopyFromERKS0_@Base 2.0.0
 _ZN10tensorflow22AutotuneResult_GemmKey9MergeFromERKN6google8protobuf7MessageE@Base 2.0.0
 _ZN10tensorflow22AutotuneResult_GemmKey9MergeFromERKS0_@Base 2.0.0
 _ZN10tensorflow22AutotuneResult_GemmKeyC1ERKS0_@Base 2.0.0
 _ZN10tensorflow22AutotuneResult_GemmKeyC1Ev@Base 2.0.0
 _ZN10tensorflow22AutotuneResult_GemmKeyC2ERKS0_@Base 2.0.0
 _ZN10tensorflow22AutotuneResult_GemmKeyC2Ev@Base 2.0.0
 _ZN10tensorflow22AutotuneResult_GemmKeyD0Ev@Base 2.0.0
 _ZN10tensorflow22AutotuneResult_GemmKeyD1Ev@Base 2.0.0
 _ZN10tensorflow22AutotuneResult_GemmKeyD2Ev@Base 2.0.0
 _ZN10tensorflow22BaseCollectiveExecutor10PostToPeerERKNSt7__cxx1112basic_stringIcSt11char_traitsIcESaIcEEES8_S8_PNS_6DeviceEPNS_13DeviceContextERKNS_19AllocatorAttributesEPKNS_6TensorERKNS_14DeviceLocalityERKSt8functionIFvRKNS_6StatusEEE@Base 2.0.0
 _ZN10tensorflow22BaseCollectiveExecutor10RunClosureESt8functionIFvvEE@Base 2.0.0
 _ZN10tensorflow22BaseCollectiveExecutor10StartAbortERKNS_6StatusE@Base 2.0.0
 _ZN10tensorflow22BaseCollectiveExecutor12ExecuteAsyncEPNS_15OpKernelContextERKNS_16CollectiveParamsERKNSt7__cxx1112basic_stringIcSt11char_traitsIcESaIcEEESt8functionIFvRKNS_6StatusEEE@Base 2.0.0
 _ZN10tensorflow22BaseCollectiveExecutor12RecvFromPeerERKNSt7__cxx1112basic_stringIcSt11char_traitsIcESaIcEEES8_bS8_PNS_6DeviceEPNS_13DeviceContextERKNS_19AllocatorAttributesEPNS_6TensorERKNS_14DeviceLocalityEiRKSt8functionIFvRKNS_6StatusEEE@Base 2.0.0
 _ZN10tensorflow22BaseCollectiveExecutor13remote_accessEv@Base 2.0.0
 _ZN10tensorflow22BaseCollectiveExecutor16CreateCollectiveERKNS_16CollectiveParamsEPPNS_33CollectiveImplementationInterfaceE@Base 2.0.0
 _ZN10tensorflow22BaseCollectiveExecutor17CheckDependenciesERKNS_16CollectiveParamsE@Base 2.0.0
 _ZN10tensorflow22BaseCollectiveExecutor19CompleteParamsAsyncERKNSt7__cxx1112basic_stringIcSt11char_traitsIcESaIcEEEPNS_16CollectiveParamsEPNS_19CancellationManagerESt8functionIFvRKNS_6StatusEEE@Base 2.0.0
 _ZN10tensorflow22BaseCollectiveExecutor19WaitForDependenciesERKNS_16CollectiveParamsE@Base 2.0.0
 _ZN10tensorflow22BaseCollectiveExecutor8LaunchedERKNS_16CollectiveParamsE@Base 2.0.0
 _ZN10tensorflow22BaseCollectiveExecutorD0Ev@Base 2.0.0
 _ZN10tensorflow22BaseCollectiveExecutorD1Ev@Base 2.0.0
 _ZN10tensorflow22BaseCollectiveExecutorD2Ev@Base 2.0.0
 _ZN10tensorflow22CheckNotInComputeAsyncEPNS_15OpKernelContextEPKc@Base 2.0.0
 _ZN10tensorflow22CollectionDef_NodeList12InternalSwapEPS0_@Base 2.0.0
 _ZN10tensorflow22CollectionDef_NodeList14_InternalParseEPKcPN6google8protobuf8internal12ParseContextE@Base 2.0.0
 _ZN10tensorflow22CollectionDef_NodeList16default_instanceEv@Base 2.0.0
 _ZN10tensorflow22CollectionDef_NodeList21InitAsDefaultInstanceEv@Base 2.0.0
 _ZN10tensorflow22CollectionDef_NodeList5ClearEv@Base 2.0.0
 _ZN10tensorflow22CollectionDef_NodeList8CopyFromERKN6google8protobuf7MessageE@Base 2.0.0
 _ZN10tensorflow22CollectionDef_NodeList8CopyFromERKS0_@Base 2.0.0
 _ZN10tensorflow22CollectionDef_NodeList9ArenaDtorEPv@Base 2.0.0
 _ZN10tensorflow22CollectionDef_NodeList9MergeFromERKN6google8protobuf7MessageE@Base 2.0.0
 _ZN10tensorflow22CollectionDef_NodeList9MergeFromERKS0_@Base 2.0.0
 _ZN10tensorflow22CollectionDef_NodeListC1EPN6google8protobuf5ArenaE@Base 2.0.0
 _ZN10tensorflow22CollectionDef_NodeListC1ERKS0_@Base 2.0.0
 _ZN10tensorflow22CollectionDef_NodeListC1Ev@Base 2.0.0
 _ZN10tensorflow22CollectionDef_NodeListC2EPN6google8protobuf5ArenaE@Base 2.0.0
 _ZN10tensorflow22CollectionDef_NodeListC2ERKS0_@Base 2.0.0
 _ZN10tensorflow22CollectionDef_NodeListC2Ev@Base 2.0.0
 _ZN10tensorflow22CollectionDef_NodeListD0Ev@Base 2.0.0
 _ZN10tensorflow22CollectionDef_NodeListD1Ev@Base 2.0.0
 _ZN10tensorflow22CollectionDef_NodeListD2Ev@Base 2.0.0
 _ZN10tensorflow22CollectiveRegistrationC1ERKNSt7__cxx1112basic_stringIcSt11char_traitsIcESaIcEEESt8functionIFPNS_33CollectiveImplementationInterfaceEvEE@Base 2.0.0
 _ZN10tensorflow22CollectiveRegistrationC2ERKNSt7__cxx1112basic_stringIcSt11char_traitsIcESaIcEEESt8functionIFPNS_33CollectiveImplementationInterfaceEvEE@Base 2.0.0
 _ZN10tensorflow22ConvertGraphDefToGraphERKNS_23GraphConstructorOptionsEONS_8GraphDefEPNS_5GraphE@Base 2.0.0
 _ZN10tensorflow22ConvertGraphDefToGraphERKNS_23GraphConstructorOptionsERKNS_8GraphDefEPNS_5GraphE@Base 2.0.0
 _ZN10tensorflow22ConvertNodeDefsToGraphERKNS_23GraphConstructorOptionsEN4absl4SpanIKNS_7NodeDefEEEPNS_5GraphE@Base 2.0.0
 _ZN10tensorflow22EvaluateConstantTensorENS_12OutputTensorERKNS_12ShapeRefinerERKNS_19OpRegistryInterfaceEiPbPNS_6TensorEPNS_11GraphRunnerEPSt13unordered_mapINSt7__cxx1112basic_stringIcSt11char_traitsIcESaIcEEES8_St4hashISI_ESt8equal_toISI_ESaISt4pairIKSI_S8_EEExb@Base 2.0.0
 _ZN10tensorflow22FastAreAttrValuesEqualERKNS_9AttrValueES2_@Base 2.0.0
 _ZN10tensorflow22FileSystemRegistryImpl30GetRegisteredFileSystemSchemesEPSt6vectorINSt7__cxx1112basic_stringIcSt11char_traitsIcESaIcEEESaIS7_EE@Base 2.0.0
 _ZN10tensorflow22FileSystemRegistryImpl6LookupERKNSt7__cxx1112basic_stringIcSt11char_traitsIcESaIcEEE@Base 2.0.0
 _ZN10tensorflow22FileSystemRegistryImpl8RegisterERKNSt7__cxx1112basic_stringIcSt11char_traitsIcESaIcEEESt8functionIFPNS_10FileSystemEvEE@Base 2.0.0
 _ZN10tensorflow22FileSystemRegistryImplD0Ev@Base 2.0.0
 _ZN10tensorflow22FileSystemRegistryImplD1Ev@Base 2.0.0
 _ZN10tensorflow22FileSystemRegistryImplD2Ev@Base 2.0.0
 _ZN10tensorflow22FilterFormatFromStringERKNSt7__cxx1112basic_stringIcSt11char_traitsIcESaIcEEEPNS_18FilterTensorFormatE@Base 2.0.0
 _ZN10tensorflow22FunctionLibraryRuntime12ExecutorTypeB5cxx11ERKNS0_18InstantiateOptionsENS_9AttrSliceE@Base 2.0.0
 _ZN10tensorflow22FunctionLibraryRuntime18InstantiateOptionsC1ERKS1_@Base 2.0.0
 _ZN10tensorflow22FunctionLibraryRuntime18InstantiateOptionsC2ERKS1_@Base 2.0.0
 _ZN10tensorflow22FunctionLibraryRuntime18InstantiateOptionsD1Ev@Base 2.0.0
 _ZN10tensorflow22FunctionLibraryRuntime18InstantiateOptionsD2Ev@Base 2.0.0
 _ZN10tensorflow22FunctionLibraryRuntime7OptionsD1Ev@Base 2.0.0
 _ZN10tensorflow22FunctionLibraryRuntime7OptionsD2Ev@Base 2.0.0
 _ZN10tensorflow22GPUcudaMallocAllocator11AllocateRawEmm@Base 2.0.0
 _ZN10tensorflow22GPUcudaMallocAllocator13DeallocateRawEPv@Base 2.0.0
 _ZN10tensorflow22GPUcudaMallocAllocator4NameB5cxx11Ev@Base 2.0.0
 _ZN10tensorflow22GPUcudaMallocAllocator8GetStatsEv@Base 2.0.0
 _ZN10tensorflow22GPUcudaMallocAllocatorC1EPNS_9AllocatorENS_3gtl7IntTypeINS_18PlatformGpuId_tag_EiEE@Base 2.0.0
 _ZN10tensorflow22GPUcudaMallocAllocatorC2EPNS_9AllocatorENS_3gtl7IntTypeINS_18PlatformGpuId_tag_EiEE@Base 2.0.0
 _ZN10tensorflow22GPUcudaMallocAllocatorD0Ev@Base 2.0.0
 _ZN10tensorflow22GPUcudaMallocAllocatorD1Ev@Base 2.0.0
 _ZN10tensorflow22GPUcudaMallocAllocatorD2Ev@Base 2.0.0
 _ZN10tensorflow22GetFunctionDefAndAttrsERKNS_25FunctionLibraryDefinitionERKNS_4NodeEPPKNS_11FunctionDefEPNS_12NameAttrListE@Base 2.0.0
 _ZN10tensorflow22GetTensorBatchDimIndexEiNS_12TensorFormatE@Base 2.0.0
 _ZN10tensorflow22GraphDefBuilderToGraphERKNS_15GraphDefBuilderEPNS_5GraphE@Base 2.0.0
 _ZN10tensorflow22GraphTransferNodeInput12InternalSwapEPS0_@Base 2.0.0
 _ZN10tensorflow22GraphTransferNodeInput14_InternalParseEPKcPN6google8protobuf8internal12ParseContextE@Base 2.0.0
 _ZN10tensorflow22GraphTransferNodeInput16default_instanceEv@Base 2.0.0
 _ZN10tensorflow22GraphTransferNodeInput21InitAsDefaultInstanceEv@Base 2.0.0
 _ZN10tensorflow22GraphTransferNodeInput5ClearEv@Base 2.0.0
 _ZN10tensorflow22GraphTransferNodeInput8CopyFromERKN6google8protobuf7MessageE@Base 2.0.0
 _ZN10tensorflow22GraphTransferNodeInput8CopyFromERKS0_@Base 2.0.0
 _ZN10tensorflow22GraphTransferNodeInput9ArenaDtorEPv@Base 2.0.0
 _ZN10tensorflow22GraphTransferNodeInput9MergeFromERKN6google8protobuf7MessageE@Base 2.0.0
 _ZN10tensorflow22GraphTransferNodeInput9MergeFromERKS0_@Base 2.0.0
 _ZN10tensorflow22GraphTransferNodeInputC1EPN6google8protobuf5ArenaE@Base 2.0.0
 _ZN10tensorflow22GraphTransferNodeInputC1ERKS0_@Base 2.0.0
 _ZN10tensorflow22GraphTransferNodeInputC1Ev@Base 2.0.0
 _ZN10tensorflow22GraphTransferNodeInputC2EPN6google8protobuf5ArenaE@Base 2.0.0
 _ZN10tensorflow22GraphTransferNodeInputC2ERKS0_@Base 2.0.0
 _ZN10tensorflow22GraphTransferNodeInputC2Ev@Base 2.0.0
 _ZN10tensorflow22GraphTransferNodeInputD0Ev@Base 2.0.0
 _ZN10tensorflow22GraphTransferNodeInputD1Ev@Base 2.0.0
 _ZN10tensorflow22GraphTransferNodeInputD2Ev@Base 2.0.0
 _ZN10tensorflow22IntraProcessRendezvous10StartAbortERKNS_6StatusE@Base 2.0.0
 _ZN10tensorflow22IntraProcessRendezvous18SameWorkerRecvDoneERKNS_10Rendezvous9ParsedKeyERKNS1_4ArgsES7_RKNS_6TensorEPS8_St8functionIFvRKNS_6StatusEEE@Base 2.0.0
 _ZN10tensorflow22IntraProcessRendezvous4SendERKNS_10Rendezvous9ParsedKeyERKNS1_4ArgsERKNS_6TensorEb@Base 2.0.0
 _ZN10tensorflow22IntraProcessRendezvous8ParseKeyERKNSt7__cxx1112basic_stringIcSt11char_traitsIcESaIcEEEbPNS_10Rendezvous9ParsedKeyE@Base 2.0.0
 _ZN10tensorflow22IntraProcessRendezvous9RecvAsyncERKNS_10Rendezvous9ParsedKeyERKNS1_4ArgsESt8functionIFvRKNS_6StatusES7_S7_RKNS_6TensorEbEE@Base 2.0.0
 _ZN10tensorflow22IntraProcessRendezvousC1EPKNS_9DeviceMgrE@Base 2.0.0
 _ZN10tensorflow22IntraProcessRendezvousC2EPKNS_9DeviceMgrE@Base 2.0.0
 _ZN10tensorflow22IntraProcessRendezvousD0Ev@Base 2.0.0
 _ZN10tensorflow22IntraProcessRendezvousD1Ev@Base 2.0.0
 _ZN10tensorflow22IntraProcessRendezvousD2Ev@Base 2.0.0
 _ZN10tensorflow22KernelsRegisteredForOpB5cxx11EN4absl11string_viewE@Base 2.0.0
 _ZN10tensorflow22LowerFunctionalOpsPass3RunERKNS_28GraphOptimizationPassOptionsE@Base 2.0.0
 _ZN10tensorflow22LowerFunctionalOpsPassD0Ev@Base 2.0.0
 _ZN10tensorflow22LowerFunctionalOpsPassD1Ev@Base 2.0.0
 _ZN10tensorflow22LowerFunctionalOpsPassD2Ev@Base 2.0.0
 _ZN10tensorflow22MemoryLogRawAllocation12InternalSwapEPS0_@Base 2.0.0
 _ZN10tensorflow22MemoryLogRawAllocation14_InternalParseEPKcPN6google8protobuf8internal12ParseContextE@Base 2.0.0
 _ZN10tensorflow22MemoryLogRawAllocation16default_instanceEv@Base 2.0.0
 _ZN10tensorflow22MemoryLogRawAllocation21InitAsDefaultInstanceEv@Base 2.0.0
 _ZN10tensorflow22MemoryLogRawAllocation5ClearEv@Base 2.0.0
 _ZN10tensorflow22MemoryLogRawAllocation8CopyFromERKN6google8protobuf7MessageE@Base 2.0.0
 _ZN10tensorflow22MemoryLogRawAllocation8CopyFromERKS0_@Base 2.0.0
 _ZN10tensorflow22MemoryLogRawAllocation9ArenaDtorEPv@Base 2.0.0
 _ZN10tensorflow22MemoryLogRawAllocation9MergeFromERKN6google8protobuf7MessageE@Base 2.0.0
 _ZN10tensorflow22MemoryLogRawAllocation9MergeFromERKS0_@Base 2.0.0
 _ZN10tensorflow22MemoryLogRawAllocationC1EPN6google8protobuf5ArenaE@Base 2.0.0
 _ZN10tensorflow22MemoryLogRawAllocationC1ERKS0_@Base 2.0.0
 _ZN10tensorflow22MemoryLogRawAllocationC1Ev@Base 2.0.0
 _ZN10tensorflow22MemoryLogRawAllocationC2EPN6google8protobuf5ArenaE@Base 2.0.0
 _ZN10tensorflow22MemoryLogRawAllocationC2ERKS0_@Base 2.0.0
 _ZN10tensorflow22MemoryLogRawAllocationC2Ev@Base 2.0.0
 _ZN10tensorflow22MemoryLogRawAllocationD0Ev@Base 2.0.0
 _ZN10tensorflow22MemoryLogRawAllocationD1Ev@Base 2.0.0
 _ZN10tensorflow22MemoryLogRawAllocationD2Ev@Base 2.0.0
 _ZN10tensorflow22OpPerformance_OpMemory12InternalSwapEPS0_@Base 2.0.0
 _ZN10tensorflow22OpPerformance_OpMemory14_InternalParseEPKcPN6google8protobuf8internal12ParseContextE@Base 2.0.0
 _ZN10tensorflow22OpPerformance_OpMemory16default_instanceEv@Base 2.0.0
 _ZN10tensorflow22OpPerformance_OpMemory21InitAsDefaultInstanceEv@Base 2.0.0
 _ZN10tensorflow22OpPerformance_OpMemory5ClearEv@Base 2.0.0
 _ZN10tensorflow22OpPerformance_OpMemory8CopyFromERKN6google8protobuf7MessageE@Base 2.0.0
 _ZN10tensorflow22OpPerformance_OpMemory8CopyFromERKS0_@Base 2.0.0
 _ZN10tensorflow22OpPerformance_OpMemory9ArenaDtorEPv@Base 2.0.0
 _ZN10tensorflow22OpPerformance_OpMemory9MergeFromERKN6google8protobuf7MessageE@Base 2.0.0
 _ZN10tensorflow22OpPerformance_OpMemory9MergeFromERKS0_@Base 2.0.0
 _ZN10tensorflow22OpPerformance_OpMemoryC1EPN6google8protobuf5ArenaE@Base 2.0.0
 _ZN10tensorflow22OpPerformance_OpMemoryC1ERKS0_@Base 2.0.0
 _ZN10tensorflow22OpPerformance_OpMemoryC1Ev@Base 2.0.0
 _ZN10tensorflow22OpPerformance_OpMemoryC2EPN6google8protobuf5ArenaE@Base 2.0.0
 _ZN10tensorflow22OpPerformance_OpMemoryC2ERKS0_@Base 2.0.0
 _ZN10tensorflow22OpPerformance_OpMemoryC2Ev@Base 2.0.0
 _ZN10tensorflow22OpPerformance_OpMemoryD0Ev@Base 2.0.0
 _ZN10tensorflow22OpPerformance_OpMemoryD1Ev@Base 2.0.0
 _ZN10tensorflow22OpPerformance_OpMemoryD2Ev@Base 2.0.0
 _ZN10tensorflow22PartitionFunctionGraphERKNS_9DeviceSetESt10unique_ptrINS_5GraphESt14default_deleteIS4_EEPSt13unordered_mapINSt7__cxx1112basic_stringIcSt11char_traitsIcESaIcEEES7_St4hashISE_ESt8equal_toISE_ESaISt4pairIKSE_S7_EEE@Base 2.0.0
 _ZN10tensorflow22ScopedAllocatorOptions12InternalSwapEPS0_@Base 2.0.0
 _ZN10tensorflow22ScopedAllocatorOptions14_InternalParseEPKcPN6google8protobuf8internal12ParseContextE@Base 2.0.0
 _ZN10tensorflow22ScopedAllocatorOptions16default_instanceEv@Base 2.0.0
 _ZN10tensorflow22ScopedAllocatorOptions21InitAsDefaultInstanceEv@Base 2.0.0
 _ZN10tensorflow22ScopedAllocatorOptions5ClearEv@Base 2.0.0
 _ZN10tensorflow22ScopedAllocatorOptions8CopyFromERKN6google8protobuf7MessageE@Base 2.0.0
 _ZN10tensorflow22ScopedAllocatorOptions8CopyFromERKS0_@Base 2.0.0
 _ZN10tensorflow22ScopedAllocatorOptions9ArenaDtorEPv@Base 2.0.0
 _ZN10tensorflow22ScopedAllocatorOptions9MergeFromERKN6google8protobuf7MessageE@Base 2.0.0
 _ZN10tensorflow22ScopedAllocatorOptions9MergeFromERKS0_@Base 2.0.0
 _ZN10tensorflow22ScopedAllocatorOptionsC1EPN6google8protobuf5ArenaE@Base 2.0.0
 _ZN10tensorflow22ScopedAllocatorOptionsC1ERKS0_@Base 2.0.0
 _ZN10tensorflow22ScopedAllocatorOptionsC1Ev@Base 2.0.0
 _ZN10tensorflow22ScopedAllocatorOptionsC2EPN6google8protobuf5ArenaE@Base 2.0.0
 _ZN10tensorflow22ScopedAllocatorOptionsC2ERKS0_@Base 2.0.0
 _ZN10tensorflow22ScopedAllocatorOptionsC2Ev@Base 2.0.0
 _ZN10tensorflow22ScopedAllocatorOptionsD0Ev@Base 2.0.0
 _ZN10tensorflow22ScopedAllocatorOptionsD1Ev@Base 2.0.0
 _ZN10tensorflow22ScopedAllocatorOptionsD2Ev@Base 2.0.0
 _ZN10tensorflow22StrippedOpListForGraphERKNS_8GraphDefERKNS_19OpRegistryInterfaceEPNS_6OpListE@Base 2.0.0
 _ZN10tensorflow22SubstitutePlaceholdersERKSt8functionIFbRKNSt7__cxx1112basic_stringIcSt11char_traitsIcESaIcEEEPNS_9AttrValueEEESA_@Base 2.0.0
 _ZN10tensorflow22SymbolicGradientHelper4CopyEPNS_12FunctionBodyE@Base 2.0.0
 _ZN10tensorflow22SymbolicGradientHelper7ComputeEv@Base 2.0.0
 _ZN10tensorflow22UnaryVariantOpRegistry11GetDecodeFnEN4absl11string_viewE@Base 2.0.0
 _ZN10tensorflow22UnaryVariantOpRegistry12GetUnaryOpFnENS_14VariantUnaryOpEN4absl11string_viewERKSt10type_index@Base 2.0.0
 _ZN10tensorflow22UnaryVariantOpRegistry13GetBinaryOpFnENS_15VariantBinaryOpEN4absl11string_viewERKSt10type_index@Base 2.0.0
 _ZN10tensorflow22UnaryVariantOpRegistry15GetDeviceCopyFnENS_26VariantDeviceCopyDirectionERKSt10type_index@Base 2.0.0
 _ZN10tensorflow22UnaryVariantOpRegistry16RegisterDecodeFnERKNSt7__cxx1112basic_stringIcSt11char_traitsIcESaIcEEERKSt8functionIFbPNS_7VariantEEE@Base 2.0.0
 _ZN10tensorflow22UnaryVariantOpRegistry17RegisterUnaryOpFnENS_14VariantUnaryOpERKNSt7__cxx1112basic_stringIcSt11char_traitsIcESaIcEEERKSt10type_indexRKSt8functionIFNS_6StatusEPNS_15OpKernelContextERKNS_7VariantEPSH_EE@Base 2.0.0
 _ZN10tensorflow22UnaryVariantOpRegistry18RegisterBinaryOpFnENS_15VariantBinaryOpERKNSt7__cxx1112basic_stringIcSt11char_traitsIcESaIcEEERKSt10type_indexRKSt8functionIFNS_6StatusEPNS_15OpKernelContextERKNS_7VariantESJ_PSH_EE@Base 2.0.0
 _ZN10tensorflow22UnaryVariantOpRegistry20RegisterDeviceCopyFnENS_26VariantDeviceCopyDirectionERKSt10type_indexRKSt8functionIFNS_6StatusERKNS_7VariantEPS7_S5_IFS6_RKNS_6TensorEPSB_EEEE@Base 2.0.0
 _ZN10tensorflow22UnaryVariantOpRegistry23PersistentStringStorageB5cxx11Ev@Base 2.0.0
 _ZN10tensorflow22UnaryVariantOpRegistry6GlobalEv@Base 2.0.0
 _ZN10tensorflow22UniqueTensorReferences25FreezeAndReturnReferencesEPN4absl13InlinedVectorINS_15TensorReferenceELm4ESaIS3_EEE@Base 2.0.0
 _ZN10tensorflow22UniqueTensorReferences3AddERKNS_6TensorE@Base 2.0.0
 _ZN10tensorflow22UniqueTensorReferencesD1Ev@Base 2.0.0
 _ZN10tensorflow22UniqueTensorReferencesD2Ev@Base 2.0.0
 _ZN10tensorflow22ValidateStridedSliceOpEPKNS_6TensorES2_RS1_RKNS_18PartialTensorShapeEiiiiiPNS_11TensorShapeES8_PbS9_S9_PN4absl13InlinedVectorIxLm4ESaIxEEESE_SE_@Base 2.0.0
 _ZN10tensorflow22ValidateStridedSliceOpEPKNS_6TensorES2_RS1_RKNS_18PartialTensorShapeEiiiiiPS4_S7_PbS8_S8_PN4absl13InlinedVectorIxLm4ESaIxEEESD_SD_@Base 2.0.0
 _ZN10tensorflow22VariantTensorDataProto12InternalSwapEPS0_@Base 2.0.0
 _ZN10tensorflow22VariantTensorDataProto14_InternalParseEPKcPN6google8protobuf8internal12ParseContextE@Base 2.0.0
 _ZN10tensorflow22VariantTensorDataProto16default_instanceEv@Base 2.0.0
 _ZN10tensorflow22VariantTensorDataProto21InitAsDefaultInstanceEv@Base 2.0.0
 _ZN10tensorflow22VariantTensorDataProto5ClearEv@Base 2.0.0
 _ZN10tensorflow22VariantTensorDataProto8CopyFromERKN6google8protobuf7MessageE@Base 2.0.0
 _ZN10tensorflow22VariantTensorDataProto8CopyFromERKS0_@Base 2.0.0
 _ZN10tensorflow22VariantTensorDataProto9ArenaDtorEPv@Base 2.0.0
 _ZN10tensorflow22VariantTensorDataProto9MergeFromERKN6google8protobuf7MessageE@Base 2.0.0
 _ZN10tensorflow22VariantTensorDataProto9MergeFromERKS0_@Base 2.0.0
 _ZN10tensorflow22VariantTensorDataProtoC1EPN6google8protobuf5ArenaE@Base 2.0.0
 _ZN10tensorflow22VariantTensorDataProtoC1ERKS0_@Base 2.0.0
 _ZN10tensorflow22VariantTensorDataProtoC1Ev@Base 2.0.0
 _ZN10tensorflow22VariantTensorDataProtoC2EPN6google8protobuf5ArenaE@Base 2.0.0
 _ZN10tensorflow22VariantTensorDataProtoC2ERKS0_@Base 2.0.0
 _ZN10tensorflow22VariantTensorDataProtoC2Ev@Base 2.0.0
 _ZN10tensorflow22VariantTensorDataProtoD0Ev@Base 2.0.0
 _ZN10tensorflow22VariantTensorDataProtoD1Ev@Base 2.0.0
 _ZN10tensorflow22VariantTensorDataProtoD2Ev@Base 2.0.0
 _ZN10tensorflow22WorkerHeartbeatRequest12InternalSwapEPS0_@Base 2.0.0
 _ZN10tensorflow22WorkerHeartbeatRequest14_InternalParseEPKcPN6google8protobuf8internal12ParseContextE@Base 2.0.0
 _ZN10tensorflow22WorkerHeartbeatRequest16default_instanceEv@Base 2.0.0
 _ZN10tensorflow22WorkerHeartbeatRequest21InitAsDefaultInstanceEv@Base 2.0.0
 _ZN10tensorflow22WorkerHeartbeatRequest42unsafe_arena_set_allocated_watchdog_configEPNS_14WatchdogConfigE@Base 2.0.0
 _ZN10tensorflow22WorkerHeartbeatRequest5ClearEv@Base 2.0.0
 _ZN10tensorflow22WorkerHeartbeatRequest8CopyFromERKN6google8protobuf7MessageE@Base 2.0.0
 _ZN10tensorflow22WorkerHeartbeatRequest8CopyFromERKS0_@Base 2.0.0
 _ZN10tensorflow22WorkerHeartbeatRequest9ArenaDtorEPv@Base 2.0.0
 _ZN10tensorflow22WorkerHeartbeatRequest9MergeFromERKN6google8protobuf7MessageE@Base 2.0.0
 _ZN10tensorflow22WorkerHeartbeatRequest9MergeFromERKS0_@Base 2.0.0
 _ZN10tensorflow22WorkerHeartbeatRequest9_Internal15watchdog_configEPKS0_@Base 2.0.0
 _ZN10tensorflow22WorkerHeartbeatRequestC1EPN6google8protobuf5ArenaE@Base 2.0.0
 _ZN10tensorflow22WorkerHeartbeatRequestC1ERKS0_@Base 2.0.0
 _ZN10tensorflow22WorkerHeartbeatRequestC1Ev@Base 2.0.0
 _ZN10tensorflow22WorkerHeartbeatRequestC2EPN6google8protobuf5ArenaE@Base 2.0.0
 _ZN10tensorflow22WorkerHeartbeatRequestC2ERKS0_@Base 2.0.0
 _ZN10tensorflow22WorkerHeartbeatRequestC2Ev@Base 2.0.0
 _ZN10tensorflow22WorkerHeartbeatRequestD0Ev@Base 2.0.0
 _ZN10tensorflow22WorkerHeartbeatRequestD1Ev@Base 2.0.0
 _ZN10tensorflow22WorkerHeartbeatRequestD2Ev@Base 2.0.0
 _ZN10tensorflow22kColocationGroupPrefixE@Base 2.0.0
 _ZN10tensorflow22kProtobufInt64TypenameE@Base 2.0.0
 _ZN10tensorflow23CollectionDef_BytesList12InternalSwapEPS0_@Base 2.0.0
 _ZN10tensorflow23CollectionDef_BytesList14_InternalParseEPKcPN6google8protobuf8internal12ParseContextE@Base 2.0.0
 _ZN10tensorflow23CollectionDef_BytesList16default_instanceEv@Base 2.0.0
 _ZN10tensorflow23CollectionDef_BytesList21InitAsDefaultInstanceEv@Base 2.0.0
 _ZN10tensorflow23CollectionDef_BytesList5ClearEv@Base 2.0.0
 _ZN10tensorflow23CollectionDef_BytesList8CopyFromERKN6google8protobuf7MessageE@Base 2.0.0
 _ZN10tensorflow23CollectionDef_BytesList8CopyFromERKS0_@Base 2.0.0
 _ZN10tensorflow23CollectionDef_BytesList9ArenaDtorEPv@Base 2.0.0
 _ZN10tensorflow23CollectionDef_BytesList9MergeFromERKN6google8protobuf7MessageE@Base 2.0.0
 _ZN10tensorflow23CollectionDef_BytesList9MergeFromERKS0_@Base 2.0.0
 _ZN10tensorflow23CollectionDef_BytesListC1EPN6google8protobuf5ArenaE@Base 2.0.0
 _ZN10tensorflow23CollectionDef_BytesListC1ERKS0_@Base 2.0.0
 _ZN10tensorflow23CollectionDef_BytesListC1Ev@Base 2.0.0
 _ZN10tensorflow23CollectionDef_BytesListC2EPN6google8protobuf5ArenaE@Base 2.0.0
 _ZN10tensorflow23CollectionDef_BytesListC2ERKS0_@Base 2.0.0
 _ZN10tensorflow23CollectionDef_BytesListC2Ev@Base 2.0.0
 _ZN10tensorflow23CollectionDef_BytesListD0Ev@Base 2.0.0
 _ZN10tensorflow23CollectionDef_BytesListD1Ev@Base 2.0.0
 _ZN10tensorflow23CollectionDef_BytesListD2Ev@Base 2.0.0
 _ZN10tensorflow23CollectionDef_FloatList12InternalSwapEPS0_@Base 2.0.0
 _ZN10tensorflow23CollectionDef_FloatList14_InternalParseEPKcPN6google8protobuf8internal12ParseContextE@Base 2.0.0
 _ZN10tensorflow23CollectionDef_FloatList16default_instanceEv@Base 2.0.0
 _ZN10tensorflow23CollectionDef_FloatList21InitAsDefaultInstanceEv@Base 2.0.0
 _ZN10tensorflow23CollectionDef_FloatList5ClearEv@Base 2.0.0
 _ZN10tensorflow23CollectionDef_FloatList8CopyFromERKN6google8protobuf7MessageE@Base 2.0.0
 _ZN10tensorflow23CollectionDef_FloatList8CopyFromERKS0_@Base 2.0.0
 _ZN10tensorflow23CollectionDef_FloatList9ArenaDtorEPv@Base 2.0.0
 _ZN10tensorflow23CollectionDef_FloatList9MergeFromERKN6google8protobuf7MessageE@Base 2.0.0
 _ZN10tensorflow23CollectionDef_FloatList9MergeFromERKS0_@Base 2.0.0
 _ZN10tensorflow23CollectionDef_FloatListC1EPN6google8protobuf5ArenaE@Base 2.0.0
 _ZN10tensorflow23CollectionDef_FloatListC1ERKS0_@Base 2.0.0
 _ZN10tensorflow23CollectionDef_FloatListC1Ev@Base 2.0.0
 _ZN10tensorflow23CollectionDef_FloatListC2EPN6google8protobuf5ArenaE@Base 2.0.0
 _ZN10tensorflow23CollectionDef_FloatListC2ERKS0_@Base 2.0.0
 _ZN10tensorflow23CollectionDef_FloatListC2Ev@Base 2.0.0
 _ZN10tensorflow23CollectionDef_FloatListD0Ev@Base 2.0.0
 _ZN10tensorflow23CollectionDef_FloatListD1Ev@Base 2.0.0
 _ZN10tensorflow23CollectionDef_FloatListD2Ev@Base 2.0.0
 _ZN10tensorflow23CollectionDef_Int64List12InternalSwapEPS0_@Base 2.0.0
 _ZN10tensorflow23CollectionDef_Int64List14_InternalParseEPKcPN6google8protobuf8internal12ParseContextE@Base 2.0.0
 _ZN10tensorflow23CollectionDef_Int64List16default_instanceEv@Base 2.0.0
 _ZN10tensorflow23CollectionDef_Int64List21InitAsDefaultInstanceEv@Base 2.0.0
 _ZN10tensorflow23CollectionDef_Int64List5ClearEv@Base 2.0.0
 _ZN10tensorflow23CollectionDef_Int64List8CopyFromERKN6google8protobuf7MessageE@Base 2.0.0
 _ZN10tensorflow23CollectionDef_Int64List8CopyFromERKS0_@Base 2.0.0
 _ZN10tensorflow23CollectionDef_Int64List9ArenaDtorEPv@Base 2.0.0
 _ZN10tensorflow23CollectionDef_Int64List9MergeFromERKN6google8protobuf7MessageE@Base 2.0.0
 _ZN10tensorflow23CollectionDef_Int64List9MergeFromERKS0_@Base 2.0.0
 _ZN10tensorflow23CollectionDef_Int64ListC1EPN6google8protobuf5ArenaE@Base 2.0.0
 _ZN10tensorflow23CollectionDef_Int64ListC1ERKS0_@Base 2.0.0
 _ZN10tensorflow23CollectionDef_Int64ListC1Ev@Base 2.0.0
 _ZN10tensorflow23CollectionDef_Int64ListC2EPN6google8protobuf5ArenaE@Base 2.0.0
 _ZN10tensorflow23CollectionDef_Int64ListC2ERKS0_@Base 2.0.0
 _ZN10tensorflow23CollectionDef_Int64ListC2Ev@Base 2.0.0
 _ZN10tensorflow23CollectionDef_Int64ListD0Ev@Base 2.0.0
 _ZN10tensorflow23CollectionDef_Int64ListD1Ev@Base 2.0.0
 _ZN10tensorflow23CollectionDef_Int64ListD2Ev@Base 2.0.0
 _ZN10tensorflow23EnableCPUAllocatorStatsEb@Base 2.0.0
 _ZN10tensorflow23FixupSourceAndSinkEdgesEPNS_5GraphE@Base 2.0.0
 _ZN10tensorflow23FunctionDefToBodyHelperERKNS_11FunctionDefERKNS_9AttrSliceEPKNS_25FunctionLibraryDefinitionEPSt10unique_ptrINS_12FunctionBodyESt14default_deleteISA_EE@Base 2.0.0
 _ZN10tensorflow23FunctionDefToBodyHelperERKNS_11FunctionDefERKNS_9AttrSliceEPKNS_25FunctionLibraryDefinitionERKSt8functionIFNS_6StatusERKNSt7__cxx1112basic_stringIcSt11char_traitsIcESaIcEEEPPKNS_5OpDefEEEPSt10unique_ptrINS_12FunctionBodyESt14default_deleteISS_EE@Base 2.0.0
 _ZN10tensorflow23GPUOptions_Experimental12InternalSwapEPS0_@Base 2.0.0
 _ZN10tensorflow23GPUOptions_Experimental14_InternalParseEPKcPN6google8protobuf8internal12ParseContextE@Base 2.0.0
 _ZN10tensorflow23GPUOptions_Experimental16default_instanceEv@Base 2.0.0
 _ZN10tensorflow23GPUOptions_Experimental21InitAsDefaultInstanceEv@Base 2.0.0
 _ZN10tensorflow23GPUOptions_Experimental5ClearEv@Base 2.0.0
 _ZN10tensorflow23GPUOptions_Experimental8CopyFromERKN6google8protobuf7MessageE@Base 2.0.0
 _ZN10tensorflow23GPUOptions_Experimental8CopyFromERKS0_@Base 2.0.0
 _ZN10tensorflow23GPUOptions_Experimental9ArenaDtorEPv@Base 2.0.0
 _ZN10tensorflow23GPUOptions_Experimental9MergeFromERKN6google8protobuf7MessageE@Base 2.0.0
 _ZN10tensorflow23GPUOptions_Experimental9MergeFromERKS0_@Base 2.0.0
 _ZN10tensorflow23GPUOptions_ExperimentalC1EPN6google8protobuf5ArenaE@Base 2.0.0
 _ZN10tensorflow23GPUOptions_ExperimentalC1ERKS0_@Base 2.0.0
 _ZN10tensorflow23GPUOptions_ExperimentalC1Ev@Base 2.0.0
 _ZN10tensorflow23GPUOptions_ExperimentalC2EPN6google8protobuf5ArenaE@Base 2.0.0
 _ZN10tensorflow23GPUOptions_ExperimentalC2ERKS0_@Base 2.0.0
 _ZN10tensorflow23GPUOptions_ExperimentalC2Ev@Base 2.0.0
 _ZN10tensorflow23GPUOptions_ExperimentalD0Ev@Base 2.0.0
 _ZN10tensorflow23GPUOptions_ExperimentalD1Ev@Base 2.0.0
 _ZN10tensorflow23GPUOptions_ExperimentalD2Ev@Base 2.0.0
 _ZN10tensorflow23GetAllRegisteredKernelsEv@Base 2.0.0
 _ZN10tensorflow23GetWindowedOutputSizeV2ExxxxNS_7PaddingEPxS1_@Base 2.0.0
 _ZN10tensorflow23InstantiateFunctionCallERKNS_7NodeDefEPNS_22FunctionLibraryRuntimeEPy@Base 2.0.0
 _ZN10tensorflow23LogAllRegisteredKernelsEv@Base 2.0.0
 _ZN10tensorflow23OpInfo_TensorProperties11clear_shapeEv@Base 2.0.0
 _ZN10tensorflow23OpInfo_TensorProperties11clear_valueEv@Base 2.0.0
 _ZN10tensorflow23OpInfo_TensorProperties12InternalSwapEPS0_@Base 2.0.0
 _ZN10tensorflow23OpInfo_TensorProperties14_InternalParseEPKcPN6google8protobuf8internal12ParseContextE@Base 2.0.0
 _ZN10tensorflow23OpInfo_TensorProperties16default_instanceEv@Base 2.0.0
 _ZN10tensorflow23OpInfo_TensorProperties21InitAsDefaultInstanceEv@Base 2.0.0
 _ZN10tensorflow23OpInfo_TensorProperties23_internal_mutable_shapeEv@Base 2.0.0
 _ZN10tensorflow23OpInfo_TensorProperties32unsafe_arena_set_allocated_shapeEPNS_16TensorShapeProtoE@Base 2.0.0
 _ZN10tensorflow23OpInfo_TensorProperties32unsafe_arena_set_allocated_valueEPNS_11TensorProtoE@Base 2.0.0
 _ZN10tensorflow23OpInfo_TensorProperties5ClearEv@Base 2.0.0
 _ZN10tensorflow23OpInfo_TensorProperties8CopyFromERKN6google8protobuf7MessageE@Base 2.0.0
 _ZN10tensorflow23OpInfo_TensorProperties8CopyFromERKS0_@Base 2.0.0
 _ZN10tensorflow23OpInfo_TensorProperties9ArenaDtorEPv@Base 2.0.0
 _ZN10tensorflow23OpInfo_TensorProperties9MergeFromERKN6google8protobuf7MessageE@Base 2.0.0
 _ZN10tensorflow23OpInfo_TensorProperties9MergeFromERKS0_@Base 2.0.0
 _ZN10tensorflow23OpInfo_TensorProperties9_Internal5shapeEPKS0_@Base 2.0.0
 _ZN10tensorflow23OpInfo_TensorProperties9_Internal5valueEPKS0_@Base 2.0.0
 _ZN10tensorflow23OpInfo_TensorPropertiesC1EPN6google8protobuf5ArenaE@Base 2.0.0
 _ZN10tensorflow23OpInfo_TensorPropertiesC1ERKS0_@Base 2.0.0
 _ZN10tensorflow23OpInfo_TensorPropertiesC1Ev@Base 2.0.0
 _ZN10tensorflow23OpInfo_TensorPropertiesC2EPN6google8protobuf5ArenaE@Base 2.0.0
 _ZN10tensorflow23OpInfo_TensorPropertiesC2ERKS0_@Base 2.0.0
 _ZN10tensorflow23OpInfo_TensorPropertiesC2Ev@Base 2.0.0
 _ZN10tensorflow23OpInfo_TensorPropertiesD0Ev@Base 2.0.0
 _ZN10tensorflow23OpInfo_TensorPropertiesD1Ev@Base 2.0.0
 _ZN10tensorflow23OpInfo_TensorPropertiesD2Ev@Base 2.0.0
 _ZN10tensorflow23ParseSingleExampleAttrs10FinishInitEv@Base 2.0.0
 _ZN10tensorflow23PartialTensorShapeUtils12AreIdenticalERKN4absl4SpanIKNS_18PartialTensorShapeEEES7_@Base 2.0.0
 _ZN10tensorflow23PartialTensorShapeUtils13AreCompatibleERKN4absl4SpanIKNS_18PartialTensorShapeEEES7_@Base 2.0.0
 _ZN10tensorflow23PartialTensorShapeUtils22PartialShapeListStringB5cxx11ERKN4absl4SpanIKNS_18PartialTensorShapeEEE@Base 2.0.0
 _ZN10tensorflow23RewriteFunctionCallNodeEPNS_4NodeEPNS_5GraphERKNS_25FunctionLibraryDefinitionEb@Base 2.0.0
 _ZN10tensorflow23RunOptions_Experimental12InternalSwapEPS0_@Base 2.0.0
 _ZN10tensorflow23RunOptions_Experimental14_InternalParseEPKcPN6google8protobuf8internal12ParseContextE@Base 2.0.0
 _ZN10tensorflow23RunOptions_Experimental16default_instanceEv@Base 2.0.0
 _ZN10tensorflow23RunOptions_Experimental21InitAsDefaultInstanceEv@Base 2.0.0
 _ZN10tensorflow23RunOptions_Experimental5ClearEv@Base 2.0.0
 _ZN10tensorflow23RunOptions_Experimental8CopyFromERKN6google8protobuf7MessageE@Base 2.0.0
 _ZN10tensorflow23RunOptions_Experimental8CopyFromERKS0_@Base 2.0.0
 _ZN10tensorflow23RunOptions_Experimental9ArenaDtorEPv@Base 2.0.0
 _ZN10tensorflow23RunOptions_Experimental9MergeFromERKN6google8protobuf7MessageE@Base 2.0.0
 _ZN10tensorflow23RunOptions_Experimental9MergeFromERKS0_@Base 2.0.0
 _ZN10tensorflow23RunOptions_ExperimentalC1EPN6google8protobuf5ArenaE@Base 2.0.0
 _ZN10tensorflow23RunOptions_ExperimentalC1ERKS0_@Base 2.0.0
 _ZN10tensorflow23RunOptions_ExperimentalC1Ev@Base 2.0.0
 _ZN10tensorflow23RunOptions_ExperimentalC2EPN6google8protobuf5ArenaE@Base 2.0.0
 _ZN10tensorflow23RunOptions_ExperimentalC2ERKS0_@Base 2.0.0
 _ZN10tensorflow23RunOptions_ExperimentalC2Ev@Base 2.0.0
 _ZN10tensorflow23RunOptions_ExperimentalD0Ev@Base 2.0.0
 _ZN10tensorflow23RunOptions_ExperimentalD1Ev@Base 2.0.0
 _ZN10tensorflow23RunOptions_ExperimentalD2Ev@Base 2.0.0
 _ZN10tensorflow23ScopedAllocatorInstance11AllocateRawEmm@Base 2.0.0
 _ZN10tensorflow23ScopedAllocatorInstance11AllocateRawEmmRKNS_20AllocationAttributesE@Base 2.0.0
 _ZN10tensorflow23ScopedAllocatorInstance13DeallocateRawEPv@Base 2.0.0
 _ZN10tensorflow23ScopedAllocatorInstance13DropFromTableEv@Base 2.0.0
 _ZN10tensorflow23ScopedAllocatorInstance4NameB5cxx11Ev@Base 2.0.0
 _ZN10tensorflow23ScopedAllocatorInstanceC1EPNS_15ScopedAllocatorEi@Base 2.0.0
 _ZN10tensorflow23ScopedAllocatorInstanceC2EPNS_15ScopedAllocatorEi@Base 2.0.0
 _ZN10tensorflow23ScopedAllocatorInstanceD0Ev@Base 2.0.0
 _ZN10tensorflow23ScopedAllocatorInstanceD1Ev@Base 2.0.0
 _ZN10tensorflow23ScopedAllocatorInstanceD2Ev@Base 2.0.0
 _ZN10tensorflow23SendTensorsToRendezvousEPNS_10RendezvousEPNS_13DeviceContextERKSt6vectorINS_19AllocatorAttributesESaIS5_EERKS4_INSt7__cxx1112basic_stringIcSt11char_traitsIcESaIcEEESaISF_EEN4absl4SpanIKNS_6TensorEEE@Base 2.0.0
 _ZN10tensorflow23SymbolicGradientBuilder12InitBackpropEv@Base 2.0.0
 _ZN10tensorflow23SymbolicGradientBuilder12SumGradientsERKNS_7NodeOutE@Base 2.0.0
 _ZN10tensorflow23SymbolicGradientBuilder17BackpropAlongEdgeERKNS_7NodeOutES3_@Base 2.0.0
 _ZN10tensorflow23SymbolicGradientBuilder22BackpropZerosAlongEdgeERKNS_7NodeOutE@Base 2.0.0
 _ZN10tensorflow23SymbolicGradientBuilder7ComputeEv@Base 2.0.0
 _ZN10tensorflow23SymbolicGradientBuilderC1EN4absl4SpanIKNS_7NodeOutEEES5_S5_PSt6vectorIS3_SaIS3_EEPNS_5GraphE@Base 2.0.0
 _ZN10tensorflow23SymbolicGradientBuilderC2EN4absl4SpanIKNS_7NodeOutEEES5_S5_PSt6vectorIS3_SaIS3_EEPNS_5GraphE@Base 2.0.0
 _ZN10tensorflow23TensorSliceProto_Extent12InternalSwapEPS0_@Base 2.0.0
 _ZN10tensorflow23TensorSliceProto_Extent14_InternalParseEPKcPN6google8protobuf8internal12ParseContextE@Base 2.0.0
 _ZN10tensorflow23TensorSliceProto_Extent16clear_has_lengthEv@Base 2.0.0
 _ZN10tensorflow23TensorSliceProto_Extent16default_instanceEv@Base 2.0.0
 _ZN10tensorflow23TensorSliceProto_Extent21InitAsDefaultInstanceEv@Base 2.0.0
 _ZN10tensorflow23TensorSliceProto_Extent5ClearEv@Base 2.0.0
 _ZN10tensorflow23TensorSliceProto_Extent8CopyFromERKN6google8protobuf7MessageE@Base 2.0.0
 _ZN10tensorflow23TensorSliceProto_Extent8CopyFromERKS0_@Base 2.0.0
 _ZN10tensorflow23TensorSliceProto_Extent9ArenaDtorEPv@Base 2.0.0
 _ZN10tensorflow23TensorSliceProto_Extent9MergeFromERKN6google8protobuf7MessageE@Base 2.0.0
 _ZN10tensorflow23TensorSliceProto_Extent9MergeFromERKS0_@Base 2.0.0
 _ZN10tensorflow23TensorSliceProto_ExtentC1EPN6google8protobuf5ArenaE@Base 2.0.0
 _ZN10tensorflow23TensorSliceProto_ExtentC1ERKS0_@Base 2.0.0
 _ZN10tensorflow23TensorSliceProto_ExtentC1Ev@Base 2.0.0
 _ZN10tensorflow23TensorSliceProto_ExtentC2EPN6google8protobuf5ArenaE@Base 2.0.0
 _ZN10tensorflow23TensorSliceProto_ExtentC2ERKS0_@Base 2.0.0
 _ZN10tensorflow23TensorSliceProto_ExtentC2Ev@Base 2.0.0
 _ZN10tensorflow23TensorSliceProto_ExtentD0Ev@Base 2.0.0
 _ZN10tensorflow23TensorSliceProto_ExtentD1Ev@Base 2.0.0
 _ZN10tensorflow23TensorSliceProto_ExtentD2Ev@Base 2.0.0
 _ZN10tensorflow23ThreadPoolDeviceFactory13CreateDevicesERKNS_14SessionOptionsERKNSt7__cxx1112basic_stringIcSt11char_traitsIcESaIcEEEPSt6vectorISt10unique_ptrINS_6DeviceESt14default_deleteISE_EESaISH_EE@Base 2.0.0
 _ZN10tensorflow23ThreadPoolDeviceFactory19ListPhysicalDevicesEPSt6vectorINSt7__cxx1112basic_stringIcSt11char_traitsIcESaIcEEESaIS7_EE@Base 2.0.0
 _ZN10tensorflow23ThreadPoolDeviceFactoryD0Ev@Base 2.0.0
 _ZN10tensorflow23ThreadPoolDeviceFactoryD1Ev@Base 2.0.0
 _ZN10tensorflow23ThreadPoolDeviceFactoryD2Ev@Base 2.0.0
 _ZN10tensorflow23WorkerHealth_descriptorEv@Base 2.0.0
 _ZN10tensorflow23WorkerHeartbeatResponse12InternalSwapEPS0_@Base 2.0.0
 _ZN10tensorflow23WorkerHeartbeatResponse14_InternalParseEPKcPN6google8protobuf8internal12ParseContextE@Base 2.0.0
 _ZN10tensorflow23WorkerHeartbeatResponse16default_instanceEv@Base 2.0.0
 _ZN10tensorflow23WorkerHeartbeatResponse21InitAsDefaultInstanceEv@Base 2.0.0
 _ZN10tensorflow23WorkerHeartbeatResponse5ClearEv@Base 2.0.0
 _ZN10tensorflow23WorkerHeartbeatResponse8CopyFromERKN6google8protobuf7MessageE@Base 2.0.0
 _ZN10tensorflow23WorkerHeartbeatResponse8CopyFromERKS0_@Base 2.0.0
 _ZN10tensorflow23WorkerHeartbeatResponse9ArenaDtorEPv@Base 2.0.0
 _ZN10tensorflow23WorkerHeartbeatResponse9MergeFromERKN6google8protobuf7MessageE@Base 2.0.0
 _ZN10tensorflow23WorkerHeartbeatResponse9MergeFromERKS0_@Base 2.0.0
 _ZN10tensorflow23WorkerHeartbeatResponseC1EPN6google8protobuf5ArenaE@Base 2.0.0
 _ZN10tensorflow23WorkerHeartbeatResponseC1ERKS0_@Base 2.0.0
 _ZN10tensorflow23WorkerHeartbeatResponseC1Ev@Base 2.0.0
 _ZN10tensorflow23WorkerHeartbeatResponseC2EPN6google8protobuf5ArenaE@Base 2.0.0
 _ZN10tensorflow23WorkerHeartbeatResponseC2ERKS0_@Base 2.0.0
 _ZN10tensorflow23WorkerHeartbeatResponseC2Ev@Base 2.0.0
 _ZN10tensorflow23WorkerHeartbeatResponseD0Ev@Base 2.0.0
 _ZN10tensorflow23WorkerHeartbeatResponseD1Ev@Base 2.0.0
 _ZN10tensorflow23WorkerHeartbeatResponseD2Ev@Base 2.0.0
 _ZN10tensorflow23kProtobufUint64TypenameE@Base 2.0.0
 _ZN10tensorflow24AddPrefixAndSuffixToNodeEN4absl11string_viewES1_PNS_7NodeDefEb@Base 2.0.0
 _ZN10tensorflow24AllocatorFactoryRegistry12FactoryEntryD1Ev@Base 2.0.0
 _ZN10tensorflow24AllocatorFactoryRegistry12FactoryEntryD2Ev@Base 2.0.0
 _ZN10tensorflow24AllocatorFactoryRegistry12GetAllocatorEv@Base 2.0.0
 _ZN10tensorflow24AllocatorFactoryRegistry15GetSubAllocatorEi@Base 2.0.0
 _ZN10tensorflow24AllocatorFactoryRegistry8RegisterEPKciRKNSt7__cxx1112basic_stringIcSt11char_traitsIcESaIcEEEiPNS_16AllocatorFactoryE@Base 2.0.0
 _ZN10tensorflow24AllocatorFactoryRegistry9singletonEv@Base 2.0.0
 _ZN10tensorflow24AreSerializedProtosEqualERKN6google8protobuf11MessageLiteES4_@Base 2.0.0
 _ZN10tensorflow24CPUAllocatorStatsEnabledEv@Base 2.0.0
 _ZN10tensorflow24ConfigProto_Experimental12InternalSwapEPS0_@Base 2.0.0
 _ZN10tensorflow24ConfigProto_Experimental14_InternalParseEPKcPN6google8protobuf8internal12ParseContextE@Base 2.0.0
 _ZN10tensorflow24ConfigProto_Experimental16default_instanceEv@Base 2.0.0
 _ZN10tensorflow24ConfigProto_Experimental21InitAsDefaultInstanceEv@Base 2.0.0
 _ZN10tensorflow24ConfigProto_Experimental43unsafe_arena_set_allocated_session_metadataEPNS_15SessionMetadataE@Base 2.0.0
 _ZN10tensorflow24ConfigProto_Experimental5ClearEv@Base 2.0.0
 _ZN10tensorflow24ConfigProto_Experimental8CopyFromERKN6google8protobuf7MessageE@Base 2.0.0
 _ZN10tensorflow24ConfigProto_Experimental8CopyFromERKS0_@Base 2.0.0
 _ZN10tensorflow24ConfigProto_Experimental9ArenaDtorEPv@Base 2.0.0
 _ZN10tensorflow24ConfigProto_Experimental9MergeFromERKN6google8protobuf7MessageE@Base 2.0.0
 _ZN10tensorflow24ConfigProto_Experimental9MergeFromERKS0_@Base 2.0.0
 _ZN10tensorflow24ConfigProto_Experimental9_Internal16session_metadataEPKS0_@Base 2.0.0
 _ZN10tensorflow24ConfigProto_ExperimentalC1EPN6google8protobuf5ArenaE@Base 2.0.0
 _ZN10tensorflow24ConfigProto_ExperimentalC1ERKS0_@Base 2.0.0
 _ZN10tensorflow24ConfigProto_ExperimentalC1Ev@Base 2.0.0
 _ZN10tensorflow24ConfigProto_ExperimentalC2EPN6google8protobuf5ArenaE@Base 2.0.0
 _ZN10tensorflow24ConfigProto_ExperimentalC2ERKS0_@Base 2.0.0
 _ZN10tensorflow24ConfigProto_ExperimentalC2Ev@Base 2.0.0
 _ZN10tensorflow24ConfigProto_ExperimentalD0Ev@Base 2.0.0
 _ZN10tensorflow24ConfigProto_ExperimentalD1Ev@Base 2.0.0
 _ZN10tensorflow24ConfigProto_ExperimentalD2Ev@Base 2.0.0
 _ZN10tensorflow24CreateNoOpStatsPublisherERKNSt7__cxx1112basic_stringIcSt11char_traitsIcESaIcEEERKNS_17BuildGraphOptionsERKNS_14SessionOptionsE@Base 2.0.0
 _ZN10tensorflow24DecodeResourceHandleListESt10unique_ptrINS_4port17StringListDecoderESt14default_deleteIS2_EEPNS_14ResourceHandleEx@Base 2.0.0
 _ZN10tensorflow24DeterministicProtoHash64ERKN6google8protobuf11MessageLiteE@Base 2.0.0
 _ZN10tensorflow24DeterministicProtoHash64ERKN6google8protobuf11MessageLiteEy@Base 2.0.0
 _ZN10tensorflow24EncodeResourceHandleListEPKNS_14ResourceHandleExSt10unique_ptrINS_4port17StringListEncoderESt14default_deleteIS5_EE@Base 2.0.0
 _ZN10tensorflow24GetTensorFeatureDimIndexEiNS_12TensorFormatE@Base 2.0.0
 _ZN10tensorflow24GetTensorSpatialDimIndexEiNS_12TensorFormatEi@Base 2.0.0
 _ZN10tensorflow24KernelDef_AttrConstraint12InternalSwapEPS0_@Base 2.0.0
 _ZN10tensorflow24KernelDef_AttrConstraint14_InternalParseEPKcPN6google8protobuf8internal12ParseContextE@Base 2.0.0
 _ZN10tensorflow24KernelDef_AttrConstraint16default_instanceEv@Base 2.0.0
 _ZN10tensorflow24KernelDef_AttrConstraint20clear_allowed_valuesEv@Base 2.0.0
 _ZN10tensorflow24KernelDef_AttrConstraint21InitAsDefaultInstanceEv@Base 2.0.0
 _ZN10tensorflow24KernelDef_AttrConstraint41unsafe_arena_set_allocated_allowed_valuesEPNS_9AttrValueE@Base 2.0.0
 _ZN10tensorflow24KernelDef_AttrConstraint5ClearEv@Base 2.0.0
 _ZN10tensorflow24KernelDef_AttrConstraint8CopyFromERKN6google8protobuf7MessageE@Base 2.0.0
 _ZN10tensorflow24KernelDef_AttrConstraint8CopyFromERKS0_@Base 2.0.0
 _ZN10tensorflow24KernelDef_AttrConstraint9ArenaDtorEPv@Base 2.0.0
 _ZN10tensorflow24KernelDef_AttrConstraint9MergeFromERKN6google8protobuf7MessageE@Base 2.0.0
 _ZN10tensorflow24KernelDef_AttrConstraint9MergeFromERKS0_@Base 2.0.0
 _ZN10tensorflow24KernelDef_AttrConstraint9_Internal14allowed_valuesEPKS0_@Base 2.0.0
 _ZN10tensorflow24KernelDef_AttrConstraintC1EPN6google8protobuf5ArenaE@Base 2.0.0
 _ZN10tensorflow24KernelDef_AttrConstraintC1ERKS0_@Base 2.0.0
 _ZN10tensorflow24KernelDef_AttrConstraintC1Ev@Base 2.0.0
 _ZN10tensorflow24KernelDef_AttrConstraintC2EPN6google8protobuf5ArenaE@Base 2.0.0
 _ZN10tensorflow24KernelDef_AttrConstraintC2ERKS0_@Base 2.0.0
 _ZN10tensorflow24KernelDef_AttrConstraintC2Ev@Base 2.0.0
 _ZN10tensorflow24KernelDef_AttrConstraintD0Ev@Base 2.0.0
 _ZN10tensorflow24KernelDef_AttrConstraintD1Ev@Base 2.0.0
 _ZN10tensorflow24KernelDef_AttrConstraintD2Ev@Base 2.0.0
 _ZN10tensorflow24LogMessage_Level_IsValidEi@Base 2.0.0
 _ZN10tensorflow24MaybeSavedModelDirectoryERKNSt7__cxx1112basic_stringIcSt11char_traitsIcESaIcEEE@Base 2.0.0
 _ZN10tensorflow24MemoryLogRawDeallocation12InternalSwapEPS0_@Base 2.0.0
 _ZN10tensorflow24MemoryLogRawDeallocation14_InternalParseEPKcPN6google8protobuf8internal12ParseContextE@Base 2.0.0
 _ZN10tensorflow24MemoryLogRawDeallocation16default_instanceEv@Base 2.0.0
 _ZN10tensorflow24MemoryLogRawDeallocation21InitAsDefaultInstanceEv@Base 2.0.0
 _ZN10tensorflow24MemoryLogRawDeallocation5ClearEv@Base 2.0.0
 _ZN10tensorflow24MemoryLogRawDeallocation8CopyFromERKN6google8protobuf7MessageE@Base 2.0.0
 _ZN10tensorflow24MemoryLogRawDeallocation8CopyFromERKS0_@Base 2.0.0
 _ZN10tensorflow24MemoryLogRawDeallocation9ArenaDtorEPv@Base 2.0.0
 _ZN10tensorflow24MemoryLogRawDeallocation9MergeFromERKN6google8protobuf7MessageE@Base 2.0.0
 _ZN10tensorflow24MemoryLogRawDeallocation9MergeFromERKS0_@Base 2.0.0
 _ZN10tensorflow24MemoryLogRawDeallocationC1EPN6google8protobuf5ArenaE@Base 2.0.0
 _ZN10tensorflow24MemoryLogRawDeallocationC1ERKS0_@Base 2.0.0
 _ZN10tensorflow24MemoryLogRawDeallocationC1Ev@Base 2.0.0
 _ZN10tensorflow24MemoryLogRawDeallocationC2EPN6google8protobuf5ArenaE@Base 2.0.0
 _ZN10tensorflow24MemoryLogRawDeallocationC2ERKS0_@Base 2.0.0
 _ZN10tensorflow24MemoryLogRawDeallocationC2Ev@Base 2.0.0
 _ZN10tensorflow24MemoryLogRawDeallocationD0Ev@Base 2.0.0
 _ZN10tensorflow24MemoryLogRawDeallocationD1Ev@Base 2.0.0
 _ZN10tensorflow24MemoryLogRawDeallocationD2Ev@Base 2.0.0
 _ZN10tensorflow24MetaGraphDef_MetaInfoDef12InternalSwapEPS0_@Base 2.0.0
 _ZN10tensorflow24MetaGraphDef_MetaInfoDef14_InternalParseEPKcPN6google8protobuf8internal12ParseContextE@Base 2.0.0
 _ZN10tensorflow24MetaGraphDef_MetaInfoDef14clear_any_infoEv@Base 2.0.0
 _ZN10tensorflow24MetaGraphDef_MetaInfoDef16default_instanceEv@Base 2.0.0
 _ZN10tensorflow24MetaGraphDef_MetaInfoDef21InitAsDefaultInstanceEv@Base 2.0.0
 _ZN10tensorflow24MetaGraphDef_MetaInfoDef22clear_stripped_op_listEv@Base 2.0.0
 _ZN10tensorflow24MetaGraphDef_MetaInfoDef35unsafe_arena_set_allocated_any_infoEPN6google8protobuf3AnyE@Base 2.0.0
 _ZN10tensorflow24MetaGraphDef_MetaInfoDef43unsafe_arena_set_allocated_stripped_op_listEPNS_6OpListE@Base 2.0.0
 _ZN10tensorflow24MetaGraphDef_MetaInfoDef5ClearEv@Base 2.0.0
 _ZN10tensorflow24MetaGraphDef_MetaInfoDef8CopyFromERKN6google8protobuf7MessageE@Base 2.0.0
 _ZN10tensorflow24MetaGraphDef_MetaInfoDef8CopyFromERKS0_@Base 2.0.0
 _ZN10tensorflow24MetaGraphDef_MetaInfoDef9ArenaDtorEPv@Base 2.0.0
 _ZN10tensorflow24MetaGraphDef_MetaInfoDef9MergeFromERKN6google8protobuf7MessageE@Base 2.0.0
 _ZN10tensorflow24MetaGraphDef_MetaInfoDef9MergeFromERKS0_@Base 2.0.0
 _ZN10tensorflow24MetaGraphDef_MetaInfoDef9_Internal16stripped_op_listEPKS0_@Base 2.0.0
 _ZN10tensorflow24MetaGraphDef_MetaInfoDef9_Internal8any_infoEPKS0_@Base 2.0.0
 _ZN10tensorflow24MetaGraphDef_MetaInfoDefC1EPN6google8protobuf5ArenaE@Base 2.0.0
 _ZN10tensorflow24MetaGraphDef_MetaInfoDefC1ERKS0_@Base 2.0.0
 _ZN10tensorflow24MetaGraphDef_MetaInfoDefC1Ev@Base 2.0.0
 _ZN10tensorflow24MetaGraphDef_MetaInfoDefC2EPN6google8protobuf5ArenaE@Base 2.0.0
 _ZN10tensorflow24MetaGraphDef_MetaInfoDefC2ERKS0_@Base 2.0.0
 _ZN10tensorflow24MetaGraphDef_MetaInfoDefC2Ev@Base 2.0.0
 _ZN10tensorflow24MetaGraphDef_MetaInfoDefD0Ev@Base 2.0.0
 _ZN10tensorflow24MetaGraphDef_MetaInfoDefD1Ev@Base 2.0.0
 _ZN10tensorflow24MetaGraphDef_MetaInfoDefD2Ev@Base 2.0.0
 _ZN10tensorflow24OptimizationPassRegistry11LogGroupingENS0_8GroupingEi@Base 2.0.0
 _ZN10tensorflow24OptimizationPassRegistry11RunGroupingENS0_8GroupingERKNS_28GraphOptimizationPassOptionsE@Base 2.0.0
 _ZN10tensorflow24OptimizationPassRegistry15LogAllGroupingsEi@Base 2.0.0
 _ZN10tensorflow24OptimizationPassRegistry6GlobalEv@Base 2.0.0
 _ZN10tensorflow24OptimizationPassRegistry8RegisterENS0_8GroupingEiSt10unique_ptrINS_21GraphOptimizationPassESt14default_deleteIS3_EE@Base 2.0.0
 _ZN10tensorflow24RemoveListArrayConverterEPNS_5GraphE@Base 2.0.0
 _ZN10tensorflow24ScopedAllocatorContainer11GetInstanceEi@Base 2.0.0
 _ZN10tensorflow24ScopedAllocatorContainer12GetAllocatorEi@Base 2.0.0
 _ZN10tensorflow24ScopedAllocatorContainer18AddScopedAllocatorERKNS_6TensorEiRKNSt7__cxx1112basic_stringIcSt11char_traitsIcESaIcEEERKN4absl4SpanIKNS_15ScopedAllocator5FieldEEEi@Base 2.0.0
 _ZN10tensorflow24ScopedAllocatorContainer4DropEiPNS_15ScopedAllocatorE@Base 2.0.0
 _ZN10tensorflow24ScopedAllocatorContainerD0Ev@Base 2.0.0
 _ZN10tensorflow24ScopedAllocatorContainerD1Ev@Base 2.0.0
 _ZN10tensorflow24ScopedAllocatorContainerD2Ev@Base 2.0.0
 _ZN10tensorflow24TfCheckOpHelperOutOfLineB5cxx11ERKNS_6StatusEPKc@Base 2.0.0
 _ZN10tensorflow24_Event_default_instance_E@Base 2.0.0
 _ZN10tensorflow24_OpDef_default_instance_E@Base 2.0.0
 _ZN10tensorflow24kTensorBundleMinConsumerE@Base 2.0.0
 _ZN10tensorflow24kTensorBundleMinProducerE@Base 2.0.0
 _ZN10tensorflow24per_thread_max_parallismE@Base 2.0.0
 _ZN10tensorflow25AddDefaultAttrsToGraphDefEPNS_8GraphDefERKNS_19OpRegistryInterfaceEi@Base 2.0.0
 _ZN10tensorflow25AddDefaultAttrsToGraphDefEPNS_8GraphDefERKNS_19OpRegistryInterfaceEib@Base 2.0.0
 _ZN10tensorflow25ApiDef_Visibility_IsValidEi@Base 2.0.0
 _ZN10tensorflow25BrainPadding2EigenPaddingENS_7PaddingE@Base 2.0.0
 _ZN10tensorflow25ComputeEngineZoneProvider7GetZoneEPNSt7__cxx1112basic_stringIcSt11char_traitsIcESaIcEEE@Base 2.0.0
 _ZN10tensorflow25ComputeEngineZoneProviderC1ESt10shared_ptrINS_27ComputeEngineMetadataClientEE@Base 2.0.0
 _ZN10tensorflow25ComputeEngineZoneProviderC2ESt10shared_ptrINS_27ComputeEngineMetadataClientEE@Base 2.0.0
 _ZN10tensorflow25ComputeEngineZoneProviderD0Ev@Base 2.0.0
 _ZN10tensorflow25ComputeEngineZoneProviderD1Ev@Base 2.0.0
 _ZN10tensorflow25ComputeEngineZoneProviderD2Ev@Base 2.0.0
 _ZN10tensorflow25DebugCudnnRnnUseTensorOpsEv@Base 2.0.0
 _ZN10tensorflow25EnumName_LogMessage_LevelENS_16LogMessage_LevelE@Base 2.0.0
 _ZN10tensorflow25FunctionLibraryDefinition10AddLibraryERKNS_18FunctionDefLibraryE@Base 2.0.0
 _ZN10tensorflow25FunctionLibraryDefinition10AddLibraryERKS0_@Base 2.0.0
 _ZN10tensorflow25FunctionLibraryDefinition11kGradientOpE@Base 2.0.0
 _ZN10tensorflow25FunctionLibraryDefinition12kDeviceArgOpE@Base 2.0.0
 _ZN10tensorflow25FunctionLibraryDefinition12kDeviceRetOpE@Base 2.0.0
 _ZN10tensorflow25FunctionLibraryDefinition14AddFunctionDefERKNS_11FunctionDefE@Base 2.0.0
 _ZN10tensorflow25FunctionLibraryDefinition14AddGradientDefERKNS_11GradientDefE@Base 2.0.0
 _ZN10tensorflow25FunctionLibraryDefinition14RemoveFunctionERKNSt7__cxx1112basic_stringIcSt11char_traitsIcESaIcEEE@Base 2.0.0
 _ZN10tensorflow25FunctionLibraryDefinition14RemoveGradientERKNSt7__cxx1112basic_stringIcSt11char_traitsIcESaIcEEE@Base 2.0.0
 _ZN10tensorflow25FunctionLibraryDefinition15ReplaceFunctionERKNSt7__cxx1112basic_stringIcSt11char_traitsIcESaIcEEERKNS_11FunctionDefE@Base 2.0.0
 _ZN10tensorflow25FunctionLibraryDefinition15ReplaceGradientERKNS_11GradientDefE@Base 2.0.0
 _ZN10tensorflow25FunctionLibraryDefinition17kIntsOnDeviceAttrE@Base 2.0.0
 _ZN10tensorflow25FunctionLibraryDefinition19CopyFunctionDefFromERKNSt7__cxx1112basic_stringIcSt11char_traitsIcESaIcEEERKS0_@Base 2.0.0
 _ZN10tensorflow25FunctionLibraryDefinition20AddFunctionDefHelperERKNS_11FunctionDefEPb@Base 2.0.0
 _ZN10tensorflow25FunctionLibraryDefinition20AddGradientDefHelperERKNS_11GradientDefEPb@Base 2.0.0
 _ZN10tensorflow25FunctionLibraryDefinition20RemoveFunctionHelperERKNSt7__cxx1112basic_stringIcSt11char_traitsIcESaIcEEE@Base 2.0.0
 _ZN10tensorflow25FunctionLibraryDefinition28FunctionDefAndOpRegistrationC1ERKNS_11FunctionDefE@Base 2.0.0
 _ZN10tensorflow25FunctionLibraryDefinition28FunctionDefAndOpRegistrationC2ERKNS_11FunctionDefE@Base 2.0.0
 _ZN10tensorflow25FunctionLibraryDefinition6RemoveERKSt6vectorINSt7__cxx1112basic_stringIcSt11char_traitsIcESaIcEEESaIS7_EESB_@Base 2.0.0
 _ZN10tensorflow25FunctionLibraryDefinition6kArgOpE@Base 2.0.0
 _ZN10tensorflow25FunctionLibraryDefinition6kRetOpE@Base 2.0.0
 _ZN10tensorflow25FunctionLibraryDefinition9AddHelperESt10shared_ptrINS0_28FunctionDefAndOpRegistrationEEPb@Base 2.0.0
 _ZN10tensorflow25FunctionLibraryDefinition9kFuncAttrE@Base 2.0.0
 _ZN10tensorflow25FunctionLibraryDefinitionC1EPKNS_19OpRegistryInterfaceERKNS_18FunctionDefLibraryE@Base 2.0.0
 _ZN10tensorflow25FunctionLibraryDefinitionC1ERKS0_@Base 2.0.0
 _ZN10tensorflow25FunctionLibraryDefinitionC2EPKNS_19OpRegistryInterfaceERKNS_18FunctionDefLibraryE@Base 2.0.0
 _ZN10tensorflow25FunctionLibraryDefinitionC2ERKS0_@Base 2.0.0
 _ZN10tensorflow25FunctionLibraryDefinitionD0Ev@Base 2.0.0
 _ZN10tensorflow25FunctionLibraryDefinitionD1Ev@Base 2.0.0
 _ZN10tensorflow25FunctionLibraryDefinitionD2Ev@Base 2.0.0
 _ZN10tensorflow25GetRegisteredKernelsForOpEN4absl11string_viewE@Base 2.0.0
 _ZN10tensorflow25GraphDebugInfo_StackTrace12InternalSwapEPS0_@Base 2.0.0
 _ZN10tensorflow25GraphDebugInfo_StackTrace14_InternalParseEPKcPN6google8protobuf8internal12ParseContextE@Base 2.0.0
 _ZN10tensorflow25GraphDebugInfo_StackTrace16default_instanceEv@Base 2.0.0
 _ZN10tensorflow25GraphDebugInfo_StackTrace21InitAsDefaultInstanceEv@Base 2.0.0
 _ZN10tensorflow25GraphDebugInfo_StackTrace5ClearEv@Base 2.0.0
 _ZN10tensorflow25GraphDebugInfo_StackTrace8CopyFromERKN6google8protobuf7MessageE@Base 2.0.0
 _ZN10tensorflow25GraphDebugInfo_StackTrace8CopyFromERKS0_@Base 2.0.0
 _ZN10tensorflow25GraphDebugInfo_StackTrace9ArenaDtorEPv@Base 2.0.0
 _ZN10tensorflow25GraphDebugInfo_StackTrace9MergeFromERKN6google8protobuf7MessageE@Base 2.0.0
 _ZN10tensorflow25GraphDebugInfo_StackTrace9MergeFromERKS0_@Base 2.0.0
 _ZN10tensorflow25GraphDebugInfo_StackTraceC1EPN6google8protobuf5ArenaE@Base 2.0.0
 _ZN10tensorflow25GraphDebugInfo_StackTraceC1ERKS0_@Base 2.0.0
 _ZN10tensorflow25GraphDebugInfo_StackTraceC1Ev@Base 2.0.0
 _ZN10tensorflow25GraphDebugInfo_StackTraceC2EPN6google8protobuf5ArenaE@Base 2.0.0
 _ZN10tensorflow25GraphDebugInfo_StackTraceC2ERKS0_@Base 2.0.0
 _ZN10tensorflow25GraphDebugInfo_StackTraceC2Ev@Base 2.0.0
 _ZN10tensorflow25GraphDebugInfo_StackTraceD0Ev@Base 2.0.0
 _ZN10tensorflow25GraphDebugInfo_StackTraceD1Ev@Base 2.0.0
 _ZN10tensorflow25GraphDebugInfo_StackTraceD2Ev@Base 2.0.0
 _ZN10tensorflow25InlinedFunctionBodyPlacer13DefaultPlacerERKNS_5GraphERKNS_4NodeE@Base 2.0.0
 _ZN10tensorflow25InlinedFunctionBodyPlacer17MultiDevicePlacerERKNS_5GraphERKNS_4NodeE@Base 2.0.0
 _ZN10tensorflow25InlinedFunctionBodyPlacer18SingleDevicePlacerERKNS_5GraphERKNS_4NodeE@Base 2.0.0
 _ZN10tensorflow25InlinedFunctionBodyPlacer6ConfigD1Ev@Base 2.0.0
 _ZN10tensorflow25InlinedFunctionBodyPlacer6ConfigD2Ev@Base 2.0.0
 _ZN10tensorflow25IsSymbolicExecutionDeviceEN4absl11string_viewE@Base 2.0.0
 _ZN10tensorflow25MemmappedFileSystemWriter10SaveTensorERKNS_6TensorERKNSt7__cxx1112basic_stringIcSt11char_traitsIcESaIcEEE@Base 2.0.0
 _ZN10tensorflow25MemmappedFileSystemWriter12SaveProtobufERKN6google8protobuf11MessageLiteERKNSt7__cxx1112basic_stringIcSt11char_traitsIcESaIcEEE@Base 2.0.0
 _ZN10tensorflow25MemmappedFileSystemWriter13FlushAndCloseEv@Base 2.0.0
 _ZN10tensorflow25MemmappedFileSystemWriter15AdjustAlignmentEy@Base 2.0.0
 _ZN10tensorflow25MemmappedFileSystemWriter16InitializeToFileEPNS_3EnvERKNSt7__cxx1112basic_stringIcSt11char_traitsIcESaIcEEE@Base 2.0.0
 _ZN10tensorflow25MemmappedFileSystemWriter21AddToDirectoryElementERKNSt7__cxx1112basic_stringIcSt11char_traitsIcESaIcEEEy@Base 2.0.0
 _ZN10tensorflow25MemoryLogTensorAllocation12InternalSwapEPS0_@Base 2.0.0
 _ZN10tensorflow25MemoryLogTensorAllocation12clear_tensorEv@Base 2.0.0
 _ZN10tensorflow25MemoryLogTensorAllocation14_InternalParseEPKcPN6google8protobuf8internal12ParseContextE@Base 2.0.0
 _ZN10tensorflow25MemoryLogTensorAllocation16default_instanceEv@Base 2.0.0
 _ZN10tensorflow25MemoryLogTensorAllocation21InitAsDefaultInstanceEv@Base 2.0.0
 _ZN10tensorflow25MemoryLogTensorAllocation33unsafe_arena_set_allocated_tensorEPNS_17TensorDescriptionE@Base 2.0.0
 _ZN10tensorflow25MemoryLogTensorAllocation5ClearEv@Base 2.0.0
 _ZN10tensorflow25MemoryLogTensorAllocation8CopyFromERKN6google8protobuf7MessageE@Base 2.0.0
 _ZN10tensorflow25MemoryLogTensorAllocation8CopyFromERKS0_@Base 2.0.0
 _ZN10tensorflow25MemoryLogTensorAllocation9ArenaDtorEPv@Base 2.0.0
 _ZN10tensorflow25MemoryLogTensorAllocation9MergeFromERKN6google8protobuf7MessageE@Base 2.0.0
 _ZN10tensorflow25MemoryLogTensorAllocation9MergeFromERKS0_@Base 2.0.0
 _ZN10tensorflow25MemoryLogTensorAllocation9_Internal6tensorEPKS0_@Base 2.0.0
 _ZN10tensorflow25MemoryLogTensorAllocationC1EPN6google8protobuf5ArenaE@Base 2.0.0
 _ZN10tensorflow25MemoryLogTensorAllocationC1ERKS0_@Base 2.0.0
 _ZN10tensorflow25MemoryLogTensorAllocationC1Ev@Base 2.0.0
 _ZN10tensorflow25MemoryLogTensorAllocationC2EPN6google8protobuf5ArenaE@Base 2.0.0
 _ZN10tensorflow25MemoryLogTensorAllocationC2ERKS0_@Base 2.0.0
 _ZN10tensorflow25MemoryLogTensorAllocationC2Ev@Base 2.0.0
 _ZN10tensorflow25MemoryLogTensorAllocationD0Ev@Base 2.0.0
 _ZN10tensorflow25MemoryLogTensorAllocationD1Ev@Base 2.0.0
 _ZN10tensorflow25MemoryLogTensorAllocationD2Ev@Base 2.0.0
 _ZN10tensorflow25NewFunctionLibraryRuntimeEPKNS_9DeviceMgrEPNS_3EnvEPNS_6DeviceEiPKNS_25FunctionLibraryDefinitionEPNS_6thread10ThreadPoolERKNS_16OptimizerOptionsEPKNS_19CustomKernelCreatorEPNS_29ProcessFunctionLibraryRuntimeE@Base 2.0.0
 _ZN10tensorflow25OpInfo_AttrEntry_DoNotUse9MergeFromERKN6google8protobuf7MessageE@Base 2.0.0
 _ZN10tensorflow25OpInfo_AttrEntry_DoNotUse9MergeFromERKS0_@Base 2.0.0
 _ZN10tensorflow25OpInfo_AttrEntry_DoNotUseC1EPN6google8protobuf5ArenaE@Base 2.0.0
 _ZN10tensorflow25OpInfo_AttrEntry_DoNotUseC1Ev@Base 2.0.0
 _ZN10tensorflow25OpInfo_AttrEntry_DoNotUseC2EPN6google8protobuf5ArenaE@Base 2.0.0
 _ZN10tensorflow25OpInfo_AttrEntry_DoNotUseC2Ev@Base 2.0.0
 _ZN10tensorflow25OpInfo_AttrEntry_DoNotUseD0Ev@Base 2.0.0
 _ZN10tensorflow25OpInfo_AttrEntry_DoNotUseD1Ev@Base 2.0.0
 _ZN10tensorflow25OpInfo_AttrEntry_DoNotUseD2Ev@Base 2.0.0
 _ZN10tensorflow25ParseSequenceExampleAttrs10FinishInitEv@Base 2.0.0
 _ZN10tensorflow25PosixReadOnlyMemoryRegion4dataEv@Base 2.0.0
 _ZN10tensorflow25PosixReadOnlyMemoryRegion6lengthEv@Base 2.0.0
 _ZN10tensorflow25PosixReadOnlyMemoryRegionD0Ev@Base 2.0.0
 _ZN10tensorflow25PosixReadOnlyMemoryRegionD1Ev@Base 2.0.0
 _ZN10tensorflow25PosixReadOnlyMemoryRegionD2Ev@Base 2.0.0
 _ZN10tensorflow25RecvOutputsFromRendezvousEPNS_10RendezvousEPSt3mapINSt7__cxx1112basic_stringIcSt11char_traitsIcESaIcEEENS_6TensorESt4lessIS8_ESaISt4pairIKS8_S9_EEERKNS0_4ArgsE@Base 2.0.0
 _ZN10tensorflow25SavedBareConcreteFunction12InternalSwapEPS0_@Base 2.0.0
 _ZN10tensorflow25SavedBareConcreteFunction14_InternalParseEPKcPN6google8protobuf8internal12ParseContextE@Base 2.0.0
 _ZN10tensorflow25SavedBareConcreteFunction16default_instanceEv@Base 2.0.0
 _ZN10tensorflow25SavedBareConcreteFunction21InitAsDefaultInstanceEv@Base 2.0.0
 _ZN10tensorflow25SavedBareConcreteFunction5ClearEv@Base 2.0.0
 _ZN10tensorflow25SavedBareConcreteFunction8CopyFromERKN6google8protobuf7MessageE@Base 2.0.0
 _ZN10tensorflow25SavedBareConcreteFunction8CopyFromERKS0_@Base 2.0.0
 _ZN10tensorflow25SavedBareConcreteFunction9ArenaDtorEPv@Base 2.0.0
 _ZN10tensorflow25SavedBareConcreteFunction9MergeFromERKN6google8protobuf7MessageE@Base 2.0.0
 _ZN10tensorflow25SavedBareConcreteFunction9MergeFromERKS0_@Base 2.0.0
 _ZN10tensorflow25SavedBareConcreteFunctionC1EPN6google8protobuf5ArenaE@Base 2.0.0
 _ZN10tensorflow25SavedBareConcreteFunctionC1ERKS0_@Base 2.0.0
 _ZN10tensorflow25SavedBareConcreteFunctionC1Ev@Base 2.0.0
 _ZN10tensorflow25SavedBareConcreteFunctionC2EPN6google8protobuf5ArenaE@Base 2.0.0
 _ZN10tensorflow25SavedBareConcreteFunctionC2ERKS0_@Base 2.0.0
 _ZN10tensorflow25SavedBareConcreteFunctionC2Ev@Base 2.0.0
 _ZN10tensorflow25SavedBareConcreteFunctionD0Ev@Base 2.0.0
 _ZN10tensorflow25SavedBareConcreteFunctionD1Ev@Base 2.0.0
 _ZN10tensorflow25SavedBareConcreteFunctionD2Ev@Base 2.0.0
 _ZN10tensorflow25ValidateGPUMachineManagerEv@Base 2.0.0
 _ZN10tensorflow25_ApiDef_default_instance_E@Base 2.0.0
 _ZN10tensorflow25_JobDef_default_instance_E@Base 2.0.0
 _ZN10tensorflow25_OpInfo_default_instance_E@Base 2.0.0
 _ZN10tensorflow25_OpList_default_instance_E@Base 2.0.0
 _ZN10tensorflow26AddSymbolicExecutionDeviceEN4absl11string_viewE@Base 2.0.0
 _ZN10tensorflow26BatchExampleProtoToTensorsERKSt6vectorIPKNS_7ExampleESaIS3_EERKS0_INSt7__cxx1112basic_stringIcSt11char_traitsIcESaIcEEESaISD_EERKS0_INS_15FixedLenFeatureESaISI_EERKS0_INS_13VarLenFeatureESaISN_EEPNS_9AllocatorEPS0_INS_6TensorESaISU_EESX_SX_SX_@Base 2.0.0
 _ZN10tensorflow26EnumName_ApiDef_VisibilityENS_17ApiDef_VisibilityE@Base 2.0.0
 _ZN10tensorflow26ExampleParserConfiguration12InternalSwapEPS0_@Base 2.0.0
 _ZN10tensorflow26ExampleParserConfiguration14_InternalParseEPKcPN6google8protobuf8internal12ParseContextE@Base 2.0.0
 _ZN10tensorflow26ExampleParserConfiguration16default_instanceEv@Base 2.0.0
 _ZN10tensorflow26ExampleParserConfiguration21InitAsDefaultInstanceEv@Base 2.0.0
 _ZN10tensorflow26ExampleParserConfiguration5ClearEv@Base 2.0.0
 _ZN10tensorflow26ExampleParserConfiguration8CopyFromERKN6google8protobuf7MessageE@Base 2.0.0
 _ZN10tensorflow26ExampleParserConfiguration8CopyFromERKS0_@Base 2.0.0
 _ZN10tensorflow26ExampleParserConfiguration9ArenaDtorEPv@Base 2.0.0
 _ZN10tensorflow26ExampleParserConfiguration9MergeFromERKN6google8protobuf7MessageE@Base 2.0.0
 _ZN10tensorflow26ExampleParserConfiguration9MergeFromERKS0_@Base 2.0.0
 _ZN10tensorflow26ExampleParserConfigurationC1EPN6google8protobuf5ArenaE@Base 2.0.0
 _ZN10tensorflow26ExampleParserConfigurationC1ERKS0_@Base 2.0.0
 _ZN10tensorflow26ExampleParserConfigurationC1Ev@Base 2.0.0
 _ZN10tensorflow26ExampleParserConfigurationC2EPN6google8protobuf5ArenaE@Base 2.0.0
 _ZN10tensorflow26ExampleParserConfigurationC2ERKS0_@Base 2.0.0
 _ZN10tensorflow26ExampleParserConfigurationC2Ev@Base 2.0.0
 _ZN10tensorflow26ExampleParserConfigurationD0Ev@Base 2.0.0
 _ZN10tensorflow26ExampleParserConfigurationD1Ev@Base 2.0.0
 _ZN10tensorflow26ExampleParserConfigurationD2Ev@Base 2.0.0
 _ZN10tensorflow26FunctionLibraryRuntimeImpl10CreateItemEPPNS0_4ItemE@Base 2.0.0
 _ZN10tensorflow26FunctionLibraryRuntimeImpl11DebugStringB5cxx11Ey@Base 2.0.0
 _ZN10tensorflow26FunctionLibraryRuntimeImpl11GetRetTypesEyPN4absl13InlinedVectorINS_8DataTypeELm4ESaIS3_EEE@Base 2.0.0
 _ZN10tensorflow26FunctionLibraryRuntimeImpl11InstantiateERKNSt7__cxx1112basic_stringIcSt11char_traitsIcESaIcEEENS_9AttrSliceERKNS_22FunctionLibraryRuntime18InstantiateOptionsEPy@Base 2.0.0
 _ZN10tensorflow26FunctionLibraryRuntimeImpl12CreateKernelERKNS_7NodeDefEPNS_22FunctionLibraryRuntimeEPPNS_8OpKernelE@Base 2.0.0
 _ZN10tensorflow26FunctionLibraryRuntimeImpl12CreateKernelERKNS_7NodeDefEPPNS_8OpKernelE@Base 2.0.0
 _ZN10tensorflow26FunctionLibraryRuntimeImpl13ReleaseHandleEy@Base 2.0.0
 _ZN10tensorflow26FunctionLibraryRuntimeImpl15GetFunctionBodyEy@Base 2.0.0
 _ZN10tensorflow26FunctionLibraryRuntimeImpl15GetOrCreateItemEyPPNS0_4ItemE@Base 2.0.0
 _ZN10tensorflow26FunctionLibraryRuntimeImpl17FunctionDefToBodyERKNS_11FunctionDefENS_9AttrSliceEPKNS_25FunctionLibraryDefinitionEPSt10unique_ptrINS_12FunctionBodyESt14default_deleteIS9_EE@Base 2.0.0
 _ZN10tensorflow26FunctionLibraryRuntimeImpl23ExecutorArgsFromOptionsERKNS_22FunctionLibraryRuntime7OptionsEPNS_18CallFrameInterfaceEPNS_8Executor4ArgsE@Base 2.0.0
 _ZN10tensorflow26FunctionLibraryRuntimeImpl27InstantiateSymbolicGradientERKNS_12NameAttrListEPKNS_25FunctionLibraryDefinitionEPSt10unique_ptrINS_12FunctionBodyESt14default_deleteIS8_EE@Base 2.0.0
 _ZN10tensorflow26FunctionLibraryRuntimeImpl3RunERKNS_22FunctionLibraryRuntime7OptionsEyN4absl4SpanIKNS_6TensorEEEPSt6vectorIS7_SaIS7_EESt8functionIFvRKNS_6StatusEEE@Base 2.0.0
 _ZN10tensorflow26FunctionLibraryRuntimeImpl3RunERKNS_22FunctionLibraryRuntime7OptionsEyPNS_18CallFrameInterfaceESt8functionIFvRKNS_6StatusEEE@Base 2.0.0
 _ZN10tensorflow26FunctionLibraryRuntimeImpl3envEv@Base 2.0.0
 _ZN10tensorflow26FunctionLibraryRuntimeImpl5CloneEPSt10unique_ptrINS_25FunctionLibraryDefinitionESt14default_deleteIS2_EEPS1_INS_29ProcessFunctionLibraryRuntimeES3_IS7_EEPPNS_22FunctionLibraryRuntimeEb@Base 2.0.0
 _ZN10tensorflow26FunctionLibraryRuntimeImpl6deviceEv@Base 2.0.0
 _ZN10tensorflow26FunctionLibraryRuntimeImpl6runnerEv@Base 2.0.0
 _ZN10tensorflow26FunctionLibraryRuntimeImpl9RunRemoteERKNS_22FunctionLibraryRuntime7OptionsEyN4absl4SpanIKNS_6TensorEEEPSt6vectorIS7_SaIS7_EEPNS0_4ItemESt8functionIFvRKNS_6StatusEEE@Base 2.0.0
 _ZN10tensorflow26FunctionLibraryRuntimeImplC1EPKNS_9DeviceMgrEPNS_3EnvEPNS_6DeviceEiPKNS_25FunctionLibraryDefinitionEPNS_6thread10ThreadPoolERKNS_16OptimizerOptionsEPKNS_19CustomKernelCreatorEPNS_29ProcessFunctionLibraryRuntimeE@Base 2.0.0
 _ZN10tensorflow26FunctionLibraryRuntimeImplC2EPKNS_9DeviceMgrEPNS_3EnvEPNS_6DeviceEiPKNS_25FunctionLibraryDefinitionEPNS_6thread10ThreadPoolERKNS_16OptimizerOptionsEPKNS_19CustomKernelCreatorEPNS_29ProcessFunctionLibraryRuntimeE@Base 2.0.0
 _ZN10tensorflow26FunctionLibraryRuntimeImplD0Ev@Base 2.0.0
 _ZN10tensorflow26FunctionLibraryRuntimeImplD1Ev@Base 2.0.0
 _ZN10tensorflow26FunctionLibraryRuntimeImplD2Ev@Base 2.0.0
 _ZN10tensorflow26GetMergedOriginalNodeNamesERKNS_13NodeDebugInfoES2_PSt3setINSt7__cxx1112basic_stringIcSt11char_traitsIcESaIcEEESt4lessIS9_ESaIS9_EE@Base 2.0.0
 _ZN10tensorflow26GetMirrorPadModeAttrStringB5cxx11Ev@Base 2.0.0
 _ZN10tensorflow26GetPerThreadMaxParallelismEv@Base 2.0.0
 _ZN10tensorflow26GraphDebugInfo_FileLineCol12InternalSwapEPS0_@Base 2.0.0
 _ZN10tensorflow26GraphDebugInfo_FileLineCol14_InternalParseEPKcPN6google8protobuf8internal12ParseContextE@Base 2.0.0
 _ZN10tensorflow26GraphDebugInfo_FileLineCol16default_instanceEv@Base 2.0.0
 _ZN10tensorflow26GraphDebugInfo_FileLineCol21InitAsDefaultInstanceEv@Base 2.0.0
 _ZN10tensorflow26GraphDebugInfo_FileLineCol5ClearEv@Base 2.0.0
 _ZN10tensorflow26GraphDebugInfo_FileLineCol8CopyFromERKN6google8protobuf7MessageE@Base 2.0.0
 _ZN10tensorflow26GraphDebugInfo_FileLineCol8CopyFromERKS0_@Base 2.0.0
 _ZN10tensorflow26GraphDebugInfo_FileLineCol9ArenaDtorEPv@Base 2.0.0
 _ZN10tensorflow26GraphDebugInfo_FileLineCol9MergeFromERKN6google8protobuf7MessageE@Base 2.0.0
 _ZN10tensorflow26GraphDebugInfo_FileLineCol9MergeFromERKS0_@Base 2.0.0
 _ZN10tensorflow26GraphDebugInfo_FileLineColC1EPN6google8protobuf5ArenaE@Base 2.0.0
 _ZN10tensorflow26GraphDebugInfo_FileLineColC1ERKS0_@Base 2.0.0
 _ZN10tensorflow26GraphDebugInfo_FileLineColC1Ev@Base 2.0.0
 _ZN10tensorflow26GraphDebugInfo_FileLineColC2EPN6google8protobuf5ArenaE@Base 2.0.0
 _ZN10tensorflow26GraphDebugInfo_FileLineColC2ERKS0_@Base 2.0.0
 _ZN10tensorflow26GraphDebugInfo_FileLineColC2Ev@Base 2.0.0
 _ZN10tensorflow26GraphDebugInfo_FileLineColD0Ev@Base 2.0.0
 _ZN10tensorflow26GraphDebugInfo_FileLineColD1Ev@Base 2.0.0
 _ZN10tensorflow26GraphDebugInfo_FileLineColD2Ev@Base 2.0.0
 _ZN10tensorflow26GraphTransferConstNodeInfo12InternalSwapEPS0_@Base 2.0.0
 _ZN10tensorflow26GraphTransferConstNodeInfo14_InternalParseEPKcPN6google8protobuf8internal12ParseContextE@Base 2.0.0
 _ZN10tensorflow26GraphTransferConstNodeInfo16default_instanceEv@Base 2.0.0
 _ZN10tensorflow26GraphTransferConstNodeInfo21InitAsDefaultInstanceEv@Base 2.0.0
 _ZN10tensorflow26GraphTransferConstNodeInfo5ClearEv@Base 2.0.0
 _ZN10tensorflow26GraphTransferConstNodeInfo8CopyFromERKN6google8protobuf7MessageE@Base 2.0.0
 _ZN10tensorflow26GraphTransferConstNodeInfo8CopyFromERKS0_@Base 2.0.0
 _ZN10tensorflow26GraphTransferConstNodeInfo9ArenaDtorEPv@Base 2.0.0
 _ZN10tensorflow26GraphTransferConstNodeInfo9MergeFromERKN6google8protobuf7MessageE@Base 2.0.0
 _ZN10tensorflow26GraphTransferConstNodeInfo9MergeFromERKS0_@Base 2.0.0
 _ZN10tensorflow26GraphTransferConstNodeInfoC1EPN6google8protobuf5ArenaE@Base 2.0.0
 _ZN10tensorflow26GraphTransferConstNodeInfoC1ERKS0_@Base 2.0.0
 _ZN10tensorflow26GraphTransferConstNodeInfoC1Ev@Base 2.0.0
 _ZN10tensorflow26GraphTransferConstNodeInfoC2EPN6google8protobuf5ArenaE@Base 2.0.0
 _ZN10tensorflow26GraphTransferConstNodeInfoC2ERKS0_@Base 2.0.0
 _ZN10tensorflow26GraphTransferConstNodeInfoC2Ev@Base 2.0.0
 _ZN10tensorflow26GraphTransferConstNodeInfoD0Ev@Base 2.0.0
 _ZN10tensorflow26GraphTransferConstNodeInfoD1Ev@Base 2.0.0
 _ZN10tensorflow26GraphTransferConstNodeInfoD2Ev@Base 2.0.0
 _ZN10tensorflow26GraphTransferNodeInputInfo12InternalSwapEPS0_@Base 2.0.0
 _ZN10tensorflow26GraphTransferNodeInputInfo14_InternalParseEPKcPN6google8protobuf8internal12ParseContextE@Base 2.0.0
 _ZN10tensorflow26GraphTransferNodeInputInfo16default_instanceEv@Base 2.0.0
 _ZN10tensorflow26GraphTransferNodeInputInfo21InitAsDefaultInstanceEv@Base 2.0.0
 _ZN10tensorflow26GraphTransferNodeInputInfo5ClearEv@Base 2.0.0
 _ZN10tensorflow26GraphTransferNodeInputInfo8CopyFromERKN6google8protobuf7MessageE@Base 2.0.0
 _ZN10tensorflow26GraphTransferNodeInputInfo8CopyFromERKS0_@Base 2.0.0
 _ZN10tensorflow26GraphTransferNodeInputInfo9ArenaDtorEPv@Base 2.0.0
 _ZN10tensorflow26GraphTransferNodeInputInfo9MergeFromERKN6google8protobuf7MessageE@Base 2.0.0
 _ZN10tensorflow26GraphTransferNodeInputInfo9MergeFromERKS0_@Base 2.0.0
 _ZN10tensorflow26GraphTransferNodeInputInfoC1EPN6google8protobuf5ArenaE@Base 2.0.0
 _ZN10tensorflow26GraphTransferNodeInputInfoC1ERKS0_@Base 2.0.0
 _ZN10tensorflow26GraphTransferNodeInputInfoC1Ev@Base 2.0.0
 _ZN10tensorflow26GraphTransferNodeInputInfoC2EPN6google8protobuf5ArenaE@Base 2.0.0
 _ZN10tensorflow26GraphTransferNodeInputInfoC2ERKS0_@Base 2.0.0
 _ZN10tensorflow26GraphTransferNodeInputInfoC2Ev@Base 2.0.0
 _ZN10tensorflow26GraphTransferNodeInputInfoD0Ev@Base 2.0.0
 _ZN10tensorflow26GraphTransferNodeInputInfoD1Ev@Base 2.0.0
 _ZN10tensorflow26GraphTransferNodeInputInfoD2Ev@Base 2.0.0
 _ZN10tensorflow26JobDef_TasksEntry_DoNotUse9MergeFromERKN6google8protobuf7MessageE@Base 2.0.0
 _ZN10tensorflow26JobDef_TasksEntry_DoNotUse9MergeFromERKS0_@Base 2.0.0
 _ZN10tensorflow26JobDef_TasksEntry_DoNotUseC1EPN6google8protobuf5ArenaE@Base 2.0.0
 _ZN10tensorflow26JobDef_TasksEntry_DoNotUseC1Ev@Base 2.0.0
 _ZN10tensorflow26JobDef_TasksEntry_DoNotUseC2EPN6google8protobuf5ArenaE@Base 2.0.0
 _ZN10tensorflow26JobDef_TasksEntry_DoNotUseC2Ev@Base 2.0.0
 _ZN10tensorflow26JobDef_TasksEntry_DoNotUseD0Ev@Base 2.0.0
 _ZN10tensorflow26JobDef_TasksEntry_DoNotUseD1Ev@Base 2.0.0
 _ZN10tensorflow26JobDef_TasksEntry_DoNotUseD2Ev@Base 2.0.0
 _ZN10tensorflow26LoadDynamicKernelsInternalEv@Base 2.0.0
 _ZN10tensorflow26MTypeFromDTypeIntsOnDeviceENS_8DataTypeE@Base 2.0.0
 _ZN10tensorflow26MakeResourceHandleToOutputEPNS_15OpKernelContextEiRKNSt7__cxx1112basic_stringIcSt11char_traitsIcESaIcEEES9_RKSt10type_index@Base 2.0.0
 _ZN10tensorflow26NewSingleThreadedCpuDeviceEPNS_3EnvE@Base 2.0.0
 _ZN10tensorflow26NodeDef_AttrEntry_DoNotUse9MergeFromERKN6google8protobuf7MessageE@Base 2.0.0
 _ZN10tensorflow26NodeDef_AttrEntry_DoNotUse9MergeFromERKS0_@Base 2.0.0
 _ZN10tensorflow26NodeDef_AttrEntry_DoNotUseC1EPN6google8protobuf5ArenaE@Base 2.0.0
 _ZN10tensorflow26NodeDef_AttrEntry_DoNotUseC1Ev@Base 2.0.0
 _ZN10tensorflow26NodeDef_AttrEntry_DoNotUseC2EPN6google8protobuf5ArenaE@Base 2.0.0
 _ZN10tensorflow26NodeDef_AttrEntry_DoNotUseC2Ev@Base 2.0.0
 _ZN10tensorflow26NodeDef_AttrEntry_DoNotUseD0Ev@Base 2.0.0
 _ZN10tensorflow26NodeDef_AttrEntry_DoNotUseD1Ev@Base 2.0.0
 _ZN10tensorflow26NodeDef_AttrEntry_DoNotUseD2Ev@Base 2.0.0
 _ZN10tensorflow26OpDefAttrDefaultsUnchangedERKNS_5OpDefES2_@Base 2.0.0
 _ZN10tensorflow26RunMetadata_FunctionGraphs12InternalSwapEPS0_@Base 2.0.0
 _ZN10tensorflow26RunMetadata_FunctionGraphs14_InternalParseEPKcPN6google8protobuf8internal12ParseContextE@Base 2.0.0
 _ZN10tensorflow26RunMetadata_FunctionGraphs16default_instanceEv@Base 2.0.0
 _ZN10tensorflow26RunMetadata_FunctionGraphs21InitAsDefaultInstanceEv@Base 2.0.0
 _ZN10tensorflow26RunMetadata_FunctionGraphs22clear_partition_graphsEv@Base 2.0.0
 _ZN10tensorflow26RunMetadata_FunctionGraphs28clear_pre_optimization_graphEv@Base 2.0.0
 _ZN10tensorflow26RunMetadata_FunctionGraphs29clear_post_optimization_graphEv@Base 2.0.0
 _ZN10tensorflow26RunMetadata_FunctionGraphs49unsafe_arena_set_allocated_pre_optimization_graphEPNS_8GraphDefE@Base 2.0.0
 _ZN10tensorflow26RunMetadata_FunctionGraphs50unsafe_arena_set_allocated_post_optimization_graphEPNS_8GraphDefE@Base 2.0.0
 _ZN10tensorflow26RunMetadata_FunctionGraphs5ClearEv@Base 2.0.0
 _ZN10tensorflow26RunMetadata_FunctionGraphs8CopyFromERKN6google8protobuf7MessageE@Base 2.0.0
 _ZN10tensorflow26RunMetadata_FunctionGraphs8CopyFromERKS0_@Base 2.0.0
 _ZN10tensorflow26RunMetadata_FunctionGraphs9ArenaDtorEPv@Base 2.0.0
 _ZN10tensorflow26RunMetadata_FunctionGraphs9MergeFromERKN6google8protobuf7MessageE@Base 2.0.0
 _ZN10tensorflow26RunMetadata_FunctionGraphs9MergeFromERKS0_@Base 2.0.0
 _ZN10tensorflow26RunMetadata_FunctionGraphs9_Internal22pre_optimization_graphEPKS0_@Base 2.0.0
 _ZN10tensorflow26RunMetadata_FunctionGraphs9_Internal23post_optimization_graphEPKS0_@Base 2.0.0
 _ZN10tensorflow26RunMetadata_FunctionGraphsC1EPN6google8protobuf5ArenaE@Base 2.0.0
 _ZN10tensorflow26RunMetadata_FunctionGraphsC1ERKS0_@Base 2.0.0
 _ZN10tensorflow26RunMetadata_FunctionGraphsC1Ev@Base 2.0.0
 _ZN10tensorflow26RunMetadata_FunctionGraphsC2EPN6google8protobuf5ArenaE@Base 2.0.0
 _ZN10tensorflow26RunMetadata_FunctionGraphsC2ERKS0_@Base 2.0.0
 _ZN10tensorflow26RunMetadata_FunctionGraphsC2Ev@Base 2.0.0
